

Microchip MPLAB XC8 Assembler V2.40 build 20220703182018 
                                                                                               Sat Mar 04 16:30:18 2023

Microchip MPLAB XC8 C Compiler v2.40 (Free license) build 20220703182018 Og1 
     1                           	processor	18F57Q43
     2                           	fnconf	rparam,??,?,0
     3                           	pagewidth 120
     4                           	opt	flic
     5                           	psect	smallconst,global,reloc=2,class=SMALLCONST,delta=1,noexec
     6                           	psect	nvBANK5,global,class=BANK5,space=1,delta=1,lowdata,noexec
     7                           	psect	cinit,global,reloc=2,class=CODE,delta=1
     8                           	psect	bssCOMRAM,global,class=COMRAM,space=1,delta=1,lowdata,noexec
     9                           	psect	bssBANK5,global,class=BANK5,space=1,delta=1,lowdata,noexec
    10                           	psect	bssBANK6,global,class=BANK6,space=1,delta=1,lowdata,noexec
    11                           	psect	cstackBANK5,global,class=BANK5,space=1,delta=1,lowdata,noexec
    12                           	psect	cstackCOMRAM,global,class=COMRAM,space=1,delta=1,lowdata,noexec
    13                           	psect	text0,global,reloc=2,class=CODE,delta=1
    14                           	psect	text1,global,reloc=2,class=CODE,delta=1,group=3
    15                           	psect	text2,global,reloc=2,class=CODE,delta=1,group=1
    16                           	psect	text3,global,reloc=2,class=CODE,delta=1,group=1
    17                           	psect	text4,global,reloc=2,class=CODE,delta=1,group=1
    18                           	psect	text5,global,reloc=2,class=CODE,delta=1,group=3
    19                           	psect	text6,global,reloc=2,class=CODE,delta=1,group=1
    20                           	psect	text7,global,reloc=2,class=CODE,delta=1,group=3
    21                           	psect	text8,global,reloc=2,class=CODE,delta=1,group=3
    22                           	psect	text9,global,reloc=2,class=CODE,delta=1
    23                           	psect	text10,global,reloc=2,class=CODE,delta=1,group=3
    24                           	psect	text11,global,reloc=2,class=CODE,delta=1,group=3
    25                           	psect	text12,global,reloc=2,class=CODE,delta=1,group=3
    26                           	psect	text13,global,reloc=2,class=CODE,delta=1,group=3
    27                           	psect	text14,global,reloc=2,class=CODE,delta=1,group=2
    28                           	psect	text15,global,reloc=2,class=CODE,delta=1,group=2
    29                           	psect	text16,global,reloc=2,class=CODE,delta=1,group=2
    30                           	psect	text17,global,reloc=2,class=CODE,delta=1,group=2
    31                           	psect	text18,global,reloc=2,class=CODE,delta=1,group=2
    32                           	psect	text19,global,reloc=2,class=CODE,delta=1,group=2
    33                           	psect	text20,global,reloc=2,class=CODE,delta=1,group=2
    34                           	psect	text21,global,reloc=2,class=CODE,delta=1,group=2
    35                           	psect	text22,global,reloc=2,class=CODE,delta=1,group=3
    36                           	psect	text23,global,reloc=2,class=CODE,delta=1,group=3
    37                           	psect	text24,global,reloc=2,class=CODE,delta=1,group=3
    38                           	psect	text25,global,reloc=2,class=CODE,delta=1,group=2
    39                           	psect	text26,global,reloc=2,class=CODE,delta=1,group=2
    40                           	psect	text27,global,reloc=2,class=CODE,delta=1
    41                           	psect	text28,global,reloc=2,class=CODE,delta=1
    42                           	psect	text29,global,reloc=2,class=CODE,delta=1
    43                           	psect	text30,global,reloc=2,class=CODE,delta=1
    44                           	psect	text31,global,reloc=2,class=CODE,delta=1
    45                           	psect	text32,global,reloc=2,class=CODE,delta=1
    46                           	psect	text33,global,reloc=2,class=CODE,delta=1
    47                           	psect	text34,global,reloc=2,class=CODE,delta=1
    48                           	psect	text35,global,reloc=2,class=CODE,delta=1
    49                           	psect	text36,global,reloc=2,class=CODE,delta=1
    50                           	psect	text37,global,reloc=2,class=CODE,delta=1
    51                           	psect	text38,global,reloc=2,class=CODE,delta=1
    52                           	psect	text39,global,reloc=2,class=CODE,delta=1
    53                           	psect	text40,global,reloc=2,class=CODE,delta=1
    54                           	psect	text41,global,reloc=2,class=CODE,delta=1
    55                           	psect	intsave_regs,global,class=BIGRAM,space=1,delta=1,noexec
    56                           	psect	rparam,global,class=COMRAM,space=1,delta=1,noexec
    57                           	psect	idloc,global,abs,ovrld,class=IDLOC,space=5,delta=1,noexec
    58                           	psect	config,global,abs,ovrld,class=CONFIG,space=4,delta=1,noexec
    59   000000                     
    60                           ; Generated 17/06/2022 GMT
    61                           ; 
    62                           ; Copyright © 2022, Microchip Technology Inc. and its subsidiaries ("Microchip")
    63                           ; All rights reserved.
    64                           ; 
    65                           ; This software is developed by Microchip Technology Inc. and its subsidiaries ("Microch
      +                          ip").
    66                           ; 
    67                           ; Redistribution and use in source and binary forms, with or without modification, are
    68                           ; permitted provided that the following conditions are met:
    69                           ; 
    70                           ;     1. Redistributions of source code must retain the above copyright notice, this lis
      +                          t of
    71                           ;        conditions and the following disclaimer.
    72                           ; 
    73                           ;     2. Redistributions in binary form must reproduce the above copyright notice, this 
      +                          list
    74                           ;        of conditions and the following disclaimer in the documentation and/or other
    75                           ;        materials provided with the distribution. Publication is not required when
    76                           ;        this file is used in an embedded application.
    77                           ; 
    78                           ;     3. Microchip's name may not be used to endorse or promote products derived from th
      +                          is
    79                           ;        software without specific prior written permission.
    80                           ; 
    81                           ; THIS SOFTWARE IS PROVIDED BY MICROCHIP "AS IS" AND ANY EXPRESS OR IMPLIED WARRANTIES,
    82                           ; INCLUDING, BUT NOT LIMITED TO, THE IMPLIED WARRANTIES OF MERCHANTABILITY AND FITNESS F
      +                          OR
    83                           ; PURPOSE ARE DISCLAIMED.  IN NO EVENT SHALL MICROCHIP BE LIABLE FOR ANY DIRECT, INDIREC
      +                          T,
    84                           ; INCIDENTAL, SPECIAL, EXEMPLARY, OR CONSEQUENTIAL DAMAGES (INCLUDING BUT NOT LIMITED TO
    85                           ; PROCUREMENT OF SUBSTITUTE GOODS OR SERVICES; LOSS OF USE, DATA OR PROFITS; OR BUSINESS
    86                           ; INTERRUPTION) HOWSOEVER CAUSED AND ON ANY THEORY OF LIABILITY, WHETHER IN CONTRACT, ST
      +                          RICT
    87                           ; LIABILITY, OR TORT (INCLUDING NEGLIGENCE OR OTHERWISE) ARISING IN ANY WAY OUT OF THE U
      +                          SE OF
    88                           ; THIS SOFTWARE, EVEN IF ADVISED OF THE POSSIBILITY OF SUCH DAMAGE.
    89                           ; 
    90                           ; 
    91                           ; Code-generator required, PIC18F57Q43 Definitions
    92                           ; 
    93                           ; SFR Addresses
    94   000000                     
    95 ;; Function _UART1_DefaultFramingErrorHandler is unused but had its address taken
    96   000000                     
    97 ;; Function _UART1_DefaultOverrunErrorHandler is unused but had its address taken
    98   000000                     
    99 ;; Function _UART1_DefaultErrorHandler is unused but had its address taken
   100   000000                     
   101                           	psect	smallconst
   102   002600                     __psmallconst:
   103                           	callstack 0
   104   002600  00                 	db	0
   105   002601                     _spi1_configuration:
   106                           	callstack 0
   107   002601  02                 	db	2
   108   002602  40                 	db	64
   109   002603  00                 	db	0
   110   002604  07                 	db	7
   111   002605  00                 	db	0
   112   002606                     __end_of_spi1_configuration:
   113                           	callstack 0
   114   000000                     _OSCTUNE	set	176
   115   000000                     _OSCFRQ	set	177
   116   000000                     _OSCEN	set	179
   117   000000                     _TRISD	set	1225
   118   000000                     _TRISB	set	1223
   119   000000                     _TRISE	set	1226
   120   000000                     _LATC	set	1216
   121   000000                     _LATB	set	1215
   122   002606                     STR_1:
   123                           
   124                           ; BSR set to: 0
   125   002606  54                 	db	84	;'T'
   126   002607  65                 	db	101	;'e'
   127   002608  6D                 	db	109	;'m'
   128   002609  70                 	db	112	;'p'
   129   00260A  65                 	db	101	;'e'
   130   00260B  72                 	db	114	;'r'
   131   00260C  61                 	db	97	;'a'
   132   00260D  74                 	db	116	;'t'
   133   00260E  75                 	db	117	;'u'
   134   00260F  72                 	db	114	;'r'
   135   002610  61                 	db	97	;'a'
   136   002611  2D                 	db	45
   137   002612  3E                 	db	62	;'>'
   138   002613  25                 	db	37
   139   002614  30                 	db	48	;'0'
   140   002615  2E                 	db	46
   141   002616  33                 	db	51	;'3'
   142   002617  66                 	db	102	;'f'
   143   002618  0A                 	db	10
   144   002619  0D                 	db	13
   145   00261A  00                 	db	0
   146   00261B                     STR_2:
   147                           
   148                           ; BSR set to: 0
   149   00261B  69                 	db	105	;'i'
   150   00261C  6E                 	db	110	;'n'
   151   00261D  66                 	db	102	;'f'
   152   00261E  00                 	db	0
   153   00261F                     STR_5:
   154                           
   155                           ; BSR set to: 0
   156   00261F  6E                 	db	110	;'n'
   157   002620  61                 	db	97	;'a'
   158   002621  6E                 	db	110	;'n'
   159   002622  00                 	db	0
   160   002623  00                 	db	0	; dummy byte at the end
   161   000000                     
   162                           	psect	nvBANK5
   163   0005D3                     __pnvBANK5:
   164                           	callstack 0
   165   0005D3                     _UART1_ErrorHandler:
   166                           	callstack 0
   167   0005D3                     	ds	3
   168   0005D6                     _UART1_OverrunErrorHandler:
   169                           	callstack 0
   170   0005D6                     	ds	3
   171   0005D9                     _UART1_FramingErrorHandler:
   172                           	callstack 0
   173   0005D9                     	ds	3
   174   000000                     _SPI1CON0bits	set	132
   175   000000                     _U1ERRIRbits	set	690
   176   000000                     _U1CON0bits	set	683
   177   000000                     _TRISC	set	1224
   178   000000                     _LATD	set	1217
   179   000000                     _PMD0	set	96
   180   000000                     _SPI1RXB	set	128
   181   000000                     _SPI1TXB	set	129
   182   000000                     _SPI1TCNTL	set	130
   183   000000                     _SPI1CON0	set	132
   184   000000                     _LATDbits	set	1217
   185   000000                     _TRISA	set	1222
   186   000000                     _LATF	set	1219
   187   000000                     _LATE	set	1218
   188   000000                     _TRISCbits	set	1224
   189   000000                     _SPI1BAUD	set	137
   190   000000                     _SPI1CLK	set	140
   191   000000                     _SPI1CON2	set	134
   192   000000                     _SPI1CON1	set	133
   193   000000                     _ACTCON	set	172
   194   000000                     _OSCCON1	set	173
   195   000000                     _RC4PPS	set	533
   196   000000                     _SPI1SCKPPS	set	618
   197   000000                     _RC4I2C	set	646
   198   000000                     _RC3I2C	set	647
   199   000000                     _RB2I2C	set	648
   200   000000                     _RB1I2C	set	649
   201   000000                     _ANSELA	set	1024
   202   000000                     _ANSELB	set	1032
   203   000000                     _ANSELC	set	1040
   204   000000                     _ANSELD	set	1048
   205   000000                     _PIR3bits	set	1201
   206   000000                     _PIR4bits	set	1202
   207   000000                     _LATA	set	1214
   208   000000                     _TRISF	set	1227
   209   000000                     _INLVLD	set	1052
   210   000000                     _SLRCOND	set	1051
   211   000000                     _ODCOND	set	1050
   212   000000                     _WPUD	set	1049
   213   000000                     _ANSELE	set	1056
   214   000000                     _INLVLC	set	1044
   215   000000                     _SLRCONC	set	1043
   216   000000                     _ODCONC	set	1042
   217   000000                     _WPUC	set	1041
   218   000000                     _INLVLB	set	1036
   219   000000                     _SLRCONB	set	1035
   220   000000                     _ODCONB	set	1034
   221   000000                     _WPUB	set	1033
   222   000000                     _INLVLE	set	1060
   223   000000                     _SLRCONE	set	1059
   224   000000                     _ODCONE	set	1058
   225   000000                     _WPUE	set	1057
   226   000000                     _ANSELF	set	1064
   227   000000                     _INLVLF	set	1068
   228   000000                     _SLRCONF	set	1067
   229   000000                     _ODCONF	set	1066
   230   000000                     _WPUF	set	1065
   231   000000                     _INLVLA	set	1028
   232   000000                     _SLRCONA	set	1027
   233   000000                     _ODCONA	set	1026
   234   000000                     _WPUA	set	1025
   235   000000                     _U1RXB	set	673
   236   000000                     _U1P1L	set	677
   237   000000                     _SPI1SDIPPS	set	619
   238   000000                     _U1RXPPS	set	626
   239   000000                     _RC6PPS	set	535
   240   000000                     _RF0PPS	set	553
   241   000000                     _OSCCON3	set	175
   242   000000                     _PMD3	set	99
   243   000000                     _PMD1	set	97
   244   000000                     _PMD8	set	104
   245   000000                     _PMD7	set	103
   246   000000                     _PMD6	set	102
   247   000000                     _PMD5	set	101
   248   000000                     _PMD4	set	100
   249   000000                     _U1ERRIE	set	691
   250   000000                     _U1ERRIR	set	690
   251   000000                     _U1UIR	set	689
   252   000000                     _U1FIFO	set	688
   253   000000                     _U1BRGH	set	687
   254   000000                     _U1BRGL	set	686
   255   000000                     _U1CON2	set	685
   256   000000                     _U1CON1	set	684
   257   000000                     _U1CON0	set	683
   258   000000                     _U1P3H	set	682
   259   000000                     _U1P3L	set	681
   260   000000                     _U1P2H	set	680
   261   000000                     _U1P2L	set	679
   262   000000                     _U1P1H	set	678
   263   000000                     _U1TXB	set	675
   264                           
   265                           ; #config settings
   266                           
   267                           	psect	cinit
   268   005178                     __pcinit:
   269                           	callstack 0
   270   005178                     start_initialization:
   271                           	callstack 0
   272   005178                     __initialization:
   273                           	callstack 0
   274                           
   275                           ; Clear objects allocated to BANK6 (80 bytes)
   276   005178  EE01  F200         	lfsr	0,__pbssBANK6
   277   00517C  0E50               	movlw	80
   278   00517E                     clear_0:
   279   00517E  6AEE               	clrf	postinc0,c
   280   005180  06E8               	decf	wreg,f,c
   281   005182  E1FD               	bnz	clear_0
   282                           
   283                           ; Clear objects allocated to BANK5 (12 bytes)
   284   005184  EE01  F1C7         	lfsr	0,__pbssBANK5
   285   005188  0E0C               	movlw	12
   286   00518A                     clear_1:
   287   00518A  6AEE               	clrf	postinc0,c
   288   00518C  06E8               	decf	wreg,f,c
   289   00518E  E1FD               	bnz	clear_1
   290                           
   291                           ; Clear objects allocated to COMRAM (2 bytes)
   292   005190  6A5F               	clrf	(__pbssCOMRAM+1)& (0+255),c
   293   005192  6A5E               	clrf	__pbssCOMRAM& (0+255),c
   294   005194                     end_of_initialization:
   295                           	callstack 0
   296   005194                     __end_of__initialization:
   297                           	callstack 0
   298   005194  0100               	movlb	0
   299   005196  EFF1  F022         	goto	_main	;jump to C main() function
   300                           
   301                           	psect	bssCOMRAM
   302   00055E                     __pbssCOMRAM:
   303                           	callstack 0
   304   00055E                     _flags:
   305                           	callstack 0
   306   00055E                     	ds	1
   307   00055F                     _uart1RxLastError:
   308                           	callstack 0
   309   00055F                     	ds	1
   310                           
   311                           	psect	bssBANK5
   312   0005C7                     __pbssBANK5:
   313                           	callstack 0
   314   0005C7                     floorf@F526:
   315                           	callstack 0
   316   0005C7                     	ds	4
   317   0005CB                     ___fpclassifyf@F465:
   318                           	callstack 0
   319   0005CB                     	ds	4
   320   0005CF                     _width:
   321                           	callstack 0
   322   0005CF                     	ds	2
   323   0005D1                     _prec:
   324                           	callstack 0
   325   0005D1                     	ds	2
   326                           
   327                           	psect	bssBANK6
   328   000600                     __pbssBANK6:
   329                           	callstack 0
   330   000600                     _dbuf:
   331                           	callstack 0
   332   000600                     	ds	80
   333                           
   334                           	psect	cstackBANK5
   335   000560                     __pcstackBANK5:
   336                           	callstack 0
   337   000560                     efgtoa@ne:
   338                           	callstack 0
   339                           
   340                           ; 2 bytes @ 0x0
   341   000560                     	ds	2
   342   000562                     efgtoa@p:
   343                           	callstack 0
   344                           
   345                           ; 2 bytes @ 0x2
   346   000562                     	ds	2
   347   000564                     efgtoa@t:
   348                           	callstack 0
   349                           
   350                           ; 2 bytes @ 0x4
   351   000564                     	ds	2
   352   000566                     _efgtoa$1135:
   353                           	callstack 0
   354                           
   355                           ; 2 bytes @ 0x6
   356   000566                     	ds	2
   357   000568                     efgtoa@pp:
   358                           	callstack 0
   359                           
   360                           ; 1 bytes @ 0x8
   361   000568                     	ds	1
   362   000569                     efgtoa@mode:
   363                           	callstack 0
   364                           
   365                           ; 1 bytes @ 0x9
   366   000569                     	ds	1
   367   00056A                     efgtoa@nmode:
   368                           	callstack 0
   369                           
   370                           ; 1 bytes @ 0xA
   371   00056A                     	ds	1
   372   00056B                     efgtoa@d:
   373                           	callstack 0
   374                           
   375                           ; 2 bytes @ 0xB
   376   00056B                     	ds	2
   377   00056D                     efgtoa@m:
   378                           	callstack 0
   379                           
   380                           ; 2 bytes @ 0xD
   381   00056D                     	ds	2
   382   00056F                     efgtoa@e:
   383                           	callstack 0
   384                           
   385                           ; 2 bytes @ 0xF
   386   00056F                     	ds	2
   387   000571                     efgtoa@w:
   388                           	callstack 0
   389                           
   390                           ; 2 bytes @ 0x11
   391   000571                     	ds	2
   392   000573                     efgtoa@ou:
   393                           	callstack 0
   394                           
   395                           ; 4 bytes @ 0x13
   396   000573                     	ds	4
   397   000577                     efgtoa@h:
   398                           	callstack 0
   399                           
   400                           ; 4 bytes @ 0x17
   401   000577                     	ds	4
   402   00057B                     efgtoa@l:
   403                           	callstack 0
   404                           
   405                           ; 4 bytes @ 0x1B
   406   00057B                     	ds	4
   407   00057F                     efgtoa@i:
   408                           	callstack 0
   409                           
   410                           ; 2 bytes @ 0x1F
   411   00057F                     	ds	2
   412   000581                     efgtoa@sign:
   413                           	callstack 0
   414                           
   415                           ; 1 bytes @ 0x21
   416   000581                     	ds	1
   417   000582                     efgtoa@g:
   418                           	callstack 0
   419                           
   420                           ; 4 bytes @ 0x22
   421   000582                     	ds	4
   422   000586                     efgtoa@n:
   423                           	callstack 0
   424                           
   425                           ; 2 bytes @ 0x26
   426   000586                     	ds	2
   427   000588                     efgtoa@u:
   428                           	callstack 0
   429                           
   430                           ; 4 bytes @ 0x28
   431   000588                     	ds	4
   432   00058C                     vfpfcnvrt@fp:
   433                           	callstack 0
   434                           
   435                           ; 2 bytes @ 0x2C
   436   00058C                     	ds	2
   437   00058E                     vfpfcnvrt@fmt:
   438                           	callstack 0
   439                           
   440                           ; 2 bytes @ 0x2E
   441   00058E                     	ds	2
   442   000590                     vfpfcnvrt@ap:
   443                           	callstack 0
   444                           
   445                           ; 2 bytes @ 0x30
   446   000590                     	ds	2
   447   000592                     ?_vfprintf:
   448                           	callstack 0
   449   000592                     vfprintf@fp:
   450                           	callstack 0
   451                           
   452                           ; 2 bytes @ 0x32
   453   000592                     	ds	2
   454   000594                     vfprintf@fmt:
   455                           	callstack 0
   456                           
   457                           ; 2 bytes @ 0x34
   458   000594                     	ds	2
   459   000596                     vfprintf@ap:
   460                           	callstack 0
   461                           
   462                           ; 2 bytes @ 0x36
   463   000596                     	ds	2
   464   000598                     ?_sprintf:
   465                           	callstack 0
   466   000598                     sprintf@s:
   467                           	callstack 0
   468                           
   469                           ; 2 bytes @ 0x38
   470   000598                     	ds	2
   471   00059A                     sprintf@fmt:
   472                           	callstack 0
   473                           
   474                           ; 2 bytes @ 0x3A
   475   00059A                     	ds	6
   476   0005A0                     main@cadena:
   477                           	callstack 0
   478                           
   479                           ; 25 bytes @ 0x40
   480   0005A0                     	ds	25
   481   0005B9                     main@Temperatura:
   482                           	callstack 0
   483                           
   484                           ; 4 bytes @ 0x59
   485   0005B9                     	ds	4
   486   0005BD                     _main$1497:
   487                           	callstack 0
   488                           
   489                           ; 4 bytes @ 0x5D
   490   0005BD                     	ds	4
   491   0005C1                     main@Trama:
   492                           	callstack 0
   493                           
   494                           ; 2 bytes @ 0x61
   495   0005C1                     	ds	2
   496   0005C3                     main@tramH:
   497                           	callstack 0
   498                           
   499                           ; 1 bytes @ 0x63
   500   0005C3                     	ds	1
   501   0005C4                     main@tramL:
   502                           	callstack 0
   503                           
   504                           ; 1 bytes @ 0x64
   505   0005C4                     	ds	1
   506   0005C5                     main@buffer:
   507                           	callstack 0
   508                           
   509                           ; 2 bytes @ 0x65
   510   0005C5                     	ds	2
   511                           
   512                           	psect	cstackCOMRAM
   513   000501                     __pcstackCOMRAM:
   514                           	callstack 0
   515   000501                     ??_SPI1_Open:
   516   000501                     ?___fpclassifyf:
   517                           	callstack 0
   518   000501                     ?_isdigit:
   519                           	callstack 0
   520   000501                     ?_isspace:
   521                           	callstack 0
   522   000501                     ?___wmul:
   523                           	callstack 0
   524   000501                     ?___fladd:
   525                           	callstack 0
   526   000501                     ?___fldiv:
   527                           	callstack 0
   528   000501                     ?_labs:
   529                           	callstack 0
   530   000501                     ?___flneg:
   531                           	callstack 0
   532   000501                     ?___fltol:
   533                           	callstack 0
   534   000501                     ?___xxtofl:
   535                           	callstack 0
   536   000501                     SPI1_ExchangeByte@data:
   537                           	callstack 0
   538   000501                     UART1_Write@txData:
   539                           	callstack 0
   540   000501                     ___wmul@multiplier:
   541                           	callstack 0
   542   000501                     isdigit@c:
   543                           	callstack 0
   544   000501                     isspace@c:
   545                           	callstack 0
   546   000501                     memcpy@d1:
   547                           	callstack 0
   548   000501                     strcpy@dest:
   549                           	callstack 0
   550   000501                     UART1_SetFramingErrorHandler@interruptHandler:
   551                           	callstack 0
   552   000501                     UART1_SetOverrunErrorHandler@interruptHandler:
   553                           	callstack 0
   554   000501                     UART1_SetErrorHandler@interruptHandler:
   555                           	callstack 0
   556   000501                     ___fleq@ff1:
   557                           	callstack 0
   558   000501                     ___flneg@f1:
   559                           	callstack 0
   560   000501                     ___fltol@f1:
   561                           	callstack 0
   562   000501                     ___fladd@b:
   563                           	callstack 0
   564   000501                     ___fldiv@b:
   565                           	callstack 0
   566   000501                     ___xxtofl@val:
   567                           	callstack 0
   568   000501                     ___fpclassifyf@x:
   569                           	callstack 0
   570   000501                     labs@a:
   571                           	callstack 0
   572                           
   573                           ; 4 bytes @ 0x0
   574   000501                     	ds	1
   575   000502                     SPI1_Open@spi1UniqueConfiguration:
   576                           	callstack 0
   577   000502                     putch@txData:
   578                           	callstack 0
   579   000502                     SPI1_ReadBlock@block:
   580                           	callstack 0
   581   000502                     UART1_PutS@s:
   582                           	callstack 0
   583                           
   584                           ; 2 bytes @ 0x1
   585   000502                     	ds	1
   586   000503                     ??_isdigit:
   587   000503                     ??_isspace:
   588   000503                     ___wmul@multiplicand:
   589                           	callstack 0
   590   000503                     memcpy@s1:
   591                           	callstack 0
   592   000503                     fputc@c:
   593                           	callstack 0
   594   000503                     strcpy@src:
   595                           	callstack 0
   596                           
   597                           ; 2 bytes @ 0x2
   598   000503                     	ds	1
   599   000504                     SPI1_ReadBlock@blockSize:
   600                           	callstack 0
   601                           
   602                           ; 2 bytes @ 0x3
   603   000504                     	ds	1
   604   000505                     ??___fpclassifyf:
   605   000505                     ??_labs:
   606   000505                     ??___fltol:
   607   000505                     ??___xxtofl:
   608   000505                     _isspace$1213:
   609                           	callstack 0
   610   000505                     ___wmul@product:
   611                           	callstack 0
   612   000505                     memcpy@n:
   613                           	callstack 0
   614   000505                     fputc@fp:
   615                           	callstack 0
   616   000505                     strcpy@s:
   617                           	callstack 0
   618   000505                     ___fleq@ff2:
   619                           	callstack 0
   620   000505                     ___fladd@a:
   621                           	callstack 0
   622   000505                     ___fldiv@a:
   623                           	callstack 0
   624                           
   625                           ; 4 bytes @ 0x4
   626   000505                     	ds	1
   627   000506                     SPI1_ReadBlock@data:
   628                           	callstack 0
   629                           
   630                           ; 2 bytes @ 0x5
   631   000506                     	ds	1
   632   000507                     ??_fputc:
   633   000507                     ?_atoi:
   634                           	callstack 0
   635   000507                     atoi@s:
   636                           	callstack 0
   637   000507                     memcpy@d:
   638                           	callstack 0
   639   000507                     strcpy@d:
   640                           	callstack 0
   641                           
   642                           ; 2 bytes @ 0x6
   643   000507                     	ds	2
   644   000509                     ??___fladd:
   645   000509                     ??___fldiv:
   646   000509                     ??_atoi:
   647   000509                     ??___fleq:
   648   000509                     ___fltol@sign1:
   649                           	callstack 0
   650   000509                     ___xxtofl@sign:
   651                           	callstack 0
   652   000509                     ___fpclassifyf@e:
   653                           	callstack 0
   654   000509                     memcpy@s:
   655                           	callstack 0
   656                           
   657                           ; 2 bytes @ 0x8
   658   000509                     	ds	1
   659   00050A                     ___fltol@exp1:
   660                           	callstack 0
   661   00050A                     ___xxtofl@exp:
   662                           	callstack 0
   663                           
   664                           ; 1 bytes @ 0x9
   665   00050A                     	ds	1
   666   00050B                     memcpy@tmp:
   667                           	callstack 0
   668   00050B                     ___xxtofl@arg:
   669                           	callstack 0
   670   00050B                     ___fpclassifyf@u:
   671                           	callstack 0
   672                           
   673                           ; 4 bytes @ 0xA
   674   00050B                     	ds	1
   675   00050C                     atoi@neg:
   676                           	callstack 0
   677   00050C                     fputs@s:
   678                           	callstack 0
   679                           
   680                           ; 2 bytes @ 0xB
   681   00050C                     	ds	1
   682   00050D                     ___fladd@signs:
   683                           	callstack 0
   684   00050D                     ___fldiv@rem:
   685                           	callstack 0
   686                           
   687                           ; 4 bytes @ 0xC
   688   00050D                     	ds	1
   689   00050E                     ___fladd@aexp:
   690                           	callstack 0
   691   00050E                     atoi@n:
   692                           	callstack 0
   693   00050E                     fputs@fp:
   694                           	callstack 0
   695                           
   696                           ; 2 bytes @ 0xD
   697   00050E                     	ds	1
   698   00050F                     ?___flmul:
   699                           	callstack 0
   700   00050F                     ___fladd@bexp:
   701                           	callstack 0
   702   00050F                     ___flmul@b:
   703                           	callstack 0
   704                           
   705                           ; 4 bytes @ 0xE
   706   00050F                     	ds	1
   707   000510                     ___fladd@grs:
   708                           	callstack 0
   709   000510                     fputs@c:
   710                           	callstack 0
   711                           
   712                           ; 1 bytes @ 0xF
   713   000510                     	ds	1
   714   000511                     ___fldiv@sign:
   715                           	callstack 0
   716   000511                     fputs@i:
   717                           	callstack 0
   718                           
   719                           ; 2 bytes @ 0x10
   720   000511                     	ds	1
   721   000512                     ___fldiv@new_exp:
   722                           	callstack 0
   723                           
   724                           ; 2 bytes @ 0x11
   725   000512                     	ds	1
   726   000513                     pad@fp:
   727                           	callstack 0
   728   000513                     ___flmul@a:
   729                           	callstack 0
   730                           
   731                           ; 4 bytes @ 0x12
   732   000513                     	ds	1
   733   000514                     ___fldiv@grs:
   734                           	callstack 0
   735                           
   736                           ; 4 bytes @ 0x13
   737   000514                     	ds	1
   738   000515                     pad@buf:
   739                           	callstack 0
   740                           
   741                           ; 2 bytes @ 0x14
   742   000515                     	ds	2
   743   000517                     ??___flmul:
   744   000517                     pad@p:
   745                           	callstack 0
   746                           
   747                           ; 2 bytes @ 0x16
   748   000517                     	ds	1
   749   000518                     ___fldiv@bexp:
   750                           	callstack 0
   751                           
   752                           ; 1 bytes @ 0x17
   753   000518                     	ds	1
   754   000519                     ??_pad:
   755   000519                     ___fldiv@aexp:
   756                           	callstack 0
   757                           
   758                           ; 1 bytes @ 0x18
   759   000519                     	ds	1
   760   00051A                     ?_floorf:
   761                           	callstack 0
   762   00051A                     pad@i:
   763                           	callstack 0
   764   00051A                     floorf@x:
   765                           	callstack 0
   766                           
   767                           ; 4 bytes @ 0x19
   768   00051A                     	ds	1
   769   00051B                     ___flmul@sign:
   770                           	callstack 0
   771                           
   772                           ; 1 bytes @ 0x1A
   773   00051B                     	ds	1
   774   00051C                     pad@w:
   775                           	callstack 0
   776   00051C                     ___flmul@grs:
   777                           	callstack 0
   778                           
   779                           ; 4 bytes @ 0x1B
   780   00051C                     	ds	2
   781   00051E                     ??_floorf:
   782                           
   783                           ; 1 bytes @ 0x1D
   784   00051E                     	ds	2
   785   000520                     ___flmul@aexp:
   786                           	callstack 0
   787                           
   788                           ; 1 bytes @ 0x1F
   789   000520                     	ds	1
   790   000521                     ___flmul@bexp:
   791                           	callstack 0
   792                           
   793                           ; 1 bytes @ 0x20
   794   000521                     	ds	1
   795   000522                     ___flmul@prod:
   796                           	callstack 0
   797                           
   798                           ; 4 bytes @ 0x21
   799   000522                     	ds	2
   800   000524                     floorf@m:
   801                           	callstack 0
   802                           
   803                           ; 4 bytes @ 0x23
   804   000524                     	ds	2
   805   000526                     ___flmul@temp:
   806                           	callstack 0
   807                           
   808                           ; 2 bytes @ 0x25
   809   000526                     	ds	2
   810   000528                     ?___flsub:
   811                           	callstack 0
   812   000528                     floorf@e:
   813                           	callstack 0
   814   000528                     ___flge@ff1:
   815                           	callstack 0
   816   000528                     ___flsub@b:
   817                           	callstack 0
   818                           
   819                           ; 4 bytes @ 0x27
   820   000528                     	ds	2
   821   00052A                     floorf@u:
   822                           	callstack 0
   823                           
   824                           ; 4 bytes @ 0x29
   825   00052A                     	ds	2
   826   00052C                     ___flge@ff2:
   827                           	callstack 0
   828   00052C                     ___flsub@a:
   829                           	callstack 0
   830                           
   831                           ; 4 bytes @ 0x2B
   832   00052C                     	ds	4
   833   000530                     ??___flge:
   834                           
   835                           ; 1 bytes @ 0x2F
   836   000530                     	ds	4
   837   000534                     efgtoa@fp:
   838                           	callstack 0
   839                           
   840                           ; 2 bytes @ 0x33
   841   000534                     	ds	2
   842   000536                     efgtoa@f:
   843                           	callstack 0
   844                           
   845                           ; 4 bytes @ 0x35
   846   000536                     	ds	4
   847   00053A                     efgtoa@c:
   848                           	callstack 0
   849                           
   850                           ; 1 bytes @ 0x39
   851   00053A                     	ds	1
   852   00053B                     ??_efgtoa:
   853                           
   854                           ; 1 bytes @ 0x3A
   855   00053B                     	ds	2
   856   00053D                     ??_vfpfcnvrt:
   857                           
   858                           ; 1 bytes @ 0x3C
   859   00053D                     	ds	3
   860   000540                     vfpfcnvrt@convarg:
   861                           	callstack 0
   862                           
   863                           ; 8 bytes @ 0x3F
   864   000540                     	ds	8
   865   000548                     vfpfcnvrt@done:
   866                           	callstack 0
   867                           
   868                           ; 2 bytes @ 0x47
   869   000548                     	ds	2
   870   00054A                     vfpfcnvrt@c:
   871                           	callstack 0
   872                           
   873                           ; 1 bytes @ 0x49
   874   00054A                     	ds	1
   875   00054B                     vfpfcnvrt@cp:
   876                           	callstack 0
   877                           
   878                           ; 2 bytes @ 0x4A
   879   00054B                     	ds	2
   880   00054D                     vfprintf@cfmt:
   881                           	callstack 0
   882                           
   883                           ; 2 bytes @ 0x4C
   884   00054D                     	ds	2
   885   00054F                     sprintf@ap:
   886                           	callstack 0
   887                           
   888                           ; 2 bytes @ 0x4E
   889   00054F                     	ds	2
   890   000551                     sprintf@f:
   891                           	callstack 0
   892                           
   893                           ; 11 bytes @ 0x50
   894   000551                     	ds	11
   895   00055C                     ??_main:
   896                           
   897                           ; 1 bytes @ 0x5B
   898   00055C                     	ds	2
   899                           
   900 ;;
   901 ;;Main: autosize = 0, tempsize = 2, incstack = 0, save=0
   902 ;;
   903 ;; *************** function _main *****************
   904 ;; Defined at:
   905 ;;		line 49 in file "main.c"
   906 ;; Parameters:    Size  Location     Type
   907 ;;		None
   908 ;; Auto vars:     Size  Location     Type
   909 ;;  Temperatura     4   89[BANK5 ] float 
   910 ;;  cadena         25   64[BANK5 ] unsigned char [25]
   911 ;;  buffer          2  101[BANK5 ] unsigned char [2]
   912 ;;  Trama           2   97[BANK5 ] unsigned short 
   913 ;;  tramL           1  100[BANK5 ] unsigned char 
   914 ;;  tramH           1   99[BANK5 ] unsigned char 
   915 ;; Return value:  Size  Location     Type
   916 ;;                  1    wreg      void 
   917 ;; Registers used:
   918 ;;		wreg, fsr1l, fsr1h, fsr2l, fsr2h, status,2, status,0, tblptrl, tblptrh, tblptru, prodl, prodh, cstack
   919 ;; Tracked objects:
   920 ;;		On entry : 0/0
   921 ;;		On exit  : 0/0
   922 ;;		Unchanged: 0/0
   923 ;; Data sizes:     COMRAM   BANK5   BANK6   BANK7   BANK8   BANK9  BANK10  BANK11  BANK12  BANK13  BANK14  BANK15  BANK1
      +6  BANK17  BANK18  BANK19  BANK20  BANK21  BANK22  BANK23  BANK24  BANK25  BANK26  BANK27  BANK28  BANK29  BANK30  BANK3
      +1  BANK32  BANK33  BANK34  BANK35  BANK36
   924 ;;      Params:         0       0       0       0       0       0       0       0       0       0       0       0       
      +0       0       0       0       0       0       0       0       0       0       0       0       0       0       0       
      +0       0       0       0       0       0
   925 ;;      Locals:         0      39       0       0       0       0       0       0       0       0       0       0       
      +0       0       0       0       0       0       0       0       0       0       0       0       0       0       0       
      +0       0       0       0       0       0
   926 ;;      Temps:          2       0       0       0       0       0       0       0       0       0       0       0       
      +0       0       0       0       0       0       0       0       0       0       0       0       0       0       0       
      +0       0       0       0       0       0
   927 ;;      Totals:         2      39       0       0       0       0       0       0       0       0       0       0       
      +0       0       0       0       0       0       0       0       0       0       0       0       0       0       0       
      +0       0       0       0       0       0
   928 ;;Total ram usage:       41 bytes
   929 ;; Hardware stack levels required when called: 9
   930 ;; This function calls:
   931 ;;		_SPI1_Close
   932 ;;		_SPI1_Open
   933 ;;		_SPI1_ReadBlock
   934 ;;		_SYSTEM_Initialize
   935 ;;		_UART1_PutS
   936 ;;		___fldiv
   937 ;;		___flmul
   938 ;;		___xxtofl
   939 ;;		_sprintf
   940 ;; This function is called by:
   941 ;;		Startup code after reset
   942 ;; This function uses a non-reentrant model
   943 ;;
   944                           
   945                           	psect	text0
   946   0045E2                     __ptext0:
   947                           	callstack 0
   948   0045E2                     _main:
   949                           	callstack 118
   950   0045E2                     
   951                           ;main.c: 52:     SYSTEM_Initialize();
   952   0045E2  EC03  F029         	call	_SYSTEM_Initialize	;wreg free
   953   0045E6                     l4088:
   954   0045E6  98C1               	bcf	193,4,c	;volatile
   955   0045E8                     
   956                           ;main.c: 70:         SPI1_Open(SPI1_DEFAULT);
   957   0045E8  0E00               	movlw	0
   958   0045EA  ECFC  F024         	call	_SPI1_Open
   959   0045EE                     
   960                           ;main.c: 71:         SPI1_ReadBlock(buffer,2),
   961   0045EE  0EC5               	movlw	low main@buffer
   962   0045F0  6E02               	movwf	SPI1_ReadBlock@block^(0+1280),c
   963   0045F2  0E05               	movlw	high main@buffer
   964   0045F4  6E03               	movwf	(SPI1_ReadBlock@block+1)^(0+1280),c
   965   0045F6  0E00               	movlw	0
   966   0045F8  6E05               	movwf	(SPI1_ReadBlock@blockSize+1)^(0+1280),c
   967   0045FA  0E02               	movlw	2
   968   0045FC  6E04               	movwf	SPI1_ReadBlock@blockSize^(0+1280),c
   969   0045FE  EC2F  F028         	call	_SPI1_ReadBlock	;wreg free
   970   004602  EC28  F029         	call	_SPI1_Close	;wreg free
   971   004606  88C1               	bsf	193,4,c	;volatile
   972   004608                     
   973                           ;main.c: 74:         tramH = buffer[0];
   974   004608  C5C5  F5C3         	movff	main@buffer,main@tramH
   975   00460C                     
   976                           ;main.c: 75:         tramL = buffer[1];
   977   00460C  C5C6  F5C4         	movff	main@buffer+1,main@tramL
   978   004610                     
   979                           ;main.c: 77:         Trama = (tramH<<8)+tramL;
   980   004610  0105               	movlb	5	; () banked
   981   004612  51C3               	movf	main@tramH& (0+255),w,b
   982   004614  6E5D               	movwf	(??_main+1)^(0+1280),c
   983   004616  6A5C               	clrf	??_main^(0+1280),c
   984   004618  51C4               	movf	main@tramL& (0+255),w,b
   985   00461A  245C               	addwf	??_main^(0+1280),w,c
   986   00461C  6FC1               	movwf	main@Trama& (0+255),b
   987   00461E  0E00               	movlw	0
   988   004620  205D               	addwfc	(??_main+1)^(0+1280),w,c
   989   004622  6FC2               	movwf	(main@Trama+1)& (0+255),b
   990   004624                     
   991                           ; BSR set to: 5
   992                           ;main.c: 79:         float Temperatura = Trama*0.250;
   993   004624  C5C1  F501         	movff	main@Trama,___xxtofl@val
   994   004628  C5C2  F502         	movff	main@Trama+1,___xxtofl@val+1
   995   00462C  6A03               	clrf	(___xxtofl@val+2)^(0+1280),c
   996   00462E  6A04               	clrf	(___xxtofl@val+3)^(0+1280),c
   997   004630  0E00               	movlw	0
   998   004632  EC68  F021         	call	___xxtofl
   999   004636  C501  F50F         	movff	?___xxtofl,___flmul@b
  1000   00463A  C502  F510         	movff	?___xxtofl+1,___flmul@b+1
  1001   00463E  C503  F511         	movff	?___xxtofl+2,___flmul@b+2
  1002   004642  C504  F512         	movff	?___xxtofl+3,___flmul@b+3
  1003   004646  0E00               	movlw	0
  1004   004648  6E13               	movwf	___flmul@a^(0+1280),c
  1005   00464A  0E00               	movlw	0
  1006   00464C  6E14               	movwf	(___flmul@a+1)^(0+1280),c
  1007   00464E  0E80               	movlw	128
  1008   004650  6E15               	movwf	(___flmul@a+2)^(0+1280),c
  1009   004652  0E3E               	movlw	62
  1010   004654  6E16               	movwf	(___flmul@a+3)^(0+1280),c
  1011   004656  ECA4  F01A         	call	___flmul	;wreg free
  1012   00465A  C50F  F5B9         	movff	?___flmul,main@Temperatura
  1013   00465E  C510  F5BA         	movff	?___flmul+1,main@Temperatura+1
  1014   004662  C511  F5BB         	movff	?___flmul+2,main@Temperatura+2
  1015   004666  C512  F5BC         	movff	?___flmul+3,main@Temperatura+3
  1016   00466A                     
  1017                           ;main.c: 80:         sprintf(cadena,"Temperatura->%0.3f\n\r",Temperatura/10);
  1018   00466A  C5B9  F501         	movff	main@Temperatura,___fldiv@b
  1019   00466E  C5BA  F502         	movff	main@Temperatura+1,___fldiv@b+1
  1020   004672  C5BB  F503         	movff	main@Temperatura+2,___fldiv@b+2
  1021   004676  C5BC  F504         	movff	main@Temperatura+3,___fldiv@b+3
  1022   00467A  0E00               	movlw	0
  1023   00467C  6E05               	movwf	___fldiv@a^(0+1280),c
  1024   00467E  0E00               	movlw	0
  1025   004680  6E06               	movwf	(___fldiv@a+1)^(0+1280),c
  1026   004682  0E20               	movlw	32
  1027   004684  6E07               	movwf	(___fldiv@a+2)^(0+1280),c
  1028   004686  0E41               	movlw	65
  1029   004688  6E08               	movwf	(___fldiv@a+3)^(0+1280),c
  1030   00468A  EC92  F01E         	call	___fldiv	;wreg free
  1031   00468E  C501  F5BD         	movff	?___fldiv,_main$1497
  1032   004692  C502  F5BE         	movff	?___fldiv+1,_main$1497+1
  1033   004696  C503  F5BF         	movff	?___fldiv+2,_main$1497+2
  1034   00469A  C504  F5C0         	movff	?___fldiv+3,_main$1497+3
  1035   00469E                     
  1036                           ;main.c: 80:         sprintf(cadena,"Temperatura->%0.3f\n\r",Temperatura/10);
  1037   00469E  0EA0               	movlw	low main@cadena
  1038   0046A0  0105               	movlb	5	; () banked
  1039   0046A2  6F98               	movwf	sprintf@s& (0+255),b
  1040   0046A4  0E05               	movlw	high main@cadena
  1041   0046A6  6F99               	movwf	(sprintf@s+1)& (0+255),b
  1042   0046A8  0E06               	movlw	low STR_1
  1043   0046AA  6F9A               	movwf	sprintf@fmt& (0+255),b
  1044   0046AC  0E26               	movlw	high STR_1
  1045   0046AE  6F9B               	movwf	(sprintf@fmt+1)& (0+255),b
  1046   0046B0  C5BD  F59C         	movff	_main$1497,?_sprintf+4
  1047   0046B4  C5BE  F59D         	movff	_main$1497+1,?_sprintf+5
  1048   0046B8  C5BF  F59E         	movff	_main$1497+2,?_sprintf+6
  1049   0046BC  C5C0  F59F         	movff	_main$1497+3,?_sprintf+7
  1050   0046C0  EC54  F027         	call	_sprintf	;wreg free
  1051   0046C4                     
  1052                           ;main.c: 82:         UART1_PutS(cadena);
  1053   0046C4  0EA0               	movlw	low main@cadena
  1054   0046C6  6E02               	movwf	UART1_PutS@s^(0+1280),c
  1055   0046C8  0E05               	movlw	high main@cadena
  1056   0046CA  6E03               	movwf	(UART1_PutS@s+1)^(0+1280),c
  1057   0046CC  EC69  F028         	call	_UART1_PutS	;wreg free
  1058   0046D0                     
  1059                           ;main.c: 83:         _delay((unsigned long)((400)*(64000000/4000.0)));
  1060   0046D0  0E21               	movlw	33
  1061   0046D2  6E5D               	movwf	(??_main+1)^(0+1280),c
  1062   0046D4  0E78               	movlw	120
  1063   0046D6  6E5C               	movwf	??_main^(0+1280),c
  1064   0046D8  0E98               	movlw	152
  1065   0046DA                     u3997:
  1066   0046DA  2EE8               	decfsz	wreg,f,c
  1067   0046DC  D7FE               	bra	u3997
  1068   0046DE  2E5C               	decfsz	??_main^(0+1280),f,c
  1069   0046E0  D7FC               	bra	u3997
  1070   0046E2  2E5D               	decfsz	(??_main+1)^(0+1280),f,c
  1071   0046E4  D7FA               	bra	u3997
  1072   0046E6  D000               	nop2	
  1073   0046E8  EFF3  F022         	goto	l4088
  1074   0046EC  EFFE  F0FF         	goto	start
  1075   0046F0                     __end_of_main:
  1076                           	callstack 0
  1077                           
  1078 ;; *************** function _sprintf *****************
  1079 ;; Defined at:
  1080 ;;		line 9 in file "C:\Program Files\Microchip\xc8\v2.40\pic\sources\c99\common\nf_sprintf.c"
  1081 ;; Parameters:    Size  Location     Type
  1082 ;;  s               2   56[BANK5 ] PTR unsigned char 
  1083 ;;		 -> main@cadena(25), 
  1084 ;;  fmt             2   58[BANK5 ] PTR const unsigned char 
  1085 ;;		 -> STR_1(21), 
  1086 ;; Auto vars:     Size  Location     Type
  1087 ;;  f              11   80[COMRAM] struct _IO_FILE
  1088 ;;  ap              2   78[COMRAM] PTR void [1]
  1089 ;;		 -> ?_sprintf(2), 
  1090 ;;  ret             2    0        int 
  1091 ;; Return value:  Size  Location     Type
  1092 ;;                  2   56[BANK5 ] int 
  1093 ;; Registers used:
  1094 ;;		wreg, fsr1l, fsr1h, fsr2l, fsr2h, status,2, status,0, tblptrl, tblptrh, tblptru, prodl, prodh, cstack
  1095 ;; Tracked objects:
  1096 ;;		On entry : 0/0
  1097 ;;		On exit  : 0/0
  1098 ;;		Unchanged: 0/0
  1099 ;; Data sizes:     COMRAM   BANK5   BANK6   BANK7   BANK8   BANK9  BANK10  BANK11  BANK12  BANK13  BANK14  BANK15  BANK1
      +6  BANK17  BANK18  BANK19  BANK20  BANK21  BANK22  BANK23  BANK24  BANK25  BANK26  BANK27  BANK28  BANK29  BANK30  BANK3
      +1  BANK32  BANK33  BANK34  BANK35  BANK36
  1100 ;;      Params:         0       8       0       0       0       0       0       0       0       0       0       0       
      +0       0       0       0       0       0       0       0       0       0       0       0       0       0       0       
      +0       0       0       0       0       0
  1101 ;;      Locals:        13       0       0       0       0       0       0       0       0       0       0       0       
      +0       0       0       0       0       0       0       0       0       0       0       0       0       0       0       
      +0       0       0       0       0       0
  1102 ;;      Temps:          0       0       0       0       0       0       0       0       0       0       0       0       
      +0       0       0       0       0       0       0       0       0       0       0       0       0       0       0       
      +0       0       0       0       0       0
  1103 ;;      Totals:        13       8       0       0       0       0       0       0       0       0       0       0       
      +0       0       0       0       0       0       0       0       0       0       0       0       0       0       0       
      +0       0       0       0       0       0
  1104 ;;Total ram usage:       21 bytes
  1105 ;; Hardware stack levels used: 1
  1106 ;; Hardware stack levels required when called: 8
  1107 ;; This function calls:
  1108 ;;		_vfprintf
  1109 ;; This function is called by:
  1110 ;;		_main
  1111 ;; This function uses a non-reentrant model
  1112 ;;
  1113                           
  1114                           	psect	text1
  1115   004EA8                     __ptext1:
  1116                           	callstack 0
  1117   004EA8                     _sprintf:
  1118                           	callstack 118
  1119   004EA8  0E9C               	movlw	low (?_sprintf+4)
  1120   004EAA  6E4F               	movwf	sprintf@ap^(0+1280),c
  1121   004EAC  0E05               	movlw	high (?_sprintf+4)
  1122   004EAE  6E50               	movwf	(sprintf@ap+1)^(0+1280),c
  1123   004EB0  C598  F551         	movff	sprintf@s,sprintf@f
  1124   004EB4  C599  F552         	movff	sprintf@s+1,sprintf@f+1
  1125   004EB8  0E00               	movlw	0
  1126   004EBA  6E55               	movwf	(sprintf@f+4)^(0+1280),c
  1127   004EBC  0E00               	movlw	0
  1128   004EBE  6E54               	movwf	(sprintf@f+3)^(0+1280),c
  1129   004EC0  0E00               	movlw	0
  1130   004EC2  6E5B               	movwf	(sprintf@f+10)^(0+1280),c
  1131   004EC4  0E00               	movlw	0
  1132   004EC6  6E5A               	movwf	(sprintf@f+9)^(0+1280),c
  1133   004EC8  0E51               	movlw	low sprintf@f
  1134   004ECA  0105               	movlb	5	; () banked
  1135   004ECC  6F92               	movwf	vfprintf@fp& (0+255),b
  1136   004ECE  0E05               	movlw	high sprintf@f
  1137   004ED0  6F93               	movwf	(vfprintf@fp+1)& (0+255),b
  1138   004ED2  C59A  F594         	movff	sprintf@fmt,vfprintf@fmt
  1139   004ED6  C59B  F595         	movff	sprintf@fmt+1,vfprintf@fmt+1
  1140   004EDA  0E4F               	movlw	low sprintf@ap
  1141   004EDC  6F96               	movwf	vfprintf@ap& (0+255),b
  1142   004EDE  0E05               	movlw	high sprintf@ap
  1143   004EE0  6F97               	movwf	(vfprintf@ap+1)& (0+255),b
  1144   004EE2  EC29  F027         	call	_vfprintf	;wreg free
  1145   004EE6  5054               	movf	(sprintf@f+3)^(0+1280),w,c
  1146   004EE8  0105               	movlb	5	; () banked
  1147   004EEA  2598               	addwf	sprintf@s& (0+255),w,b
  1148   004EEC  6ED9               	movwf	fsr2l,c
  1149   004EEE  5055               	movf	(sprintf@f+4)^(0+1280),w,c
  1150   004EF0  2199               	addwfc	(sprintf@s+1)& (0+255),w,b
  1151   004EF2  6EDA               	movwf	fsr2h,c
  1152   004EF4  0E00               	movlw	0
  1153   004EF6  6EDF               	movwf	indf2,c
  1154   004EF8                     
  1155                           ; BSR set to: 5
  1156   004EF8  0012               	return		;funcret
  1157   004EFA                     __end_of_sprintf:
  1158                           	callstack 0
  1159                           
  1160 ;; *************** function _vfprintf *****************
  1161 ;; Defined at:
  1162 ;;		line 1520 in file "C:\Program Files\Microchip\xc8\v2.40\pic\sources\c99\common\doprnt.c"
  1163 ;; Parameters:    Size  Location     Type
  1164 ;;  fp              2   50[BANK5 ] PTR struct _IO_FILE
  1165 ;;		 -> sprintf@f(11), 
  1166 ;;  fmt             2   52[BANK5 ] PTR const unsigned char 
  1167 ;;		 -> STR_1(21), 
  1168 ;;  ap              2   54[BANK5 ] PTR PTR void 
  1169 ;;		 -> sprintf@ap(2), 
  1170 ;; Auto vars:     Size  Location     Type
  1171 ;;  cfmt            2   76[COMRAM] PTR unsigned char 
  1172 ;;		 -> STR_1(21), 
  1173 ;; Return value:  Size  Location     Type
  1174 ;;                  2   50[BANK5 ] int 
  1175 ;; Registers used:
  1176 ;;		wreg, fsr1l, fsr1h, fsr2l, fsr2h, status,2, status,0, tblptrl, tblptrh, tblptru, prodl, prodh, cstack
  1177 ;; Tracked objects:
  1178 ;;		On entry : 0/0
  1179 ;;		On exit  : 0/0
  1180 ;;		Unchanged: 0/0
  1181 ;; Data sizes:     COMRAM   BANK5   BANK6   BANK7   BANK8   BANK9  BANK10  BANK11  BANK12  BANK13  BANK14  BANK15  BANK1
      +6  BANK17  BANK18  BANK19  BANK20  BANK21  BANK22  BANK23  BANK24  BANK25  BANK26  BANK27  BANK28  BANK29  BANK30  BANK3
      +1  BANK32  BANK33  BANK34  BANK35  BANK36
  1182 ;;      Params:         0       6       0       0       0       0       0       0       0       0       0       0       
      +0       0       0       0       0       0       0       0       0       0       0       0       0       0       0       
      +0       0       0       0       0       0
  1183 ;;      Locals:         2       0       0       0       0       0       0       0       0       0       0       0       
      +0       0       0       0       0       0       0       0       0       0       0       0       0       0       0       
      +0       0       0       0       0       0
  1184 ;;      Temps:          0       0       0       0       0       0       0       0       0       0       0       0       
      +0       0       0       0       0       0       0       0       0       0       0       0       0       0       0       
      +0       0       0       0       0       0
  1185 ;;      Totals:         2       6       0       0       0       0       0       0       0       0       0       0       
      +0       0       0       0       0       0       0       0       0       0       0       0       0       0       0       
      +0       0       0       0       0       0
  1186 ;;Total ram usage:        8 bytes
  1187 ;; Hardware stack levels used: 1
  1188 ;; Hardware stack levels required when called: 7
  1189 ;; This function calls:
  1190 ;;		_vfpfcnvrt
  1191 ;; This function is called by:
  1192 ;;		_sprintf
  1193 ;; This function uses a non-reentrant model
  1194 ;;
  1195                           
  1196                           	psect	text2
  1197   004E52                     __ptext2:
  1198                           	callstack 0
  1199   004E52                     _vfprintf:
  1200                           	callstack 118
  1201   004E52                     
  1202                           ;C:\Program Files\Microchip\xc8\v2.40\pic\sources\c99\common\doprnt.c: 1520: int vfprint
      +                          f(FILE *fp, const char *fmt, va_list ap);C:\Program Files\Microchip\xc8\v2.40\pic\source
      +                          s\c99\common\doprnt.c: 1521: {;C:\Program Files\Microchip\xc8\v2.40\pic\sources\c99\comm
      +                          on\doprnt.c: 1523:     char *cfmt;;C:\Program Files\Microchip\xc8\v2.40\pic\sources\c99\
      +                          common\doprnt.c: 1525:     cfmt = (char *)fmt;
  1203   004E52  C594  F54D         	movff	vfprintf@fmt,vfprintf@cfmt
  1204   004E56  C595  F54E         	movff	vfprintf@fmt+1,vfprintf@cfmt+1
  1205                           
  1206                           ;C:\Program Files\Microchip\xc8\v2.40\pic\sources\c99\common\doprnt.c: 1529:     while (
      +                          *cfmt) {
  1207   004E5A  EF3E  F027         	goto	l3966
  1208   004E5E                     l3964:
  1209                           
  1210                           ;C:\Program Files\Microchip\xc8\v2.40\pic\sources\c99\common\doprnt.c: 1533:    vfpfcnvr
      +                          t(fp, &cfmt, ap);
  1211   004E5E  C592  F58C         	movff	vfprintf@fp,vfpfcnvrt@fp
  1212   004E62  C593  F58D         	movff	vfprintf@fp+1,vfpfcnvrt@fp+1
  1213   004E66  0E4D               	movlw	low vfprintf@cfmt
  1214   004E68  0105               	movlb	5	; () banked
  1215   004E6A  6F8E               	movwf	vfpfcnvrt@fmt& (0+255),b
  1216   004E6C  0E05               	movlw	high vfprintf@cfmt
  1217   004E6E  6F8F               	movwf	(vfpfcnvrt@fmt+1)& (0+255),b
  1218   004E70  C596  F590         	movff	vfprintf@ap,vfpfcnvrt@ap
  1219   004E74  C597  F591         	movff	vfprintf@ap+1,vfpfcnvrt@ap+1
  1220   004E78  ECB9  F01C         	call	_vfpfcnvrt	;wreg free
  1221   004E7C                     l3966:
  1222                           
  1223                           ;C:\Program Files\Microchip\xc8\v2.40\pic\sources\c99\common\doprnt.c: 1529:     while (
      +                          *cfmt) {
  1224   004E7C  C54D  F4F6         	movff	vfprintf@cfmt,tblptrl
  1225   004E80  C54E  F4F7         	movff	vfprintf@cfmt+1,tblptrh
  1226   004E84                     	if	0	;tblptru may be non-zero
  1227   004E84                     	endif
  1228   004E84                     	if	1	;Program memory is > 0xFFFF, there are 3 active tblptr bytes
  1229   004E84  0E00               	movlw	low (__mediumconst shr (0+16))
  1230   004E86  6EF8               	movwf	tblptru,c
  1231   004E88                     	endif
  1232   004E88  0008               	tblrd		*
  1233   004E8A  50F5               	movf	tablat,w,c
  1234   004E8C  0900               	iorlw	0
  1235   004E8E  A4D8               	btfss	status,2,c
  1236   004E90  EF4C  F027         	goto	u3771
  1237   004E94  EF4E  F027         	goto	u3770
  1238   004E98                     u3771:
  1239   004E98  EF2F  F027         	goto	l3964
  1240   004E9C                     u3770:
  1241   004E9C                     
  1242                           ;C:\Program Files\Microchip\xc8\v2.40\pic\sources\c99\common\doprnt.c: 1538:  return 0;
  1243   004E9C  0E00               	movlw	0
  1244   004E9E  0105               	movlb	5	; () banked
  1245   004EA0  6F93               	movwf	(?_vfprintf+1)& (0+255),b
  1246   004EA2  0E00               	movlw	0
  1247   004EA4  6F92               	movwf	?_vfprintf& (0+255),b
  1248   004EA6                     
  1249                           ; BSR set to: 5
  1250   004EA6  0012               	return		;funcret
  1251   004EA8                     __end_of_vfprintf:
  1252                           	callstack 0
  1253                           
  1254 ;; *************** function _vfpfcnvrt *****************
  1255 ;; Defined at:
  1256 ;;		line 1007 in file "C:\Program Files\Microchip\xc8\v2.40\pic\sources\c99\common\doprnt.c"
  1257 ;; Parameters:    Size  Location     Type
  1258 ;;  fp              2   44[BANK5 ] PTR struct _IO_FILE
  1259 ;;		 -> sprintf@f(11), 
  1260 ;;  fmt             2   46[BANK5 ] PTR PTR unsigned char 
  1261 ;;		 -> vfprintf@cfmt(2), 
  1262 ;;  ap              2   48[BANK5 ] PTR PTR void 
  1263 ;;		 -> sprintf@ap(2), 
  1264 ;; Auto vars:     Size  Location     Type
  1265 ;;  convarg         8   63[COMRAM] struct .
  1266 ;;  cp              2   74[COMRAM] PTR unsigned char 
  1267 ;;		 -> STR_1(21), 
  1268 ;;  done            2   71[COMRAM] int 
  1269 ;;  i               2    0        int 
  1270 ;;  c               1   73[COMRAM] unsigned char 
  1271 ;; Return value:  Size  Location     Type
  1272 ;;                  1    wreg      void 
  1273 ;; Registers used:
  1274 ;;		wreg, fsr1l, fsr1h, fsr2l, fsr2h, status,2, status,0, tblptrl, tblptrh, tblptru, prodl, prodh, cstack
  1275 ;; Tracked objects:
  1276 ;;		On entry : 0/0
  1277 ;;		On exit  : 0/0
  1278 ;;		Unchanged: 0/0
  1279 ;; Data sizes:     COMRAM   BANK5   BANK6   BANK7   BANK8   BANK9  BANK10  BANK11  BANK12  BANK13  BANK14  BANK15  BANK1
      +6  BANK17  BANK18  BANK19  BANK20  BANK21  BANK22  BANK23  BANK24  BANK25  BANK26  BANK27  BANK28  BANK29  BANK30  BANK3
      +1  BANK32  BANK33  BANK34  BANK35  BANK36
  1280 ;;      Params:         0       6       0       0       0       0       0       0       0       0       0       0       
      +0       0       0       0       0       0       0       0       0       0       0       0       0       0       0       
      +0       0       0       0       0       0
  1281 ;;      Locals:        13       0       0       0       0       0       0       0       0       0       0       0       
      +0       0       0       0       0       0       0       0       0       0       0       0       0       0       0       
      +0       0       0       0       0       0
  1282 ;;      Temps:          3       0       0       0       0       0       0       0       0       0       0       0       
      +0       0       0       0       0       0       0       0       0       0       0       0       0       0       0       
      +0       0       0       0       0       0
  1283 ;;      Totals:        16       6       0       0       0       0       0       0       0       0       0       0       
      +0       0       0       0       0       0       0       0       0       0       0       0       0       0       0       
      +0       0       0       0       0       0
  1284 ;;Total ram usage:       22 bytes
  1285 ;; Hardware stack levels used: 1
  1286 ;; Hardware stack levels required when called: 6
  1287 ;; This function calls:
  1288 ;;		_atoi
  1289 ;;		_efgtoa
  1290 ;;		_fputc
  1291 ;;		_isdigit
  1292 ;; This function is called by:
  1293 ;;		_vfprintf
  1294 ;; This function uses a non-reentrant model
  1295 ;;
  1296                           
  1297                           	psect	text3
  1298   003972                     __ptext3:
  1299                           	callstack 0
  1300   003972                     _vfpfcnvrt:
  1301                           	callstack 118
  1302   003972                     
  1303                           ;C:\Program Files\Microchip\xc8\v2.40\pic\sources\c99\common\doprnt.c: 1007: vfpfcnvrt(F
      +                          ILE *fp, char *fmt[], va_list ap);C:\Program Files\Microchip\xc8\v2.40\pic\sources\c99\c
      +                          ommon\doprnt.c: 1008: {;C:\Program Files\Microchip\xc8\v2.40\pic\sources\c99\common\dopr
      +                          nt.c: 1009:     char c, *cp;;C:\Program Files\Microchip\xc8\v2.40\pic\sources\c99\common
      +                          \doprnt.c: 1010:     int done, i;;C:\Program Files\Microchip\xc8\v2.40\pic\sources\c99\c
      +                          ommon\doprnt.c: 1016:  } convarg;;C:\Program Files\Microchip\xc8\v2.40\pic\sources\c99\c
      +                          ommon\doprnt.c: 1019:     if ((*fmt)[0] == '%') {
  1304   003972  C58E  F4D9         	movff	vfpfcnvrt@fmt,fsr2l
  1305   003976  C58F  F4DA         	movff	vfpfcnvrt@fmt+1,fsr2h
  1306   00397A  C4DE F4F6          	movff	postinc2,tblptrl
  1307   00397E  C4DD F4F7          	movff	postdec2,tblptrh
  1308   003982                     	if	0	;tblptru may be non-zero
  1309   003982                     	endif
  1310   003982                     	if	1	;Program memory is > 0xFFFF, there are 3 active tblptr bytes
  1311   003982  0E00               	movlw	low (__mediumconst shr (0+16))
  1312   003984  6EF8               	movwf	tblptru,c
  1313   003986                     	endif
  1314   003986  0008               	tblrd		*
  1315   003988  50F5               	movf	tablat,w,c
  1316   00398A  0A25               	xorlw	37
  1317   00398C  A4D8               	btfss	status,2,c
  1318   00398E  EFCB  F01C         	goto	u3701
  1319   003992  EFCD  F01C         	goto	u3700
  1320   003996                     u3701:
  1321   003996  EF7B  F01E         	goto	l3864
  1322   00399A                     u3700:
  1323   00399A                     
  1324                           ;C:\Program Files\Microchip\xc8\v2.40\pic\sources\c99\common\doprnt.c: 1020:         ++*
      +                          fmt;
  1325   00399A  C58E  F4D9         	movff	vfpfcnvrt@fmt,fsr2l
  1326   00399E  C58F  F4DA         	movff	vfpfcnvrt@fmt+1,fsr2h
  1327   0039A2  2ADE               	incf	postinc2,f,c
  1328   0039A4  0E00               	movlw	0
  1329   0039A6  22DD               	addwfc	postdec2,f,c
  1330   0039A8                     
  1331                           ;C:\Program Files\Microchip\xc8\v2.40\pic\sources\c99\common\doprnt.c: 1022:         fla
      +                          gs = width = 0;
  1332   0039A8  0E00               	movlw	0
  1333   0039AA  0105               	movlb	5	; () banked
  1334   0039AC  6FD0               	movwf	(_width+1)& (0+255),b
  1335   0039AE  0E00               	movlw	0
  1336   0039B0  6FCF               	movwf	_width& (0+255),b
  1337   0039B2  C5CF  F55E         	movff	_width,_flags
  1338   0039B6                     
  1339                           ; BSR set to: 5
  1340                           ;C:\Program Files\Microchip\xc8\v2.40\pic\sources\c99\common\doprnt.c: 1023:         pre
      +                          c = -1;
  1341   0039B6  69D1               	setf	_prec& (0+255),b
  1342   0039B8  69D2               	setf	(_prec+1)& (0+255),b
  1343   0039BA                     
  1344                           ; BSR set to: 5
  1345                           ;C:\Program Files\Microchip\xc8\v2.40\pic\sources\c99\common\doprnt.c: 1027:         don
      +                          e = 0;
  1346   0039BA  0E00               	movlw	0
  1347   0039BC  6E49               	movwf	(vfpfcnvrt@done+1)^(0+1280),c
  1348   0039BE  0E00               	movlw	0
  1349   0039C0  6E48               	movwf	vfpfcnvrt@done^(0+1280),c
  1350                           
  1351                           ;C:\Program Files\Microchip\xc8\v2.40\pic\sources\c99\common\doprnt.c: 1028:         whi
      +                          le (!done) {
  1352   0039C2  EF0F  F01D         	goto	l3806
  1353   0039C6                     l3796:
  1354                           
  1355                           ;C:\Program Files\Microchip\xc8\v2.40\pic\sources\c99\common\doprnt.c: 1038:            
      +                                   flags |= (1 << 1);
  1356   0039C6  825E               	bsf	_flags^(0+1280),1,c
  1357   0039C8                     
  1358                           ;C:\Program Files\Microchip\xc8\v2.40\pic\sources\c99\common\doprnt.c: 1039:            
      +                                   ++*fmt;
  1359   0039C8  C58E  F4D9         	movff	vfpfcnvrt@fmt,fsr2l
  1360   0039CC  C58F  F4DA         	movff	vfpfcnvrt@fmt+1,fsr2h
  1361   0039D0  2ADE               	incf	postinc2,f,c
  1362   0039D2  0E00               	movlw	0
  1363   0039D4  22DD               	addwfc	postdec2,f,c
  1364                           
  1365                           ;C:\Program Files\Microchip\xc8\v2.40\pic\sources\c99\common\doprnt.c: 1040:            
      +                                   break;
  1366   0039D6  EF0F  F01D         	goto	l3806
  1367   0039DA                     l3800:
  1368                           
  1369                           ;C:\Program Files\Microchip\xc8\v2.40\pic\sources\c99\common\doprnt.c: 1061:            
      +                                   done = 1;
  1370   0039DA  0E00               	movlw	0
  1371   0039DC  6E49               	movwf	(vfpfcnvrt@done+1)^(0+1280),c
  1372   0039DE  0E01               	movlw	1
  1373   0039E0  6E48               	movwf	vfpfcnvrt@done^(0+1280),c
  1374                           
  1375                           ;C:\Program Files\Microchip\xc8\v2.40\pic\sources\c99\common\doprnt.c: 1062:            
      +                                   break;
  1376   0039E2  EF0F  F01D         	goto	l3806
  1377   0039E6                     l3804:
  1378   0039E6  C58E  F4D9         	movff	vfpfcnvrt@fmt,fsr2l
  1379   0039EA  C58F  F4DA         	movff	vfpfcnvrt@fmt+1,fsr2h
  1380   0039EE  C4DE F4F6          	movff	postinc2,tblptrl
  1381   0039F2  C4DD F4F7          	movff	postdec2,tblptrh
  1382   0039F6                     	if	0	;tblptru may be non-zero
  1383   0039F6                     	endif
  1384   0039F6                     	if	1	;Program memory is > 0xFFFF, there are 3 active tblptr bytes
  1385   0039F6  0E00               	movlw	low (__mediumconst shr (0+16))
  1386   0039F8  6EF8               	movwf	tblptru,c
  1387   0039FA                     	endif
  1388   0039FA  0008               	tblrd		*
  1389   0039FC  50F5               	movf	tablat,w,c
  1390   0039FE  6E3D               	movwf	??_vfpfcnvrt^(0+1280),c
  1391   003A00  6A3E               	clrf	(??_vfpfcnvrt+1)^(0+1280),c
  1392                           
  1393                           ; Switch on 2 bytes has been partitioned into a top level switch of size 1, and 1 sub-sw
      +                          itches
  1394                           ; Switch size 1, requested type "simple"
  1395                           ; Number of cases is 1, Range of values is 0 to 0
  1396                           ; switch strategies available:
  1397                           ; Name         Instructions Cycles
  1398                           ; simple_byte            4     3 (average)
  1399                           ;	Chosen strategy is simple_byte
  1400   003A02  503E               	movf	(??_vfpfcnvrt+1)^(0+1280),w,c
  1401   003A04  0A00               	xorlw	0	; case 0
  1402   003A06  B4D8               	btfsc	status,2,c
  1403   003A08  EF08  F01D         	goto	l4346
  1404   003A0C  EFED  F01C         	goto	l3800
  1405   003A10                     l4346:
  1406                           
  1407                           ; Switch size 1, requested type "simple"
  1408                           ; Number of cases is 1, Range of values is 48 to 48
  1409                           ; switch strategies available:
  1410                           ; Name         Instructions Cycles
  1411                           ; simple_byte            4     3 (average)
  1412                           ;	Chosen strategy is simple_byte
  1413   003A10  503D               	movf	??_vfpfcnvrt^(0+1280),w,c
  1414   003A12  0A30               	xorlw	48	; case 48
  1415   003A14  B4D8               	btfsc	status,2,c
  1416   003A16  EFE3  F01C         	goto	l3796
  1417   003A1A  EFED  F01C         	goto	l3800
  1418   003A1E                     l3806:
  1419                           
  1420                           ;C:\Program Files\Microchip\xc8\v2.40\pic\sources\c99\common\doprnt.c: 1028:         whi
      +                          le (!done) {
  1421   003A1E  5048               	movf	vfpfcnvrt@done^(0+1280),w,c
  1422   003A20  1049               	iorwf	(vfpfcnvrt@done+1)^(0+1280),w,c
  1423   003A22  B4D8               	btfsc	status,2,c
  1424   003A24  EF16  F01D         	goto	u3711
  1425   003A28  EF18  F01D         	goto	u3710
  1426   003A2C                     u3711:
  1427   003A2C  EFF3  F01C         	goto	l3804
  1428   003A30                     u3710:
  1429   003A30                     
  1430                           ;C:\Program Files\Microchip\xc8\v2.40\pic\sources\c99\common\doprnt.c: 1091:         if 
      +                          ((*fmt)[0] == '.') {
  1431   003A30  C58E  F4D9         	movff	vfpfcnvrt@fmt,fsr2l
  1432   003A34  C58F  F4DA         	movff	vfpfcnvrt@fmt+1,fsr2h
  1433   003A38  C4DE F4F6          	movff	postinc2,tblptrl
  1434   003A3C  C4DD F4F7          	movff	postdec2,tblptrh
  1435   003A40                     	if	0	;tblptru may be non-zero
  1436   003A40                     	endif
  1437   003A40                     	if	1	;Program memory is > 0xFFFF, there are 3 active tblptr bytes
  1438   003A40  0E00               	movlw	low (__mediumconst shr (0+16))
  1439   003A42  6EF8               	movwf	tblptru,c
  1440   003A44                     	endif
  1441   003A44  0008               	tblrd		*
  1442   003A46  50F5               	movf	tablat,w,c
  1443   003A48  0A2E               	xorlw	46
  1444   003A4A  A4D8               	btfss	status,2,c
  1445   003A4C  EF2A  F01D         	goto	u3721
  1446   003A50  EF2C  F01D         	goto	u3720
  1447   003A54                     u3721:
  1448   003A54  EF9E  F01D         	goto	l3826
  1449   003A58                     u3720:
  1450   003A58                     
  1451                           ;C:\Program Files\Microchip\xc8\v2.40\pic\sources\c99\common\doprnt.c: 1092:            
      +                           prec = 0;
  1452   003A58  0E00               	movlw	0
  1453   003A5A  0105               	movlb	5	; () banked
  1454   003A5C  6FD2               	movwf	(_prec+1)& (0+255),b
  1455   003A5E  0E00               	movlw	0
  1456   003A60  6FD1               	movwf	_prec& (0+255),b
  1457   003A62                     
  1458                           ; BSR set to: 5
  1459                           ;C:\Program Files\Microchip\xc8\v2.40\pic\sources\c99\common\doprnt.c: 1093:            
      +                           ++*fmt;
  1460   003A62  C58E  F4D9         	movff	vfpfcnvrt@fmt,fsr2l
  1461   003A66  C58F  F4DA         	movff	vfpfcnvrt@fmt+1,fsr2h
  1462   003A6A  2ADE               	incf	postinc2,f,c
  1463   003A6C  0E00               	movlw	0
  1464   003A6E  22DD               	addwfc	postdec2,f,c
  1465   003A70                     
  1466                           ; BSR set to: 5
  1467                           ;C:\Program Files\Microchip\xc8\v2.40\pic\sources\c99\common\doprnt.c: 1094:            
      +                           if ((*fmt)[0] == '*') {
  1468   003A70  C58E  F4D9         	movff	vfpfcnvrt@fmt,fsr2l
  1469   003A74  C58F  F4DA         	movff	vfpfcnvrt@fmt+1,fsr2h
  1470   003A78  C4DE F4F6          	movff	postinc2,tblptrl
  1471   003A7C  C4DD F4F7          	movff	postdec2,tblptrh
  1472   003A80                     	if	0	;tblptru may be non-zero
  1473   003A80                     	endif
  1474   003A80                     	if	1	;Program memory is > 0xFFFF, there are 3 active tblptr bytes
  1475   003A80  0E00               	movlw	low (__mediumconst shr (0+16))
  1476   003A82  6EF8               	movwf	tblptru,c
  1477   003A84                     	endif
  1478   003A84  0008               	tblrd		*
  1479   003A86  50F5               	movf	tablat,w,c
  1480   003A88  0A2A               	xorlw	42
  1481   003A8A  A4D8               	btfss	status,2,c
  1482   003A8C  EF4A  F01D         	goto	u3731
  1483   003A90  EF4C  F01D         	goto	u3730
  1484   003A94                     u3731:
  1485   003A94  EF69  F01D         	goto	l3818
  1486   003A98                     u3730:
  1487   003A98                     
  1488                           ; BSR set to: 5
  1489                           ;C:\Program Files\Microchip\xc8\v2.40\pic\sources\c99\common\doprnt.c: 1095:            
      +                               ++*fmt;
  1490   003A98  C58E  F4D9         	movff	vfpfcnvrt@fmt,fsr2l
  1491   003A9C  C58F  F4DA         	movff	vfpfcnvrt@fmt+1,fsr2h
  1492   003AA0  2ADE               	incf	postinc2,f,c
  1493   003AA2  0E00               	movlw	0
  1494   003AA4  22DD               	addwfc	postdec2,f,c
  1495                           
  1496                           ;C:\Program Files\Microchip\xc8\v2.40\pic\sources\c99\common\doprnt.c: 1096:            
      +                               prec = (*(int *)__va_arg(*(int **)ap, (int)0));
  1497   003AA6  C590  F4D9         	movff	vfpfcnvrt@ap,fsr2l
  1498   003AAA  C591  F4DA         	movff	vfpfcnvrt@ap+1,fsr2h
  1499   003AAE  C4DF F53D          	movff	indf2,??_vfpfcnvrt
  1500   003AB2  0E02               	movlw	2
  1501   003AB4  26DE               	addwf	postinc2,f,c
  1502   003AB6  C4DF F53E          	movff	indf2,??_vfpfcnvrt+1
  1503   003ABA  0E00               	movlw	0
  1504   003ABC  22DD               	addwfc	postdec2,f,c
  1505   003ABE  C53D  F4D9         	movff	??_vfpfcnvrt,fsr2l
  1506   003AC2  C53E  F4DA         	movff	??_vfpfcnvrt+1,fsr2h
  1507   003AC6  C4DE F5D1          	movff	postinc2,_prec
  1508   003ACA  C4DD F5D2          	movff	postdec2,_prec+1
  1509                           
  1510                           ;C:\Program Files\Microchip\xc8\v2.40\pic\sources\c99\common\doprnt.c: 1097:            
      +                           } else {
  1511   003ACE  EF9E  F01D         	goto	l3826
  1512   003AD2                     l3818:
  1513                           
  1514                           ; BSR set to: 5
  1515                           ;C:\Program Files\Microchip\xc8\v2.40\pic\sources\c99\common\doprnt.c: 1098:            
      +                               prec = atoi(*fmt);
  1516   003AD2  C58E  F4D9         	movff	vfpfcnvrt@fmt,fsr2l
  1517   003AD6  C58F  F4DA         	movff	vfpfcnvrt@fmt+1,fsr2h
  1518   003ADA  C4DE F507          	movff	postinc2,atoi@s
  1519   003ADE  C4DD F508          	movff	postdec2,atoi@s+1
  1520   003AE2  EC42  F022         	call	_atoi	;wreg free
  1521   003AE6  C507  F5D1         	movff	?_atoi,_prec
  1522   003AEA  C508  F5D2         	movff	?_atoi+1,_prec+1
  1523                           
  1524                           ;C:\Program Files\Microchip\xc8\v2.40\pic\sources\c99\common\doprnt.c: 1099:            
      +                               while ((0 && isdigit((*fmt)[0]), ((unsigned)((*fmt)[0])-'0') < 10)) {
  1525   003AEE  EF80  F01D         	goto	l3824
  1526   003AF2                     l3820:
  1527                           
  1528                           ;C:\Program Files\Microchip\xc8\v2.40\pic\sources\c99\common\doprnt.c: 1100:            
      +                                   ++*fmt;
  1529   003AF2  C58E  F4D9         	movff	vfpfcnvrt@fmt,fsr2l
  1530   003AF6  C58F  F4DA         	movff	vfpfcnvrt@fmt+1,fsr2h
  1531   003AFA  2ADE               	incf	postinc2,f,c
  1532   003AFC  0E00               	movlw	0
  1533   003AFE  22DD               	addwfc	postdec2,f,c
  1534   003B00                     l3824:
  1535   003B00  C58E  F4D9         	movff	vfpfcnvrt@fmt,fsr2l
  1536   003B04  C58F  F4DA         	movff	vfpfcnvrt@fmt+1,fsr2h
  1537   003B08  C4DE F4F6          	movff	postinc2,tblptrl
  1538   003B0C  C4DD F4F7          	movff	postdec2,tblptrh
  1539   003B10                     	if	0	;tblptru may be non-zero
  1540   003B10                     	endif
  1541   003B10                     	if	1	;Program memory is > 0xFFFF, there are 3 active tblptr bytes
  1542   003B10  0E00               	movlw	low (__mediumconst shr (0+16))
  1543   003B12  6EF8               	movwf	tblptru,c
  1544   003B14                     	endif
  1545   003B14  0008               	tblrd		*
  1546   003B16  C4F5 F53D          	movff	tablat,??_vfpfcnvrt
  1547   003B1A  0ED0               	movlw	208
  1548   003B1C  243D               	addwf	??_vfpfcnvrt^(0+1280),w,c
  1549   003B1E  6E3E               	movwf	(??_vfpfcnvrt+1)^(0+1280),c
  1550   003B20  6A3F               	clrf	(??_vfpfcnvrt+2)^(0+1280),c
  1551   003B22  0EFF               	movlw	255
  1552   003B24  223F               	addwfc	(??_vfpfcnvrt+2)^(0+1280),f,c
  1553   003B26  503F               	movf	(??_vfpfcnvrt+2)^(0+1280),w,c
  1554   003B28  E109               	bnz	u3740
  1555   003B2A  0E0A               	movlw	10
  1556   003B2C  5C3E               	subwf	(??_vfpfcnvrt+1)^(0+1280),w,c
  1557   003B2E  A0D8               	btfss	status,0,c
  1558   003B30  EF9C  F01D         	goto	u3741
  1559   003B34  EF9E  F01D         	goto	u3740
  1560   003B38                     u3741:
  1561   003B38  EF79  F01D         	goto	l3820
  1562   003B3C                     u3740:
  1563   003B3C                     l3826:
  1564                           
  1565                           ;C:\Program Files\Microchip\xc8\v2.40\pic\sources\c99\common\doprnt.c: 1392:   cp = *fmt
      +                          ;
  1566   003B3C  C58E  F4D9         	movff	vfpfcnvrt@fmt,fsr2l
  1567   003B40  C58F  F4DA         	movff	vfpfcnvrt@fmt+1,fsr2h
  1568   003B44  C4DE F54B          	movff	postinc2,vfpfcnvrt@cp
  1569   003B48  C4DD F54C          	movff	postdec2,vfpfcnvrt@cp+1
  1570   003B4C                     
  1571                           ;C:\Program Files\Microchip\xc8\v2.40\pic\sources\c99\common\doprnt.c: 1393:   c = *cp;
  1572   003B4C  C54B  F4F6         	movff	vfpfcnvrt@cp,tblptrl
  1573   003B50  C54C  F4F7         	movff	vfpfcnvrt@cp+1,tblptrh
  1574   003B54                     	if	0	;tblptru may be non-zero
  1575   003B54                     	endif
  1576   003B54                     	if	1	;Program memory is > 0xFFFF, there are 3 active tblptr bytes
  1577   003B54  0E00               	movlw	low (__mediumconst shr (0+16))
  1578   003B56  6EF8               	movwf	tblptru,c
  1579   003B58                     	endif
  1580   003B58  0008               	tblrd		*
  1581   003B5A  C4F5 F54A          	movff	tablat,vfpfcnvrt@c
  1582                           
  1583                           ;C:\Program Files\Microchip\xc8\v2.40\pic\sources\c99\common\doprnt.c: 1394:   switch(c)
      +                           {
  1584   003B5E  EFBD  F01D         	goto	l3838
  1585   003B62                     l3830:
  1586                           
  1587                           ;C:\Program Files\Microchip\xc8\v2.40\pic\sources\c99\common\doprnt.c: 1398:     cp++;
  1588   003B62  4A4B               	infsnz	vfpfcnvrt@cp^(0+1280),f,c
  1589   003B64  2A4C               	incf	(vfpfcnvrt@cp+1)^(0+1280),f,c
  1590                           
  1591                           ;C:\Program Files\Microchip\xc8\v2.40\pic\sources\c99\common\doprnt.c: 1399:     break;
  1592   003B66  EFD6  F01D         	goto	l3840
  1593   003B6A                     l3832:
  1594                           
  1595                           ;C:\Program Files\Microchip\xc8\v2.40\pic\sources\c99\common\doprnt.c: 1424:     c = 'l'
      +                          ;
  1596   003B6A  0E6C               	movlw	108
  1597   003B6C  6E4A               	movwf	vfpfcnvrt@c^(0+1280),c
  1598                           
  1599                           ;C:\Program Files\Microchip\xc8\v2.40\pic\sources\c99\common\doprnt.c: 1425:     break;
  1600   003B6E  EFD6  F01D         	goto	l3840
  1601   003B72                     l3834:
  1602                           
  1603                           ;C:\Program Files\Microchip\xc8\v2.40\pic\sources\c99\common\doprnt.c: 1427:     c = 0;
  1604   003B72  0E00               	movlw	0
  1605   003B74  6E4A               	movwf	vfpfcnvrt@c^(0+1280),c
  1606                           
  1607                           ;C:\Program Files\Microchip\xc8\v2.40\pic\sources\c99\common\doprnt.c: 1428:     break;
  1608   003B76  EFD6  F01D         	goto	l3840
  1609   003B7A                     l3838:
  1610   003B7A  504A               	movf	vfpfcnvrt@c^(0+1280),w,c
  1611   003B7C  6E3D               	movwf	??_vfpfcnvrt^(0+1280),c
  1612   003B7E  6A3E               	clrf	(??_vfpfcnvrt+1)^(0+1280),c
  1613                           
  1614                           ; Switch on 2 bytes has been partitioned into a top level switch of size 1, and 1 sub-sw
      +                          itches
  1615                           ; Switch size 1, requested type "simple"
  1616                           ; Number of cases is 1, Range of values is 0 to 0
  1617                           ; switch strategies available:
  1618                           ; Name         Instructions Cycles
  1619                           ; simple_byte            4     3 (average)
  1620                           ;	Chosen strategy is simple_byte
  1621   003B80  503E               	movf	(??_vfpfcnvrt+1)^(0+1280),w,c
  1622   003B82  0A00               	xorlw	0	; case 0
  1623   003B84  B4D8               	btfsc	status,2,c
  1624   003B86  EFC7  F01D         	goto	l4348
  1625   003B8A  EFB9  F01D         	goto	l3834
  1626   003B8E                     l4348:
  1627                           
  1628                           ; Switch size 1, requested type "simple"
  1629                           ; Number of cases is 3, Range of values is 76 to 108
  1630                           ; switch strategies available:
  1631                           ; Name         Instructions Cycles
  1632                           ; simple_byte           10     6 (average)
  1633                           ;	Chosen strategy is simple_byte
  1634   003B8E  503D               	movf	??_vfpfcnvrt^(0+1280),w,c
  1635   003B90  0A4C               	xorlw	76	; case 76
  1636   003B92  B4D8               	btfsc	status,2,c
  1637   003B94  EFB1  F01D         	goto	l3830
  1638   003B98  0A2A               	xorlw	42	; case 102
  1639   003B9A  B4D8               	btfsc	status,2,c
  1640   003B9C  EFB5  F01D         	goto	l3832
  1641   003BA0  0A0A               	xorlw	10	; case 108
  1642   003BA2  B4D8               	btfsc	status,2,c
  1643   003BA4  EFB1  F01D         	goto	l3830
  1644   003BA8  EFB9  F01D         	goto	l3834
  1645   003BAC                     l3840:
  1646   003BAC  C54B  F4F6         	movff	vfpfcnvrt@cp,tblptrl
  1647   003BB0  C54C  F4F7         	movff	vfpfcnvrt@cp+1,tblptrh
  1648   003BB4                     	if	0	;tblptru may be non-zero
  1649   003BB4                     	endif
  1650   003BB4                     	if	1	;Program memory is > 0xFFFF, there are 3 active tblptr bytes
  1651   003BB4  0E00               	movlw	low (__mediumconst shr (0+16))
  1652   003BB6  6EF8               	movwf	tblptru,c
  1653   003BB8                     	endif
  1654   003BB8  0008               	tblrd		*
  1655   003BBA  50F5               	movf	tablat,w,c
  1656   003BBC  0A66               	xorlw	102
  1657   003BBE  A4D8               	btfss	status,2,c
  1658   003BC0  EFE4  F01D         	goto	u3751
  1659   003BC4  EFE6  F01D         	goto	u3750
  1660   003BC8                     u3751:
  1661   003BC8  EF72  F01E         	goto	l3860
  1662   003BCC                     u3750:
  1663   003BCC  EF1C  F01E         	goto	l3848
  1664   003BD0                     l3842:
  1665                           
  1666                           ;C:\Program Files\Microchip\xc8\v2.40\pic\sources\c99\common\doprnt.c: 1459:      convar
      +                          g.f = (long double)(*(double *)__va_arg(*(double **)ap, (double)0));
  1667   003BD0  C590  F4D9         	movff	vfpfcnvrt@ap,fsr2l
  1668   003BD4  C591  F4DA         	movff	vfpfcnvrt@ap+1,fsr2h
  1669   003BD8  C4DF F53D          	movff	indf2,??_vfpfcnvrt
  1670   003BDC  0E04               	movlw	4
  1671   003BDE  26DE               	addwf	postinc2,f,c
  1672   003BE0  C4DF F53E          	movff	indf2,??_vfpfcnvrt+1
  1673   003BE4  0E00               	movlw	0
  1674   003BE6  22DD               	addwfc	postdec2,f,c
  1675   003BE8  C53D  F4D9         	movff	??_vfpfcnvrt,fsr2l
  1676   003BEC  C53E  F4DA         	movff	??_vfpfcnvrt+1,fsr2h
  1677   003BF0  C4DE F540          	movff	postinc2,vfpfcnvrt@convarg
  1678   003BF4  C4DE F541          	movff	postinc2,vfpfcnvrt@convarg+1
  1679   003BF8  C4DE F542          	movff	postinc2,vfpfcnvrt@convarg+2
  1680   003BFC  C4DE F543          	movff	postinc2,vfpfcnvrt@convarg+3
  1681                           
  1682                           ;C:\Program Files\Microchip\xc8\v2.40\pic\sources\c99\common\doprnt.c: 1460:      break;
  1683   003C00  EF31  F01E         	goto	l3850
  1684   003C04                     l3844:
  1685                           
  1686                           ;C:\Program Files\Microchip\xc8\v2.40\pic\sources\c99\common\doprnt.c: 1462:      convar
      +                          g.f = (long double)(*(long double *)__va_arg(*(long double **)ap, (long double)0));
  1687   003C04  C590  F4D9         	movff	vfpfcnvrt@ap,fsr2l
  1688   003C08  C591  F4DA         	movff	vfpfcnvrt@ap+1,fsr2h
  1689   003C0C  C4DF F53D          	movff	indf2,??_vfpfcnvrt
  1690   003C10  0E04               	movlw	4
  1691   003C12  26DE               	addwf	postinc2,f,c
  1692   003C14  C4DF F53E          	movff	indf2,??_vfpfcnvrt+1
  1693   003C18  0E00               	movlw	0
  1694   003C1A  22DD               	addwfc	postdec2,f,c
  1695   003C1C  C53D  F4D9         	movff	??_vfpfcnvrt,fsr2l
  1696   003C20  C53E  F4DA         	movff	??_vfpfcnvrt+1,fsr2h
  1697   003C24  C4DE F540          	movff	postinc2,vfpfcnvrt@convarg
  1698   003C28  C4DE F541          	movff	postinc2,vfpfcnvrt@convarg+1
  1699   003C2C  C4DE F542          	movff	postinc2,vfpfcnvrt@convarg+2
  1700   003C30  C4DE F543          	movff	postinc2,vfpfcnvrt@convarg+3
  1701                           
  1702                           ;C:\Program Files\Microchip\xc8\v2.40\pic\sources\c99\common\doprnt.c: 1463:      break;
  1703   003C34  EF31  F01E         	goto	l3850
  1704   003C38                     l3848:
  1705   003C38  504A               	movf	vfpfcnvrt@c^(0+1280),w,c
  1706   003C3A  6E3D               	movwf	??_vfpfcnvrt^(0+1280),c
  1707   003C3C  6A3E               	clrf	(??_vfpfcnvrt+1)^(0+1280),c
  1708                           
  1709                           ; Switch on 2 bytes has been partitioned into a top level switch of size 1, and 1 sub-sw
      +                          itches
  1710                           ; Switch size 1, requested type "simple"
  1711                           ; Number of cases is 1, Range of values is 0 to 0
  1712                           ; switch strategies available:
  1713                           ; Name         Instructions Cycles
  1714                           ; simple_byte            4     3 (average)
  1715                           ;	Chosen strategy is simple_byte
  1716   003C3E  503E               	movf	(??_vfpfcnvrt+1)^(0+1280),w,c
  1717   003C40  0A00               	xorlw	0	; case 0
  1718   003C42  B4D8               	btfsc	status,2,c
  1719   003C44  EF26  F01E         	goto	l4350
  1720   003C48  EF31  F01E         	goto	l3850
  1721   003C4C                     l4350:
  1722                           
  1723                           ; Switch size 1, requested type "simple"
  1724                           ; Number of cases is 2, Range of values is 76 to 108
  1725                           ; switch strategies available:
  1726                           ; Name         Instructions Cycles
  1727                           ; simple_byte            7     4 (average)
  1728                           ;	Chosen strategy is simple_byte
  1729   003C4C  503D               	movf	??_vfpfcnvrt^(0+1280),w,c
  1730   003C4E  0A4C               	xorlw	76	; case 76
  1731   003C50  B4D8               	btfsc	status,2,c
  1732   003C52  EF02  F01E         	goto	l3844
  1733   003C56  0A20               	xorlw	32	; case 108
  1734   003C58  B4D8               	btfsc	status,2,c
  1735   003C5A  EFE8  F01D         	goto	l3842
  1736   003C5E  EF31  F01E         	goto	l3850
  1737   003C62                     l3850:
  1738                           
  1739                           ;C:\Program Files\Microchip\xc8\v2.40\pic\sources\c99\common\doprnt.c: 1465:    *fmt = c
      +                          p+1;
  1740   003C62  0E01               	movlw	1
  1741   003C64  244B               	addwf	vfpfcnvrt@cp^(0+1280),w,c
  1742   003C66  6E3D               	movwf	??_vfpfcnvrt^(0+1280),c
  1743   003C68  0E00               	movlw	0
  1744   003C6A  204C               	addwfc	(vfpfcnvrt@cp+1)^(0+1280),w,c
  1745   003C6C  6E3E               	movwf	(??_vfpfcnvrt+1)^(0+1280),c
  1746   003C6E  C58E  F4D9         	movff	vfpfcnvrt@fmt,fsr2l
  1747   003C72  C58F  F4DA         	movff	vfpfcnvrt@fmt+1,fsr2h
  1748   003C76  C53D  F4DE         	movff	??_vfpfcnvrt,postinc2
  1749   003C7A  C53E  F4DD         	movff	??_vfpfcnvrt+1,postdec2
  1750                           
  1751                           ;C:\Program Files\Microchip\xc8\v2.40\pic\sources\c99\common\doprnt.c: 1466:    switch (
      +                          *cp) {
  1752   003C7E  EF5A  F01E         	goto	l3858
  1753   003C82                     l3852:
  1754                           
  1755                           ;C:\Program Files\Microchip\xc8\v2.40\pic\sources\c99\common\doprnt.c: 1493:      return
      +                           (void) efgtoa(fp, convarg.f, *cp);;	Return value of _vfpfcnvrt is never used
  1756   003C82  C58C  F534         	movff	vfpfcnvrt@fp,efgtoa@fp
  1757   003C86  C58D  F535         	movff	vfpfcnvrt@fp+1,efgtoa@fp+1
  1758   003C8A  C540  F536         	movff	vfpfcnvrt@convarg,efgtoa@f
  1759   003C8E  C541  F537         	movff	vfpfcnvrt@convarg+1,efgtoa@f+1
  1760   003C92  C542  F538         	movff	vfpfcnvrt@convarg+2,efgtoa@f+2
  1761   003C96  C543  F539         	movff	vfpfcnvrt@convarg+3,efgtoa@f+3
  1762   003C9A  C54B  F4F6         	movff	vfpfcnvrt@cp,tblptrl
  1763   003C9E  C54C  F4F7         	movff	vfpfcnvrt@cp+1,tblptrh
  1764   003CA2                     	if	0	;tblptru may be non-zero
  1765   003CA2                     	endif
  1766   003CA2                     	if	1	;Program memory is > 0xFFFF, there are 3 active tblptr bytes
  1767   003CA2  0E00               	movlw	low (__mediumconst shr (0+16))
  1768   003CA4  6EF8               	movwf	tblptru,c
  1769   003CA6                     	endif
  1770   003CA6  0008               	tblrd		*
  1771   003CA8  C4F5 F53A          	movff	tablat,efgtoa@c
  1772   003CAC  EC12  F013         	call	_efgtoa	;wreg free
  1773   003CB0  EF91  F01E         	goto	l1185
  1774   003CB4                     l3858:
  1775   003CB4  C54B  F4F6         	movff	vfpfcnvrt@cp,tblptrl
  1776   003CB8  C54C  F4F7         	movff	vfpfcnvrt@cp+1,tblptrh
  1777   003CBC                     	if	0	;tblptru may be non-zero
  1778   003CBC                     	endif
  1779   003CBC                     	if	1	;Program memory is > 0xFFFF, there are 3 active tblptr bytes
  1780   003CBC  0E00               	movlw	low (__mediumconst shr (0+16))
  1781   003CBE  6EF8               	movwf	tblptru,c
  1782   003CC0                     	endif
  1783   003CC0  0008               	tblrd		*
  1784   003CC2  50F5               	movf	tablat,w,c
  1785   003CC4  6E3D               	movwf	??_vfpfcnvrt^(0+1280),c
  1786   003CC6  6A3E               	clrf	(??_vfpfcnvrt+1)^(0+1280),c
  1787                           
  1788                           ; Switch on 2 bytes has been partitioned into a top level switch of size 1, and 1 sub-sw
      +                          itches
  1789                           ; Switch size 1, requested type "simple"
  1790                           ; Number of cases is 1, Range of values is 0 to 0
  1791                           ; switch strategies available:
  1792                           ; Name         Instructions Cycles
  1793                           ; simple_byte            4     3 (average)
  1794                           ;	Chosen strategy is simple_byte
  1795   003CC8  503E               	movf	(??_vfpfcnvrt+1)^(0+1280),w,c
  1796   003CCA  0A00               	xorlw	0	; case 0
  1797   003CCC  B4D8               	btfsc	status,2,c
  1798   003CCE  EF6B  F01E         	goto	l4352
  1799   003CD2  EF72  F01E         	goto	l3860
  1800   003CD6                     l4352:
  1801                           
  1802                           ; Switch size 1, requested type "simple"
  1803                           ; Number of cases is 1, Range of values is 102 to 102
  1804                           ; switch strategies available:
  1805                           ; Name         Instructions Cycles
  1806                           ; simple_byte            4     3 (average)
  1807                           ;	Chosen strategy is simple_byte
  1808   003CD6  503D               	movf	??_vfpfcnvrt^(0+1280),w,c
  1809   003CD8  0A66               	xorlw	102	; case 102
  1810   003CDA  B4D8               	btfsc	status,2,c
  1811   003CDC  EF41  F01E         	goto	l3852
  1812   003CE0  EF72  F01E         	goto	l3860
  1813   003CE4                     l3860:
  1814                           
  1815                           ;C:\Program Files\Microchip\xc8\v2.40\pic\sources\c99\common\doprnt.c: 1509:         ++*
      +                          fmt;
  1816   003CE4  C58E  F4D9         	movff	vfpfcnvrt@fmt,fsr2l
  1817   003CE8  C58F  F4DA         	movff	vfpfcnvrt@fmt+1,fsr2h
  1818   003CEC  2ADE               	incf	postinc2,f,c
  1819   003CEE  0E00               	movlw	0
  1820   003CF0  22DD               	addwfc	postdec2,f,c
  1821   003CF2  EF91  F01E         	goto	l1185
  1822   003CF6                     l3864:
  1823                           
  1824                           ;C:\Program Files\Microchip\xc8\v2.40\pic\sources\c99\common\doprnt.c: 1514:     fputc((
      +                          int)(*fmt)[0], fp);
  1825   003CF6  C58E  F4D9         	movff	vfpfcnvrt@fmt,fsr2l
  1826   003CFA  C58F  F4DA         	movff	vfpfcnvrt@fmt+1,fsr2h
  1827   003CFE  C4DE F4F6          	movff	postinc2,tblptrl
  1828   003D02  C4DD F4F7          	movff	postdec2,tblptrh
  1829   003D06                     	if	0	;tblptru may be non-zero
  1830   003D06                     	endif
  1831   003D06                     	if	1	;Program memory is > 0xFFFF, there are 3 active tblptr bytes
  1832   003D06  0E00               	movlw	low (__mediumconst shr (0+16))
  1833   003D08  6EF8               	movwf	tblptru,c
  1834   003D0A                     	endif
  1835   003D0A  0008               	tblrd		*
  1836   003D0C  50F5               	movf	tablat,w,c
  1837   003D0E  6E03               	movwf	fputc@c^(0+1280),c
  1838   003D10  6A04               	clrf	(fputc@c+1)^(0+1280),c
  1839   003D12  C58C  F505         	movff	vfpfcnvrt@fp,fputc@fp
  1840   003D16  C58D  F506         	movff	vfpfcnvrt@fp+1,fputc@fp+1
  1841   003D1A  EC66  F025         	call	_fputc	;wreg free
  1842   003D1E  EF72  F01E         	goto	l3860
  1843   003D22                     l1185:
  1844   003D22  0012               	return		;funcret
  1845   003D24                     __end_of_vfpfcnvrt:
  1846                           	callstack 0
  1847                           
  1848 ;; *************** function _efgtoa *****************
  1849 ;; Defined at:
  1850 ;;		line 506 in file "C:\Program Files\Microchip\xc8\v2.40\pic\sources\c99\common\doprnt.c"
  1851 ;; Parameters:    Size  Location     Type
  1852 ;;  fp              2   51[COMRAM] PTR struct _IO_FILE
  1853 ;;		 -> sprintf@f(11), 
  1854 ;;  f               4   53[COMRAM] PTR struct _IO_FILE
  1855 ;;  c               1   57[COMRAM] unsigned char 
  1856 ;; Auto vars:     Size  Location     Type
  1857 ;;  u               4   40[BANK5 ] struct flui
  1858 ;;  g               4   34[BANK5 ] struct flui
  1859 ;;  l               4   27[BANK5 ] struct flui
  1860 ;;  h               4   23[BANK5 ] struct flui
  1861 ;;  ou              4   19[BANK5 ] struct flui
  1862 ;;  n               2   38[BANK5 ] int 
  1863 ;;  i               2   31[BANK5 ] int 
  1864 ;;  w               2   17[BANK5 ] int 
  1865 ;;  e               2   15[BANK5 ] int 
  1866 ;;  m               2   13[BANK5 ] int 
  1867 ;;  d               2   11[BANK5 ] int 
  1868 ;;  t               2    4[BANK5 ] int 
  1869 ;;  p               2    2[BANK5 ] int 
  1870 ;;  ne              2    0[BANK5 ] int 
  1871 ;;  sign            1   33[BANK5 ] unsigned char 
  1872 ;;  nmode           1   10[BANK5 ] unsigned char 
  1873 ;;  mode            1    9[BANK5 ] unsigned char 
  1874 ;;  pp              1    8[BANK5 ] unsigned char 
  1875 ;;  esign           1    0        unsigned char 
  1876 ;; Return value:  Size  Location     Type
  1877 ;;                  1    wreg      void 
  1878 ;; Registers used:
  1879 ;;		wreg, fsr1l, fsr1h, fsr2l, fsr2h, status,2, status,0, tblptrl, tblptrh, tblptru, prodl, prodh, cstack
  1880 ;; Tracked objects:
  1881 ;;		On entry : 0/0
  1882 ;;		On exit  : 0/0
  1883 ;;		Unchanged: 0/0
  1884 ;; Data sizes:     COMRAM   BANK5   BANK6   BANK7   BANK8   BANK9  BANK10  BANK11  BANK12  BANK13  BANK14  BANK15  BANK1
      +6  BANK17  BANK18  BANK19  BANK20  BANK21  BANK22  BANK23  BANK24  BANK25  BANK26  BANK27  BANK28  BANK29  BANK30  BANK3
      +1  BANK32  BANK33  BANK34  BANK35  BANK36
  1885 ;;      Params:         7       0       0       0       0       0       0       0       0       0       0       0       
      +0       0       0       0       0       0       0       0       0       0       0       0       0       0       0       
      +0       0       0       0       0       0
  1886 ;;      Locals:         0      44       0       0       0       0       0       0       0       0       0       0       
      +0       0       0       0       0       0       0       0       0       0       0       0       0       0       0       
      +0       0       0       0       0       0
  1887 ;;      Temps:          2       0       0       0       0       0       0       0       0       0       0       0       
      +0       0       0       0       0       0       0       0       0       0       0       0       0       0       0       
      +0       0       0       0       0       0
  1888 ;;      Totals:         9      44       0       0       0       0       0       0       0       0       0       0       
      +0       0       0       0       0       0       0       0       0       0       0       0       0       0       0       
      +0       0       0       0       0       0
  1889 ;;Total ram usage:       53 bytes
  1890 ;; Hardware stack levels used: 1
  1891 ;; Hardware stack levels required when called: 5
  1892 ;; This function calls:
  1893 ;;		___fladd
  1894 ;;		___fldiv
  1895 ;;		___fleq
  1896 ;;		___flge
  1897 ;;		___flmul
  1898 ;;		___flneg
  1899 ;;		___flsub
  1900 ;;		___fltol
  1901 ;;		___fpclassifyf
  1902 ;;		_floorf
  1903 ;;		_labs
  1904 ;;		_memcpy
  1905 ;;		_pad
  1906 ;;		_strcpy
  1907 ;; This function is called by:
  1908 ;;		_vfpfcnvrt
  1909 ;; This function uses a non-reentrant model
  1910 ;;
  1911                           
  1912                           	psect	text4
  1913   002624                     __ptext4:
  1914                           	callstack 0
  1915   002624                     _efgtoa:
  1916                           	callstack 118
  1917   002624                     
  1918                           ;C:\Program Files\Microchip\xc8\v2.40\pic\sources\c99\common\doprnt.c: 506: static void 
      +                          efgtoa(FILE *fp, long double f, char c);C:\Program Files\Microchip\xc8\v2.40\pic\sources
      +                          \c99\common\doprnt.c: 507: {;C:\Program Files\Microchip\xc8\v2.40\pic\sources\c99\common
      +                          \doprnt.c: 508:     char mode, nmode, pp, sign, esign;;C:\Program Files\Microchip\xc8\v2
      +                          .40\pic\sources\c99\common\doprnt.c: 509:     int d, e, i, m, n, ne, p, t, w;;C:\Program
      +                           Files\Microchip\xc8\v2.40\pic\sources\c99\common\doprnt.c: 510:     long double h, l;
  1919   002624  0E00               	movlw	0
  1920   002626  0105               	movlb	5	; () banked
  1921   002628  6F81               	movwf	efgtoa@sign& (0+255),b
  1922   00262A                     
  1923                           ; BSR set to: 5
  1924                           ;C:\Program Files\Microchip\xc8\v2.40\pic\sources\c99\common\doprnt.c: 515:     g.f = f;
  1925   00262A  C536  F582         	movff	efgtoa@f,efgtoa@g
  1926   00262E  C537  F583         	movff	efgtoa@f+1,efgtoa@g+1
  1927   002632  C538  F584         	movff	efgtoa@f+2,efgtoa@g+2
  1928   002636  C539  F585         	movff	efgtoa@f+3,efgtoa@g+3
  1929   00263A                     
  1930                           ; BSR set to: 5
  1931                           ;C:\Program Files\Microchip\xc8\v2.40\pic\sources\c99\common\doprnt.c: 516:     if (g.f 
      +                          < 0.0) {
  1932   00263A  BF85               	btfsc	(efgtoa@g+3)& (0+255),7,b
  1933   00263C  EF24  F013         	goto	u3310
  1934   002640  EF22  F013         	goto	u3311
  1935   002644                     u3311:
  1936   002644  EF38  F013         	goto	l3524
  1937   002648                     u3310:
  1938   002648                     
  1939                           ; BSR set to: 5
  1940                           ;C:\Program Files\Microchip\xc8\v2.40\pic\sources\c99\common\doprnt.c: 517:         sign
      +                           = 1;
  1941   002648  0E01               	movlw	1
  1942   00264A  6F81               	movwf	efgtoa@sign& (0+255),b
  1943   00264C                     
  1944                           ; BSR set to: 5
  1945                           ;C:\Program Files\Microchip\xc8\v2.40\pic\sources\c99\common\doprnt.c: 518:         g.f 
      +                          = -g.f;
  1946   00264C  C582  F501         	movff	efgtoa@g,___flneg@f1
  1947   002650  C583  F502         	movff	efgtoa@g+1,___flneg@f1+1
  1948   002654  C584  F503         	movff	efgtoa@g+2,___flneg@f1+2
  1949   002658  C585  F504         	movff	efgtoa@g+3,___flneg@f1+3
  1950   00265C  EC4D  F028         	call	___flneg	;wreg free
  1951   002660  C501  F582         	movff	?___flneg,efgtoa@g
  1952   002664  C502  F583         	movff	?___flneg+1,efgtoa@g+1
  1953   002668  C503  F584         	movff	?___flneg+2,efgtoa@g+2
  1954   00266C  C504  F585         	movff	?___flneg+3,efgtoa@g+3
  1955   002670                     l3524:
  1956                           
  1957                           ;C:\Program Files\Microchip\xc8\v2.40\pic\sources\c99\common\doprnt.c: 522:     n = 0;
  1958   002670  0E00               	movlw	0
  1959   002672  0105               	movlb	5	; () banked
  1960   002674  6F87               	movwf	(efgtoa@n+1)& (0+255),b
  1961   002676  0E00               	movlw	0
  1962   002678  6F86               	movwf	efgtoa@n& (0+255),b
  1963   00267A                     
  1964                           ; BSR set to: 5
  1965                           ;C:\Program Files\Microchip\xc8\v2.40\pic\sources\c99\common\doprnt.c: 523:     w = widt
      +                          h;
  1966   00267A  C5CF  F571         	movff	_width,efgtoa@w
  1967   00267E  C5D0  F572         	movff	_width+1,efgtoa@w+1
  1968   002682                     
  1969                           ; BSR set to: 5
  1970                           ;C:\Program Files\Microchip\xc8\v2.40\pic\sources\c99\common\doprnt.c: 524:     if (sign
  1971   002682  5181               	movf	efgtoa@sign& (0+255),w,b
  1972   002684  B4D8               	btfsc	status,2,c
  1973   002686  EF47  F013         	goto	u3321
  1974   00268A  EF49  F013         	goto	u3320
  1975   00268E                     u3321:
  1976   00268E  EF5D  F013         	goto	l3538
  1977   002692                     u3320:
  1978   002692                     
  1979                           ; BSR set to: 5
  1980                           ;C:\Program Files\Microchip\xc8\v2.40\pic\sources\c99\common\doprnt.c: 528:    ) {;C:\Pr
      +                          ogram Files\Microchip\xc8\v2.40\pic\sources\c99\common\doprnt.c: 529:   sign = sign ? '-
      +                          ' : '+';
  1981   002692  5181               	movf	efgtoa@sign& (0+255),w,b
  1982   002694  A4D8               	btfss	status,2,c
  1983   002696  EF4F  F013         	goto	u3331
  1984   00269A  EF51  F013         	goto	u3330
  1985   00269E                     u3331:
  1986   00269E  EF57  F013         	goto	l3534
  1987   0026A2                     u3330:
  1988   0026A2                     
  1989                           ; BSR set to: 5
  1990   0026A2  0E00               	movlw	0
  1991   0026A4  6F67               	movwf	(_efgtoa$1135+1)& (0+255),b
  1992   0026A6  0E2B               	movlw	43
  1993   0026A8  6F66               	movwf	_efgtoa$1135& (0+255),b
  1994   0026AA  EF5B  F013         	goto	l3536
  1995   0026AE                     l3534:
  1996                           
  1997                           ; BSR set to: 5
  1998   0026AE  0E00               	movlw	0
  1999   0026B0  6F67               	movwf	(_efgtoa$1135+1)& (0+255),b
  2000   0026B2  0E2D               	movlw	45
  2001   0026B4  6F66               	movwf	_efgtoa$1135& (0+255),b
  2002   0026B6                     l3536:
  2003                           
  2004                           ; BSR set to: 5
  2005   0026B6  C566  F581         	movff	_efgtoa$1135,efgtoa@sign
  2006   0026BA                     l3538:
  2007                           
  2008                           ; BSR set to: 5
  2009                           ;C:\Program Files\Microchip\xc8\v2.40\pic\sources\c99\common\doprnt.c: 538:     if (( __
      +                          fpclassifyf(g.f) == 1 )) {
  2010   0026BA  C582  F501         	movff	efgtoa@g,___fpclassifyf@x
  2011   0026BE  C583  F502         	movff	efgtoa@g+1,___fpclassifyf@x+1
  2012   0026C2  C584  F503         	movff	efgtoa@g+2,___fpclassifyf@x+2
  2013   0026C6  C585  F504         	movff	efgtoa@g+3,___fpclassifyf@x+3
  2014   0026CA  EC7D  F024         	call	___fpclassifyf	;wreg free
  2015   0026CE  0401               	decf	?___fpclassifyf^(0+1280),w,c
  2016   0026D0  1002               	iorwf	(?___fpclassifyf+1)^(0+1280),w,c
  2017   0026D2  A4D8               	btfss	status,2,c
  2018   0026D4  EF6E  F013         	goto	u3341
  2019   0026D8  EF70  F013         	goto	u3340
  2020   0026DC                     u3341:
  2021   0026DC  EFA3  F013         	goto	l3556
  2022   0026E0                     u3340:
  2023   0026E0                     
  2024                           ;C:\Program Files\Microchip\xc8\v2.40\pic\sources\c99\common\doprnt.c: 539:   if (sign) 
      +                          {
  2025   0026E0  0105               	movlb	5	; () banked
  2026   0026E2  5181               	movf	efgtoa@sign& (0+255),w,b
  2027   0026E4  B4D8               	btfsc	status,2,c
  2028   0026E6  EF77  F013         	goto	u3351
  2029   0026EA  EF79  F013         	goto	u3350
  2030   0026EE                     u3351:
  2031   0026EE  EF82  F013         	goto	l3548
  2032   0026F2                     u3350:
  2033   0026F2                     
  2034                           ; BSR set to: 5
  2035                           ;C:\Program Files\Microchip\xc8\v2.40\pic\sources\c99\common\doprnt.c: 540:    dbuf[0] =
      +                           sign;
  2036   0026F2  C581  F600         	movff	efgtoa@sign,_dbuf
  2037   0026F6                     
  2038                           ; BSR set to: 5
  2039                           ;C:\Program Files\Microchip\xc8\v2.40\pic\sources\c99\common\doprnt.c: 541:    w--;
  2040   0026F6  0771               	decf	efgtoa@w& (0+255),f,b
  2041   0026F8  A0D8               	btfss	status,0,c
  2042   0026FA  0772               	decf	(efgtoa@w+1)& (0+255),f,b
  2043   0026FC                     
  2044                           ; BSR set to: 5
  2045                           ;C:\Program Files\Microchip\xc8\v2.40\pic\sources\c99\common\doprnt.c: 542:    n = 1;
  2046   0026FC  0E00               	movlw	0
  2047   0026FE  6F87               	movwf	(efgtoa@n+1)& (0+255),b
  2048   002700  0E01               	movlw	1
  2049   002702  6F86               	movwf	efgtoa@n& (0+255),b
  2050   002704                     l3548:
  2051                           
  2052                           ; BSR set to: 5
  2053                           ;C:\Program Files\Microchip\xc8\v2.40\pic\sources\c99\common\doprnt.c: 550:   {;C:\Progr
      +                          am Files\Microchip\xc8\v2.40\pic\sources\c99\common\doprnt.c: 551:             strcpy(&d
      +                          buf[n], "inf");
  2054   002704  0E00               	movlw	low _dbuf
  2055   002706  2586               	addwf	efgtoa@n& (0+255),w,b
  2056   002708  6E01               	movwf	strcpy@dest^(0+1280),c
  2057   00270A  0E06               	movlw	high _dbuf
  2058   00270C  2187               	addwfc	(efgtoa@n+1)& (0+255),w,b
  2059   00270E  6E02               	movwf	(strcpy@dest+1)^(0+1280),c
  2060   002710  0E1B               	movlw	low STR_2
  2061   002712  6E03               	movwf	strcpy@src^(0+1280),c
  2062   002714  0E26               	movlw	high STR_2
  2063   002716  6E04               	movwf	(strcpy@src+1)^(0+1280),c
  2064   002718  ECEB  F027         	call	_strcpy	;wreg free
  2065   00271C                     l3550:
  2066                           
  2067                           ;C:\Program Files\Microchip\xc8\v2.40\pic\sources\c99\common\doprnt.c: 552:         };C:
      +                          \Program Files\Microchip\xc8\v2.40\pic\sources\c99\common\doprnt.c: 553:         w -= ((
      +                          sizeof("inf")/sizeof("inf"[0]))-1);
  2068   00271C  0105               	movlb	5	; () banked
  2069   00271E  0EFD               	movlw	253
  2070   002720  2771               	addwf	efgtoa@w& (0+255),f,b
  2071   002722  0EFF               	movlw	255
  2072   002724  2372               	addwfc	(efgtoa@w+1)& (0+255),f,b
  2073   002726                     
  2074                           ; BSR set to: 5
  2075                           ;C:\Program Files\Microchip\xc8\v2.40\pic\sources\c99\common\doprnt.c: 554:         retu
      +                          rn (void) pad(fp, &dbuf[0], w);
  2076   002726  C534  F513         	movff	efgtoa@fp,pad@fp
  2077   00272A  C535  F514         	movff	efgtoa@fp+1,pad@fp+1
  2078   00272E  0E00               	movlw	low _dbuf
  2079   002730  6E15               	movwf	pad@buf^(0+1280),c
  2080   002732  0E06               	movlw	high _dbuf
  2081   002734  6E16               	movwf	(pad@buf+1)^(0+1280),c
  2082   002736  C571  F517         	movff	efgtoa@w,pad@p
  2083   00273A  C572  F518         	movff	efgtoa@w+1,pad@p+1
  2084   00273E  EC7F  F026         	call	_pad	;wreg free
  2085   002742  EF43  F018         	goto	l1104
  2086   002746                     l3556:
  2087                           
  2088                           ;C:\Program Files\Microchip\xc8\v2.40\pic\sources\c99\common\doprnt.c: 556:     if (( __
      +                          fpclassifyf(g.f) == 0 )) {
  2089   002746  C582  F501         	movff	efgtoa@g,___fpclassifyf@x
  2090   00274A  C583  F502         	movff	efgtoa@g+1,___fpclassifyf@x+1
  2091   00274E  C584  F503         	movff	efgtoa@g+2,___fpclassifyf@x+2
  2092   002752  C585  F504         	movff	efgtoa@g+3,___fpclassifyf@x+3
  2093   002756  EC7D  F024         	call	___fpclassifyf	;wreg free
  2094   00275A  5001               	movf	?___fpclassifyf^(0+1280),w,c
  2095   00275C  1002               	iorwf	(?___fpclassifyf+1)^(0+1280),w,c
  2096   00275E  A4D8               	btfss	status,2,c
  2097   002760  EFB4  F013         	goto	u3361
  2098   002764  EFB6  F013         	goto	u3360
  2099   002768                     u3361:
  2100   002768  EFD6  F013         	goto	l3574
  2101   00276C                     u3360:
  2102   00276C                     
  2103                           ;C:\Program Files\Microchip\xc8\v2.40\pic\sources\c99\common\doprnt.c: 557:   if (sign) 
      +                          {
  2104   00276C  0105               	movlb	5	; () banked
  2105   00276E  5181               	movf	efgtoa@sign& (0+255),w,b
  2106   002770  B4D8               	btfsc	status,2,c
  2107   002772  EFBD  F013         	goto	u3371
  2108   002776  EFBF  F013         	goto	u3370
  2109   00277A                     u3371:
  2110   00277A  EFC8  F013         	goto	l3566
  2111   00277E                     u3370:
  2112   00277E                     
  2113                           ; BSR set to: 5
  2114                           ;C:\Program Files\Microchip\xc8\v2.40\pic\sources\c99\common\doprnt.c: 558:    dbuf[0] =
      +                           sign;
  2115   00277E  C581  F600         	movff	efgtoa@sign,_dbuf
  2116   002782                     
  2117                           ; BSR set to: 5
  2118                           ;C:\Program Files\Microchip\xc8\v2.40\pic\sources\c99\common\doprnt.c: 559:    w--;
  2119   002782  0771               	decf	efgtoa@w& (0+255),f,b
  2120   002784  A0D8               	btfss	status,0,c
  2121   002786  0772               	decf	(efgtoa@w+1)& (0+255),f,b
  2122   002788                     
  2123                           ; BSR set to: 5
  2124                           ;C:\Program Files\Microchip\xc8\v2.40\pic\sources\c99\common\doprnt.c: 560:    n = 1;
  2125   002788  0E00               	movlw	0
  2126   00278A  6F87               	movwf	(efgtoa@n+1)& (0+255),b
  2127   00278C  0E01               	movlw	1
  2128   00278E  6F86               	movwf	efgtoa@n& (0+255),b
  2129   002790                     l3566:
  2130                           
  2131                           ; BSR set to: 5
  2132                           ;C:\Program Files\Microchip\xc8\v2.40\pic\sources\c99\common\doprnt.c: 568:   {;C:\Progr
      +                          am Files\Microchip\xc8\v2.40\pic\sources\c99\common\doprnt.c: 569:             strcpy(&d
      +                          buf[n], "nan");
  2133   002790  0E00               	movlw	low _dbuf
  2134   002792  2586               	addwf	efgtoa@n& (0+255),w,b
  2135   002794  6E01               	movwf	strcpy@dest^(0+1280),c
  2136   002796  0E06               	movlw	high _dbuf
  2137   002798  2187               	addwfc	(efgtoa@n+1)& (0+255),w,b
  2138   00279A  6E02               	movwf	(strcpy@dest+1)^(0+1280),c
  2139   00279C  0E1F               	movlw	low STR_5
  2140   00279E  6E03               	movwf	strcpy@src^(0+1280),c
  2141   0027A0  0E26               	movlw	high STR_5
  2142   0027A2  6E04               	movwf	(strcpy@src+1)^(0+1280),c
  2143   0027A4  ECEB  F027         	call	_strcpy	;wreg free
  2144   0027A8  EF8E  F013         	goto	l3550
  2145   0027AC                     l3574:
  2146                           
  2147                           ;C:\Program Files\Microchip\xc8\v2.40\pic\sources\c99\common\doprnt.c: 576:     u.f = 1.
      +                          0;
  2148   0027AC  0E00               	movlw	0
  2149   0027AE  0105               	movlb	5	; () banked
  2150   0027B0  6F88               	movwf	efgtoa@u& (0+255),b
  2151   0027B2  0E00               	movlw	0
  2152   0027B4  6F89               	movwf	(efgtoa@u+1)& (0+255),b
  2153   0027B6  0E80               	movlw	128
  2154   0027B8  6F8A               	movwf	(efgtoa@u+2)& (0+255),b
  2155   0027BA  0E3F               	movlw	63
  2156   0027BC  6F8B               	movwf	(efgtoa@u+3)& (0+255),b
  2157                           
  2158                           ;C:\Program Files\Microchip\xc8\v2.40\pic\sources\c99\common\doprnt.c: 577:     e = 0;
  2159   0027BE  0E00               	movlw	0
  2160   0027C0  6F70               	movwf	(efgtoa@e+1)& (0+255),b
  2161   0027C2  0E00               	movlw	0
  2162   0027C4  6F6F               	movwf	efgtoa@e& (0+255),b
  2163   0027C6                     
  2164                           ; BSR set to: 5
  2165                           ;C:\Program Files\Microchip\xc8\v2.40\pic\sources\c99\common\doprnt.c: 578:  if (!(g.f =
      +                          = 0.0)) {
  2166   0027C6  C582  F501         	movff	efgtoa@g,___fleq@ff1
  2167   0027CA  C583  F502         	movff	efgtoa@g+1,___fleq@ff1+1
  2168   0027CE  C584  F503         	movff	efgtoa@g+2,___fleq@ff1+2
  2169   0027D2  C585  F504         	movff	efgtoa@g+3,___fleq@ff1+3
  2170   0027D6  0E00               	movlw	0
  2171   0027D8  6E05               	movwf	___fleq@ff2^(0+1280),c
  2172   0027DA  0E00               	movlw	0
  2173   0027DC  6E06               	movwf	(___fleq@ff2+1)^(0+1280),c
  2174   0027DE  0E00               	movlw	0
  2175   0027E0  6E07               	movwf	(___fleq@ff2+2)^(0+1280),c
  2176   0027E2  0E00               	movlw	0
  2177   0027E4  6E08               	movwf	(___fleq@ff2+3)^(0+1280),c
  2178   0027E6  EC2A  F026         	call	___fleq	;wreg free
  2179   0027EA  B0D8               	btfsc	status,0,c
  2180   0027EC  EFFA  F013         	goto	u3381
  2181   0027F0  EFFC  F013         	goto	u3380
  2182   0027F4                     u3381:
  2183   0027F4  EFDB  F014         	goto	l1107
  2184   0027F8                     u3380:
  2185   0027F8  EF09  F014         	goto	l3582
  2186   0027FC                     l1109:
  2187                           
  2188                           ;C:\Program Files\Microchip\xc8\v2.40\pic\sources\c99\common\doprnt.c: 580:    u = ou;
  2189   0027FC  C573  F588         	movff	efgtoa@ou,efgtoa@u
  2190   002800  C574  F589         	movff	efgtoa@ou+1,efgtoa@u+1
  2191   002804  C575  F58A         	movff	efgtoa@ou+2,efgtoa@u+2
  2192   002808  C576  F58B         	movff	efgtoa@ou+3,efgtoa@u+3
  2193   00280C                     
  2194                           ;C:\Program Files\Microchip\xc8\v2.40\pic\sources\c99\common\doprnt.c: 581:    ++e;
  2195   00280C  0105               	movlb	5	; () banked
  2196   00280E  4B6F               	infsnz	efgtoa@e& (0+255),f,b
  2197   002810  2B70               	incf	(efgtoa@e+1)& (0+255),f,b
  2198   002812                     l3582:
  2199                           
  2200                           ;C:\Program Files\Microchip\xc8\v2.40\pic\sources\c99\common\doprnt.c: 579:   while ((la
      +                          bs((g).u-((ou.f = u.f*10.0,ou)).u) <= 1) || g.f > ou.f) {
  2201   002812  C588  F50F         	movff	efgtoa@u,___flmul@b
  2202   002816  C589  F510         	movff	efgtoa@u+1,___flmul@b+1
  2203   00281A  C58A  F511         	movff	efgtoa@u+2,___flmul@b+2
  2204   00281E  C58B  F512         	movff	efgtoa@u+3,___flmul@b+3
  2205   002822  0E00               	movlw	0
  2206   002824  6E13               	movwf	___flmul@a^(0+1280),c
  2207   002826  0E00               	movlw	0
  2208   002828  6E14               	movwf	(___flmul@a+1)^(0+1280),c
  2209   00282A  0E20               	movlw	32
  2210   00282C  6E15               	movwf	(___flmul@a+2)^(0+1280),c
  2211   00282E  0E41               	movlw	65
  2212   002830  6E16               	movwf	(___flmul@a+3)^(0+1280),c
  2213   002832  ECA4  F01A         	call	___flmul	;wreg free
  2214   002836  C50F  F573         	movff	?___flmul,efgtoa@ou
  2215   00283A  C510  F574         	movff	?___flmul+1,efgtoa@ou+1
  2216   00283E  C511  F575         	movff	?___flmul+2,efgtoa@ou+2
  2217   002842  C512  F576         	movff	?___flmul+3,efgtoa@ou+3
  2218   002846  0105               	movlb	5	; () banked
  2219   002848  5173               	movf	efgtoa@ou& (0+255),w,b
  2220   00284A  5D82               	subwf	efgtoa@g& (0+255),w,b
  2221   00284C  6E01               	movwf	labs@a^(0+1280),c
  2222   00284E  5174               	movf	(efgtoa@ou+1)& (0+255),w,b
  2223   002850  5983               	subwfb	(efgtoa@g+1)& (0+255),w,b
  2224   002852  6E02               	movwf	(labs@a+1)^(0+1280),c
  2225   002854  5175               	movf	(efgtoa@ou+2)& (0+255),w,b
  2226   002856  5984               	subwfb	(efgtoa@g+2)& (0+255),w,b
  2227   002858  6E03               	movwf	(labs@a+2)^(0+1280),c
  2228   00285A  5176               	movf	(efgtoa@ou+3)& (0+255),w,b
  2229   00285C  5985               	subwfb	(efgtoa@g+3)& (0+255),w,b
  2230   00285E  6E04               	movwf	(labs@a+3)^(0+1280),c
  2231   002860  ECF6  F026         	call	_labs	;wreg free
  2232   002864  BE04               	btfsc	(?_labs+3)^(0+1280),7,c
  2233   002866  EF40  F014         	goto	u3391
  2234   00286A  5004               	movf	(?_labs+3)^(0+1280),w,c
  2235   00286C  1003               	iorwf	(?_labs+2)^(0+1280),w,c
  2236   00286E  1002               	iorwf	(?_labs+1)^(0+1280),w,c
  2237   002870  E109               	bnz	u3390
  2238   002872  0E02               	movlw	2
  2239   002874  5C01               	subwf	?_labs^(0+1280),w,c
  2240   002876  A0D8               	btfss	status,0,c
  2241   002878  EF40  F014         	goto	u3391
  2242   00287C  EF42  F014         	goto	u3390
  2243   002880                     u3391:
  2244   002880  EFFE  F013         	goto	l1109
  2245   002884                     u3390:
  2246   002884  C573  F528         	movff	efgtoa@ou,___flge@ff1
  2247   002888  C574  F529         	movff	efgtoa@ou+1,___flge@ff1+1
  2248   00288C  C575  F52A         	movff	efgtoa@ou+2,___flge@ff1+2
  2249   002890  C576  F52B         	movff	efgtoa@ou+3,___flge@ff1+3
  2250   002894  C582  F52C         	movff	efgtoa@g,___flge@ff2
  2251   002898  C583  F52D         	movff	efgtoa@g+1,___flge@ff2+1
  2252   00289C  C584  F52E         	movff	efgtoa@g+2,___flge@ff2+2
  2253   0028A0  C585  F52F         	movff	efgtoa@g+3,___flge@ff2+3
  2254   0028A4  ECFB  F023         	call	___flge	;wreg free
  2255   0028A8  A0D8               	btfss	status,0,c
  2256   0028AA  EF59  F014         	goto	u3401
  2257   0028AE  EF5B  F014         	goto	u3400
  2258   0028B2                     u3401:
  2259   0028B2  EFFE  F013         	goto	l1109
  2260   0028B6                     u3400:
  2261   0028B6                     
  2262                           ;C:\Program Files\Microchip\xc8\v2.40\pic\sources\c99\common\doprnt.c: 583:   if ((labs(
      +                          (g).u-(u).u) <= 1)) {
  2263   0028B6  0105               	movlb	5	; () banked
  2264   0028B8  5188               	movf	efgtoa@u& (0+255),w,b
  2265   0028BA  5D82               	subwf	efgtoa@g& (0+255),w,b
  2266   0028BC  6E01               	movwf	labs@a^(0+1280),c
  2267   0028BE  5189               	movf	(efgtoa@u+1)& (0+255),w,b
  2268   0028C0  5983               	subwfb	(efgtoa@g+1)& (0+255),w,b
  2269   0028C2  6E02               	movwf	(labs@a+1)^(0+1280),c
  2270   0028C4  518A               	movf	(efgtoa@u+2)& (0+255),w,b
  2271   0028C6  5984               	subwfb	(efgtoa@g+2)& (0+255),w,b
  2272   0028C8  6E03               	movwf	(labs@a+2)^(0+1280),c
  2273   0028CA  518B               	movf	(efgtoa@u+3)& (0+255),w,b
  2274   0028CC  5985               	subwfb	(efgtoa@g+3)& (0+255),w,b
  2275   0028CE  6E04               	movwf	(labs@a+3)^(0+1280),c
  2276   0028D0  ECF6  F026         	call	_labs	;wreg free
  2277   0028D4  BE04               	btfsc	(?_labs+3)^(0+1280),7,c
  2278   0028D6  EF7A  F014         	goto	u3410
  2279   0028DA  5004               	movf	(?_labs+3)^(0+1280),w,c
  2280   0028DC  1003               	iorwf	(?_labs+2)^(0+1280),w,c
  2281   0028DE  1002               	iorwf	(?_labs+1)^(0+1280),w,c
  2282   0028E0  E107               	bnz	u3411
  2283   0028E2  0E02               	movlw	2
  2284   0028E4  5C01               	subwf	?_labs^(0+1280),w,c
  2285   0028E6  B0D8               	btfsc	status,0,c
  2286   0028E8  EF78  F014         	goto	u3411
  2287   0028EC  EF7A  F014         	goto	u3410
  2288   0028F0                     u3411:
  2289   0028F0  EFC2  F014         	goto	l3600
  2290   0028F4                     u3410:
  2291   0028F4                     l3590:
  2292                           
  2293                           ;C:\Program Files\Microchip\xc8\v2.40\pic\sources\c99\common\doprnt.c: 584:    g = u;
  2294   0028F4  C588  F582         	movff	efgtoa@u,efgtoa@g
  2295   0028F8  C589  F583         	movff	efgtoa@u+1,efgtoa@g+1
  2296   0028FC  C58A  F584         	movff	efgtoa@u+2,efgtoa@g+2
  2297   002900  C58B  F585         	movff	efgtoa@u+3,efgtoa@g+3
  2298                           
  2299                           ;C:\Program Files\Microchip\xc8\v2.40\pic\sources\c99\common\doprnt.c: 585:   }
  2300   002904  EFDB  F014         	goto	l1107
  2301   002908                     l3592:
  2302                           
  2303                           ;C:\Program Files\Microchip\xc8\v2.40\pic\sources\c99\common\doprnt.c: 588:     u.f = u.
      +                          f/10.0;
  2304   002908  C588  F501         	movff	efgtoa@u,___fldiv@b
  2305   00290C  C589  F502         	movff	efgtoa@u+1,___fldiv@b+1
  2306   002910  C58A  F503         	movff	efgtoa@u+2,___fldiv@b+2
  2307   002914  C58B  F504         	movff	efgtoa@u+3,___fldiv@b+3
  2308   002918  0E00               	movlw	0
  2309   00291A  6E05               	movwf	___fldiv@a^(0+1280),c
  2310   00291C  0E00               	movlw	0
  2311   00291E  6E06               	movwf	(___fldiv@a+1)^(0+1280),c
  2312   002920  0E20               	movlw	32
  2313   002922  6E07               	movwf	(___fldiv@a+2)^(0+1280),c
  2314   002924  0E41               	movlw	65
  2315   002926  6E08               	movwf	(___fldiv@a+3)^(0+1280),c
  2316   002928  EC92  F01E         	call	___fldiv	;wreg free
  2317   00292C  C501  F588         	movff	?___fldiv,efgtoa@u
  2318   002930  C502  F589         	movff	?___fldiv+1,efgtoa@u+1
  2319   002934  C503  F58A         	movff	?___fldiv+2,efgtoa@u+2
  2320   002938  C504  F58B         	movff	?___fldiv+3,efgtoa@u+3
  2321   00293C                     
  2322                           ;C:\Program Files\Microchip\xc8\v2.40\pic\sources\c99\common\doprnt.c: 589:     --e;
  2323   00293C  0105               	movlb	5	; () banked
  2324   00293E  076F               	decf	efgtoa@e& (0+255),f,b
  2325   002940  A0D8               	btfss	status,0,c
  2326   002942  0770               	decf	(efgtoa@e+1)& (0+255),f,b
  2327   002944                     
  2328                           ; BSR set to: 5
  2329                           ;C:\Program Files\Microchip\xc8\v2.40\pic\sources\c99\common\doprnt.c: 590:     if ((lab
      +                          s((g).u-(u).u) <= 1)) {
  2330   002944  5188               	movf	efgtoa@u& (0+255),w,b
  2331   002946  5D82               	subwf	efgtoa@g& (0+255),w,b
  2332   002948  6E01               	movwf	labs@a^(0+1280),c
  2333   00294A  5189               	movf	(efgtoa@u+1)& (0+255),w,b
  2334   00294C  5983               	subwfb	(efgtoa@g+1)& (0+255),w,b
  2335   00294E  6E02               	movwf	(labs@a+1)^(0+1280),c
  2336   002950  518A               	movf	(efgtoa@u+2)& (0+255),w,b
  2337   002952  5984               	subwfb	(efgtoa@g+2)& (0+255),w,b
  2338   002954  6E03               	movwf	(labs@a+2)^(0+1280),c
  2339   002956  518B               	movf	(efgtoa@u+3)& (0+255),w,b
  2340   002958  5985               	subwfb	(efgtoa@g+3)& (0+255),w,b
  2341   00295A  6E04               	movwf	(labs@a+3)^(0+1280),c
  2342   00295C  ECF6  F026         	call	_labs	;wreg free
  2343   002960  BE04               	btfsc	(?_labs+3)^(0+1280),7,c
  2344   002962  EFC0  F014         	goto	u3420
  2345   002966  5004               	movf	(?_labs+3)^(0+1280),w,c
  2346   002968  1003               	iorwf	(?_labs+2)^(0+1280),w,c
  2347   00296A  1002               	iorwf	(?_labs+1)^(0+1280),w,c
  2348   00296C  E107               	bnz	u3421
  2349   00296E  0E02               	movlw	2
  2350   002970  5C01               	subwf	?_labs^(0+1280),w,c
  2351   002972  B0D8               	btfsc	status,0,c
  2352   002974  EFBE  F014         	goto	u3421
  2353   002978  EFC0  F014         	goto	u3420
  2354   00297C                     u3421:
  2355   00297C  EFC2  F014         	goto	l3600
  2356   002980                     u3420:
  2357   002980  EF7A  F014         	goto	l3590
  2358   002984                     l3600:
  2359                           
  2360                           ;C:\Program Files\Microchip\xc8\v2.40\pic\sources\c99\common\doprnt.c: 587:    while (g.
      +                          f < u.f) {
  2361   002984  C582  F528         	movff	efgtoa@g,___flge@ff1
  2362   002988  C583  F529         	movff	efgtoa@g+1,___flge@ff1+1
  2363   00298C  C584  F52A         	movff	efgtoa@g+2,___flge@ff1+2
  2364   002990  C585  F52B         	movff	efgtoa@g+3,___flge@ff1+3
  2365   002994  C588  F52C         	movff	efgtoa@u,___flge@ff2
  2366   002998  C589  F52D         	movff	efgtoa@u+1,___flge@ff2+1
  2367   00299C  C58A  F52E         	movff	efgtoa@u+2,___flge@ff2+2
  2368   0029A0  C58B  F52F         	movff	efgtoa@u+3,___flge@ff2+3
  2369   0029A4  ECFB  F023         	call	___flge	;wreg free
  2370   0029A8  A0D8               	btfss	status,0,c
  2371   0029AA  EFD9  F014         	goto	u3431
  2372   0029AE  EFDB  F014         	goto	u3430
  2373   0029B2                     u3431:
  2374   0029B2  EF84  F014         	goto	l3592
  2375   0029B6                     u3430:
  2376   0029B6                     l1107:
  2377                           
  2378                           ;C:\Program Files\Microchip\xc8\v2.40\pic\sources\c99\common\doprnt.c: 602:  mode = c;
  2379   0029B6  C53A  F569         	movff	efgtoa@c,efgtoa@mode
  2380                           
  2381                           ;C:\Program Files\Microchip\xc8\v2.40\pic\sources\c99\common\doprnt.c: 604:     nmode = 
      +                          mode;
  2382   0029BA  C569  F56A         	movff	efgtoa@mode,efgtoa@nmode
  2383   0029BE                     
  2384                           ;C:\Program Files\Microchip\xc8\v2.40\pic\sources\c99\common\doprnt.c: 614:  {;C:\Progra
      +                          m Files\Microchip\xc8\v2.40\pic\sources\c99\common\doprnt.c: 615:         p = (prec < 0)
      +                           ? 6 : prec;
  2385   0029BE  0105               	movlb	5	; () banked
  2386   0029C0  BFD2               	btfsc	(_prec+1)& (0+255),7,b
  2387   0029C2  EFE5  F014         	goto	u3441
  2388   0029C6  EFE7  F014         	goto	u3440
  2389   0029CA                     u3441:
  2390   0029CA  EFED  F014         	goto	l3606
  2391   0029CE                     u3440:
  2392   0029CE                     
  2393                           ; BSR set to: 5
  2394   0029CE  C5D1  F562         	movff	_prec,efgtoa@p
  2395   0029D2  C5D2  F563         	movff	_prec+1,efgtoa@p+1
  2396   0029D6  EFF1  F014         	goto	l3608
  2397   0029DA                     l3606:
  2398                           
  2399                           ; BSR set to: 5
  2400   0029DA  0E00               	movlw	0
  2401   0029DC  6F63               	movwf	(efgtoa@p+1)& (0+255),b
  2402   0029DE  0E06               	movlw	6
  2403   0029E0  6F62               	movwf	efgtoa@p& (0+255),b
  2404   0029E2                     l3608:
  2405                           
  2406                           ; BSR set to: 5
  2407                           ;C:\Program Files\Microchip\xc8\v2.40\pic\sources\c99\common\doprnt.c: 616:     };C:\Pro
      +                          gram Files\Microchip\xc8\v2.40\pic\sources\c99\common\doprnt.c: 630:     m = p;
  2408   0029E2  C562  F56D         	movff	efgtoa@p,efgtoa@m
  2409   0029E6  C563  F56E         	movff	efgtoa@p+1,efgtoa@m+1
  2410   0029EA                     
  2411                           ; BSR set to: 5
  2412                           ;C:\Program Files\Microchip\xc8\v2.40\pic\sources\c99\common\doprnt.c: 634:  {;C:\Progra
      +                          m Files\Microchip\xc8\v2.40\pic\sources\c99\common\doprnt.c: 635:         ++m;
  2413   0029EA  4B6D               	infsnz	efgtoa@m& (0+255),f,b
  2414   0029EC  2B6E               	incf	(efgtoa@m+1)& (0+255),f,b
  2415   0029EE                     
  2416                           ; BSR set to: 5
  2417                           ;C:\Program Files\Microchip\xc8\v2.40\pic\sources\c99\common\doprnt.c: 636:     };C:\Pro
      +                          gram Files\Microchip\xc8\v2.40\pic\sources\c99\common\doprnt.c: 640:     if (nmode == 'f
      +                          ') {
  2418   0029EE  0E66               	movlw	102
  2419   0029F0  196A               	xorwf	efgtoa@nmode& (0+255),w,b
  2420   0029F2  A4D8               	btfss	status,2,c
  2421   0029F4  EFFE  F014         	goto	u3451
  2422   0029F8  EF00  F015         	goto	u3450
  2423   0029FC                     u3451:
  2424   0029FC  EF20  F015         	goto	l3622
  2425   002A00                     u3450:
  2426   002A00                     
  2427                           ; BSR set to: 5
  2428                           ;C:\Program Files\Microchip\xc8\v2.40\pic\sources\c99\common\doprnt.c: 641:         if (
      +                          e < 0) {
  2429   002A00  BF70               	btfsc	(efgtoa@e+1)& (0+255),7,b
  2430   002A02  EF07  F015         	goto	u3460
  2431   002A06  EF05  F015         	goto	u3461
  2432   002A0A                     u3461:
  2433   002A0A  EF13  F015         	goto	l3618
  2434   002A0E                     u3460:
  2435   002A0E                     
  2436                           ; BSR set to: 5
  2437                           ;C:\Program Files\Microchip\xc8\v2.40\pic\sources\c99\common\doprnt.c: 642:             
      +                          u.f = 1.0;
  2438   002A0E  0E00               	movlw	0
  2439   002A10  6F88               	movwf	efgtoa@u& (0+255),b
  2440   002A12  0E00               	movlw	0
  2441   002A14  6F89               	movwf	(efgtoa@u+1)& (0+255),b
  2442   002A16  0E80               	movlw	128
  2443   002A18  6F8A               	movwf	(efgtoa@u+2)& (0+255),b
  2444   002A1A  0E3F               	movlw	63
  2445   002A1C  6F8B               	movwf	(efgtoa@u+3)& (0+255),b
  2446                           
  2447                           ;C:\Program Files\Microchip\xc8\v2.40\pic\sources\c99\common\doprnt.c: 643:             
      +                          e = 0;
  2448   002A1E  0E00               	movlw	0
  2449   002A20  6F70               	movwf	(efgtoa@e+1)& (0+255),b
  2450   002A22  0E00               	movlw	0
  2451   002A24  6F6F               	movwf	efgtoa@e& (0+255),b
  2452   002A26                     l3618:
  2453                           
  2454                           ; BSR set to: 5
  2455                           ;C:\Program Files\Microchip\xc8\v2.40\pic\sources\c99\common\doprnt.c: 645:         if (
      +                          !(mode == 'g')) {
  2456   002A26  0E67               	movlw	103
  2457   002A28  1969               	xorwf	efgtoa@mode& (0+255),w,b
  2458   002A2A  B4D8               	btfsc	status,2,c
  2459   002A2C  EF1A  F015         	goto	u3471
  2460   002A30  EF1C  F015         	goto	u3470
  2461   002A34                     u3471:
  2462   002A34  EF20  F015         	goto	l3622
  2463   002A38                     u3470:
  2464   002A38                     
  2465                           ; BSR set to: 5
  2466                           ;C:\Program Files\Microchip\xc8\v2.40\pic\sources\c99\common\doprnt.c: 646:             
      +                          m += e;
  2467   002A38  516F               	movf	efgtoa@e& (0+255),w,b
  2468   002A3A  276D               	addwf	efgtoa@m& (0+255),f,b
  2469   002A3C  5170               	movf	(efgtoa@e+1)& (0+255),w,b
  2470   002A3E  236E               	addwfc	(efgtoa@m+1)& (0+255),f,b
  2471   002A40                     l3622:
  2472                           
  2473                           ; BSR set to: 5
  2474                           ;C:\Program Files\Microchip\xc8\v2.40\pic\sources\c99\common\doprnt.c: 652:     i = 0;
  2475   002A40  0E00               	movlw	0
  2476   002A42  6F80               	movwf	(efgtoa@i+1)& (0+255),b
  2477   002A44  0E00               	movlw	0
  2478   002A46  6F7F               	movwf	efgtoa@i& (0+255),b
  2479   002A48                     
  2480                           ; BSR set to: 5
  2481                           ;C:\Program Files\Microchip\xc8\v2.40\pic\sources\c99\common\doprnt.c: 653:     h = g.f;
  2482   002A48  C582  F577         	movff	efgtoa@g,efgtoa@h
  2483   002A4C  C583  F578         	movff	efgtoa@g+1,efgtoa@h+1
  2484   002A50  C584  F579         	movff	efgtoa@g+2,efgtoa@h+2
  2485   002A54  C585  F57A         	movff	efgtoa@g+3,efgtoa@h+3
  2486   002A58                     
  2487                           ; BSR set to: 5
  2488                           ;C:\Program Files\Microchip\xc8\v2.40\pic\sources\c99\common\doprnt.c: 654:     ou = u;
  2489   002A58  C588  F573         	movff	efgtoa@u,efgtoa@ou
  2490   002A5C  C589  F574         	movff	efgtoa@u+1,efgtoa@ou+1
  2491   002A60  C58A  F575         	movff	efgtoa@u+2,efgtoa@ou+2
  2492   002A64  C58B  F576         	movff	efgtoa@u+3,efgtoa@ou+3
  2493                           
  2494                           ;C:\Program Files\Microchip\xc8\v2.40\pic\sources\c99\common\doprnt.c: 655:     while (i
      +                           < m) {
  2495   002A68  EFB1  F015         	goto	l3636
  2496   002A6C                     l3628:
  2497                           
  2498                           ; BSR set to: 5
  2499                           ;C:\Program Files\Microchip\xc8\v2.40\pic\sources\c99\common\doprnt.c: 656:         l = 
      +                          floorf(h/u.f);
  2500   002A6C  C577  F501         	movff	efgtoa@h,___fldiv@b
  2501   002A70  C578  F502         	movff	efgtoa@h+1,___fldiv@b+1
  2502   002A74  C579  F503         	movff	efgtoa@h+2,___fldiv@b+2
  2503   002A78  C57A  F504         	movff	efgtoa@h+3,___fldiv@b+3
  2504   002A7C  C588  F505         	movff	efgtoa@u,___fldiv@a
  2505   002A80  C589  F506         	movff	efgtoa@u+1,___fldiv@a+1
  2506   002A84  C58A  F507         	movff	efgtoa@u+2,___fldiv@a+2
  2507   002A88  C58B  F508         	movff	efgtoa@u+3,___fldiv@a+3
  2508   002A8C  EC92  F01E         	call	___fldiv	;wreg free
  2509   002A90  C501  F51A         	movff	?___fldiv,floorf@x
  2510   002A94  C502  F51B         	movff	?___fldiv+1,floorf@x+1
  2511   002A98  C503  F51C         	movff	?___fldiv+2,floorf@x+2
  2512   002A9C  C504  F51D         	movff	?___fldiv+3,floorf@x+3
  2513   002AA0  EC5F  F020         	call	_floorf	;wreg free
  2514   002AA4  C51A  F57B         	movff	?_floorf,efgtoa@l
  2515   002AA8  C51B  F57C         	movff	?_floorf+1,efgtoa@l+1
  2516   002AAC  C51C  F57D         	movff	?_floorf+2,efgtoa@l+2
  2517   002AB0  C51D  F57E         	movff	?_floorf+3,efgtoa@l+3
  2518                           
  2519                           ;C:\Program Files\Microchip\xc8\v2.40\pic\sources\c99\common\doprnt.c: 657:         d = 
      +                          (int)l;
  2520   002AB4  C57B  F501         	movff	efgtoa@l,___fltol@f1
  2521   002AB8  C57C  F502         	movff	efgtoa@l+1,___fltol@f1+1
  2522   002ABC  C57D  F503         	movff	efgtoa@l+2,___fltol@f1+2
  2523   002AC0  C57E  F504         	movff	efgtoa@l+3,___fltol@f1+3
  2524   002AC4  EC78  F023         	call	___fltol	;wreg free
  2525   002AC8  C501  F56B         	movff	?___fltol,efgtoa@d
  2526   002ACC  C502  F56C         	movff	?___fltol+1,efgtoa@d+1
  2527   002AD0                     
  2528                           ;C:\Program Files\Microchip\xc8\v2.40\pic\sources\c99\common\doprnt.c: 658:         h -=
      +                           l*u.f;
  2529   002AD0  C577  F528         	movff	efgtoa@h,___flsub@b
  2530   002AD4  C578  F529         	movff	efgtoa@h+1,___flsub@b+1
  2531   002AD8  C579  F52A         	movff	efgtoa@h+2,___flsub@b+2
  2532   002ADC  C57A  F52B         	movff	efgtoa@h+3,___flsub@b+3
  2533   002AE0  C57B  F513         	movff	efgtoa@l,___flmul@a
  2534   002AE4  C57C  F514         	movff	efgtoa@l+1,___flmul@a+1
  2535   002AE8  C57D  F515         	movff	efgtoa@l+2,___flmul@a+2
  2536   002AEC  C57E  F516         	movff	efgtoa@l+3,___flmul@a+3
  2537   002AF0  C588  F50F         	movff	efgtoa@u,___flmul@b
  2538   002AF4  C589  F510         	movff	efgtoa@u+1,___flmul@b+1
  2539   002AF8  C58A  F511         	movff	efgtoa@u+2,___flmul@b+2
  2540   002AFC  C58B  F512         	movff	efgtoa@u+3,___flmul@b+3
  2541   002B00  ECA4  F01A         	call	___flmul	;wreg free
  2542   002B04  C50F  F52C         	movff	?___flmul,___flsub@a
  2543   002B08  C510  F52D         	movff	?___flmul+1,___flsub@a+1
  2544   002B0C  C511  F52E         	movff	?___flmul+2,___flsub@a+2
  2545   002B10  C512  F52F         	movff	?___flmul+3,___flsub@a+3
  2546   002B14  ECA5  F027         	call	___flsub	;wreg free
  2547   002B18  C528  F577         	movff	?___flsub,efgtoa@h
  2548   002B1C  C529  F578         	movff	?___flsub+1,efgtoa@h+1
  2549   002B20  C52A  F579         	movff	?___flsub+2,efgtoa@h+2
  2550   002B24  C52B  F57A         	movff	?___flsub+3,efgtoa@h+3
  2551   002B28                     
  2552                           ;C:\Program Files\Microchip\xc8\v2.40\pic\sources\c99\common\doprnt.c: 659:         u.f 
      +                          = u.f/10.0;
  2553   002B28  C588  F501         	movff	efgtoa@u,___fldiv@b
  2554   002B2C  C589  F502         	movff	efgtoa@u+1,___fldiv@b+1
  2555   002B30  C58A  F503         	movff	efgtoa@u+2,___fldiv@b+2
  2556   002B34  C58B  F504         	movff	efgtoa@u+3,___fldiv@b+3
  2557   002B38  0E00               	movlw	0
  2558   002B3A  6E05               	movwf	___fldiv@a^(0+1280),c
  2559   002B3C  0E00               	movlw	0
  2560   002B3E  6E06               	movwf	(___fldiv@a+1)^(0+1280),c
  2561   002B40  0E20               	movlw	32
  2562   002B42  6E07               	movwf	(___fldiv@a+2)^(0+1280),c
  2563   002B44  0E41               	movlw	65
  2564   002B46  6E08               	movwf	(___fldiv@a+3)^(0+1280),c
  2565   002B48  EC92  F01E         	call	___fldiv	;wreg free
  2566   002B4C  C501  F588         	movff	?___fldiv,efgtoa@u
  2567   002B50  C502  F589         	movff	?___fldiv+1,efgtoa@u+1
  2568   002B54  C503  F58A         	movff	?___fldiv+2,efgtoa@u+2
  2569   002B58  C504  F58B         	movff	?___fldiv+3,efgtoa@u+3
  2570   002B5C                     
  2571                           ;C:\Program Files\Microchip\xc8\v2.40\pic\sources\c99\common\doprnt.c: 660:         ++i;
  2572   002B5C  0105               	movlb	5	; () banked
  2573   002B5E  4B7F               	infsnz	efgtoa@i& (0+255),f,b
  2574   002B60  2B80               	incf	(efgtoa@i+1)& (0+255),f,b
  2575   002B62                     l3636:
  2576                           
  2577                           ; BSR set to: 5
  2578                           ;C:\Program Files\Microchip\xc8\v2.40\pic\sources\c99\common\doprnt.c: 655:     while (i
      +                           < m) {
  2579   002B62  516D               	movf	efgtoa@m& (0+255),w,b
  2580   002B64  5D7F               	subwf	efgtoa@i& (0+255),w,b
  2581   002B66  5180               	movf	(efgtoa@i+1)& (0+255),w,b
  2582   002B68  0A80               	xorlw	128
  2583   002B6A  6E3B               	movwf	??_efgtoa^(0+1280),c
  2584   002B6C  516E               	movf	(efgtoa@m+1)& (0+255),w,b
  2585   002B6E  0A80               	xorlw	128
  2586   002B70  583B               	subwfb	??_efgtoa^(0+1280),w,c
  2587   002B72  A0D8               	btfss	status,0,c
  2588   002B74  EFBE  F015         	goto	u3481
  2589   002B78  EFC0  F015         	goto	u3480
  2590   002B7C                     u3481:
  2591   002B7C  EF36  F015         	goto	l3628
  2592   002B80                     u3480:
  2593   002B80                     
  2594                           ; BSR set to: 5
  2595                           ;C:\Program Files\Microchip\xc8\v2.40\pic\sources\c99\common\doprnt.c: 664:     l = u.f*
      +                          5.0;
  2596   002B80  C588  F50F         	movff	efgtoa@u,___flmul@b
  2597   002B84  C589  F510         	movff	efgtoa@u+1,___flmul@b+1
  2598   002B88  C58A  F511         	movff	efgtoa@u+2,___flmul@b+2
  2599   002B8C  C58B  F512         	movff	efgtoa@u+3,___flmul@b+3
  2600   002B90  0E00               	movlw	0
  2601   002B92  6E13               	movwf	___flmul@a^(0+1280),c
  2602   002B94  0E00               	movlw	0
  2603   002B96  6E14               	movwf	(___flmul@a+1)^(0+1280),c
  2604   002B98  0EA0               	movlw	160
  2605   002B9A  6E15               	movwf	(___flmul@a+2)^(0+1280),c
  2606   002B9C  0E40               	movlw	64
  2607   002B9E  6E16               	movwf	(___flmul@a+3)^(0+1280),c
  2608   002BA0  ECA4  F01A         	call	___flmul	;wreg free
  2609   002BA4  C50F  F57B         	movff	?___flmul,efgtoa@l
  2610   002BA8  C510  F57C         	movff	?___flmul+1,efgtoa@l+1
  2611   002BAC  C511  F57D         	movff	?___flmul+2,efgtoa@l+2
  2612   002BB0  C512  F57E         	movff	?___flmul+3,efgtoa@l+3
  2613   002BB4                     
  2614                           ;C:\Program Files\Microchip\xc8\v2.40\pic\sources\c99\common\doprnt.c: 665:     if (h < 
      +                          l) {
  2615   002BB4  C577  F528         	movff	efgtoa@h,___flge@ff1
  2616   002BB8  C578  F529         	movff	efgtoa@h+1,___flge@ff1+1
  2617   002BBC  C579  F52A         	movff	efgtoa@h+2,___flge@ff1+2
  2618   002BC0  C57A  F52B         	movff	efgtoa@h+3,___flge@ff1+3
  2619   002BC4  C57B  F52C         	movff	efgtoa@l,___flge@ff2
  2620   002BC8  C57C  F52D         	movff	efgtoa@l+1,___flge@ff2+1
  2621   002BCC  C57D  F52E         	movff	efgtoa@l+2,___flge@ff2+2
  2622   002BD0  C57E  F52F         	movff	efgtoa@l+3,___flge@ff2+3
  2623   002BD4  ECFB  F023         	call	___flge	;wreg free
  2624   002BD8  B0D8               	btfsc	status,0,c
  2625   002BDA  EFF1  F015         	goto	u3491
  2626   002BDE  EFF3  F015         	goto	u3490
  2627   002BE2                     u3491:
  2628   002BE2  EFFE  F015         	goto	l3644
  2629   002BE6                     u3490:
  2630   002BE6                     
  2631                           ;C:\Program Files\Microchip\xc8\v2.40\pic\sources\c99\common\doprnt.c: 666:         l = 
      +                          0.0;
  2632   002BE6  0E00               	movlw	0
  2633   002BE8  0105               	movlb	5	; () banked
  2634   002BEA  6F7B               	movwf	efgtoa@l& (0+255),b
  2635   002BEC  0E00               	movlw	0
  2636   002BEE  6F7C               	movwf	(efgtoa@l+1)& (0+255),b
  2637   002BF0  0E00               	movlw	0
  2638   002BF2  6F7D               	movwf	(efgtoa@l+2)& (0+255),b
  2639   002BF4  0E00               	movlw	0
  2640   002BF6  6F7E               	movwf	(efgtoa@l+3)& (0+255),b
  2641                           
  2642                           ;C:\Program Files\Microchip\xc8\v2.40\pic\sources\c99\common\doprnt.c: 667:     } else {
  2643   002BF8  EF27  F016         	goto	l3650
  2644   002BFC                     l3644:
  2645                           
  2646                           ;C:\Program Files\Microchip\xc8\v2.40\pic\sources\c99\common\doprnt.c: 669:         if (
      +                          (h == l) && !(d % 2)) {
  2647   002BFC  C577  F501         	movff	efgtoa@h,___fleq@ff1
  2648   002C00  C578  F502         	movff	efgtoa@h+1,___fleq@ff1+1
  2649   002C04  C579  F503         	movff	efgtoa@h+2,___fleq@ff1+2
  2650   002C08  C57A  F504         	movff	efgtoa@h+3,___fleq@ff1+3
  2651   002C0C  C57B  F505         	movff	efgtoa@l,___fleq@ff2
  2652   002C10  C57C  F506         	movff	efgtoa@l+1,___fleq@ff2+1
  2653   002C14  C57D  F507         	movff	efgtoa@l+2,___fleq@ff2+2
  2654   002C18  C57E  F508         	movff	efgtoa@l+3,___fleq@ff2+3
  2655   002C1C  EC2A  F026         	call	___fleq	;wreg free
  2656   002C20  A0D8               	btfss	status,0,c
  2657   002C22  EF15  F016         	goto	u3501
  2658   002C26  EF17  F016         	goto	u3500
  2659   002C2A                     u3501:
  2660   002C2A  EF27  F016         	goto	l3650
  2661   002C2E                     u3500:
  2662   002C2E  0105               	movlb	5	; () banked
  2663   002C30  B16B               	btfsc	efgtoa@d& (0+255),0,b
  2664   002C32  EF1D  F016         	goto	u3511
  2665   002C36  EF1F  F016         	goto	u3510
  2666   002C3A                     u3511:
  2667   002C3A  EF27  F016         	goto	l3650
  2668   002C3E                     u3510:
  2669   002C3E                     
  2670                           ; BSR set to: 5
  2671                           ;C:\Program Files\Microchip\xc8\v2.40\pic\sources\c99\common\doprnt.c: 670:             
      +                          l = 0.0;
  2672   002C3E  0E00               	movlw	0
  2673   002C40  6F7B               	movwf	efgtoa@l& (0+255),b
  2674   002C42  0E00               	movlw	0
  2675   002C44  6F7C               	movwf	(efgtoa@l+1)& (0+255),b
  2676   002C46  0E00               	movlw	0
  2677   002C48  6F7D               	movwf	(efgtoa@l+2)& (0+255),b
  2678   002C4A  0E00               	movlw	0
  2679   002C4C  6F7E               	movwf	(efgtoa@l+3)& (0+255),b
  2680   002C4E                     l3650:
  2681                           
  2682                           ;C:\Program Files\Microchip\xc8\v2.40\pic\sources\c99\common\doprnt.c: 675:     h = g.f 
      +                          + l;
  2683   002C4E  C582  F501         	movff	efgtoa@g,___fladd@b
  2684   002C52  C583  F502         	movff	efgtoa@g+1,___fladd@b+1
  2685   002C56  C584  F503         	movff	efgtoa@g+2,___fladd@b+2
  2686   002C5A  C585  F504         	movff	efgtoa@g+3,___fladd@b+3
  2687   002C5E  C57B  F505         	movff	efgtoa@l,___fladd@a
  2688   002C62  C57C  F506         	movff	efgtoa@l+1,___fladd@a+1
  2689   002C66  C57D  F507         	movff	efgtoa@l+2,___fladd@a+2
  2690   002C6A  C57E  F508         	movff	efgtoa@l+3,___fladd@a+3
  2691   002C6E  EC44  F018         	call	___fladd	;wreg free
  2692   002C72  C501  F577         	movff	?___fladd,efgtoa@h
  2693   002C76  C502  F578         	movff	?___fladd+1,efgtoa@h+1
  2694   002C7A  C503  F579         	movff	?___fladd+2,efgtoa@h+2
  2695   002C7E  C504  F57A         	movff	?___fladd+3,efgtoa@h+3
  2696   002C82                     
  2697                           ;C:\Program Files\Microchip\xc8\v2.40\pic\sources\c99\common\doprnt.c: 677:  if (h >= (o
      +                          u.f*10.0)) {
  2698   002C82  C577  F528         	movff	efgtoa@h,___flge@ff1
  2699   002C86  C578  F529         	movff	efgtoa@h+1,___flge@ff1+1
  2700   002C8A  C579  F52A         	movff	efgtoa@h+2,___flge@ff1+2
  2701   002C8E  C57A  F52B         	movff	efgtoa@h+3,___flge@ff1+3
  2702   002C92  0E00               	movlw	0
  2703   002C94  6E13               	movwf	___flmul@a^(0+1280),c
  2704   002C96  0E00               	movlw	0
  2705   002C98  6E14               	movwf	(___flmul@a+1)^(0+1280),c
  2706   002C9A  0E20               	movlw	32
  2707   002C9C  6E15               	movwf	(___flmul@a+2)^(0+1280),c
  2708   002C9E  0E41               	movlw	65
  2709   002CA0  6E16               	movwf	(___flmul@a+3)^(0+1280),c
  2710   002CA2  C573  F50F         	movff	efgtoa@ou,___flmul@b
  2711   002CA6  C574  F510         	movff	efgtoa@ou+1,___flmul@b+1
  2712   002CAA  C575  F511         	movff	efgtoa@ou+2,___flmul@b+2
  2713   002CAE  C576  F512         	movff	efgtoa@ou+3,___flmul@b+3
  2714   002CB2  ECA4  F01A         	call	___flmul	;wreg free
  2715   002CB6  C50F  F52C         	movff	?___flmul,___flge@ff2
  2716   002CBA  C510  F52D         	movff	?___flmul+1,___flge@ff2+1
  2717   002CBE  C511  F52E         	movff	?___flmul+2,___flge@ff2+2
  2718   002CC2  C512  F52F         	movff	?___flmul+3,___flge@ff2+3
  2719   002CC6  ECFB  F023         	call	___flge	;wreg free
  2720   002CCA  A0D8               	btfss	status,0,c
  2721   002CCC  EF6A  F016         	goto	u3521
  2722   002CD0  EF6C  F016         	goto	u3520
  2723   002CD4                     u3521:
  2724   002CD4  EF95  F016         	goto	l3662
  2725   002CD8                     u3520:
  2726   002CD8                     
  2727                           ;C:\Program Files\Microchip\xc8\v2.40\pic\sources\c99\common\doprnt.c: 678:   e++;
  2728   002CD8  0105               	movlb	5	; () banked
  2729   002CDA  4B6F               	infsnz	efgtoa@e& (0+255),f,b
  2730   002CDC  2B70               	incf	(efgtoa@e+1)& (0+255),f,b
  2731   002CDE                     
  2732                           ; BSR set to: 5
  2733                           ;C:\Program Files\Microchip\xc8\v2.40\pic\sources\c99\common\doprnt.c: 679:   ou.f *= 10
      +                          .0;
  2734   002CDE  C573  F50F         	movff	efgtoa@ou,___flmul@b
  2735   002CE2  C574  F510         	movff	efgtoa@ou+1,___flmul@b+1
  2736   002CE6  C575  F511         	movff	efgtoa@ou+2,___flmul@b+2
  2737   002CEA  C576  F512         	movff	efgtoa@ou+3,___flmul@b+3
  2738   002CEE  0E00               	movlw	0
  2739   002CF0  6E13               	movwf	___flmul@a^(0+1280),c
  2740   002CF2  0E00               	movlw	0
  2741   002CF4  6E14               	movwf	(___flmul@a+1)^(0+1280),c
  2742   002CF6  0E20               	movlw	32
  2743   002CF8  6E15               	movwf	(___flmul@a+2)^(0+1280),c
  2744   002CFA  0E41               	movlw	65
  2745   002CFC  6E16               	movwf	(___flmul@a+3)^(0+1280),c
  2746   002CFE  ECA4  F01A         	call	___flmul	;wreg free
  2747   002D02  C50F  F573         	movff	?___flmul,efgtoa@ou
  2748   002D06  C510  F574         	movff	?___flmul+1,efgtoa@ou+1
  2749   002D0A  C511  F575         	movff	?___flmul+2,efgtoa@ou+2
  2750   002D0E  C512  F576         	movff	?___flmul+3,efgtoa@ou+3
  2751   002D12                     
  2752                           ;C:\Program Files\Microchip\xc8\v2.40\pic\sources\c99\common\doprnt.c: 681:   if (nmode 
      +                          == 'f') {
  2753   002D12  0E66               	movlw	102
  2754   002D14  0105               	movlb	5	; () banked
  2755   002D16  196A               	xorwf	efgtoa@nmode& (0+255),w,b
  2756   002D18  A4D8               	btfss	status,2,c
  2757   002D1A  EF91  F016         	goto	u3531
  2758   002D1E  EF93  F016         	goto	u3530
  2759   002D22                     u3531:
  2760   002D22  EF95  F016         	goto	l3662
  2761   002D26                     u3530:
  2762   002D26                     
  2763                           ; BSR set to: 5
  2764                           ;C:\Program Files\Microchip\xc8\v2.40\pic\sources\c99\common\doprnt.c: 683:    m++;
  2765   002D26  4B6D               	infsnz	efgtoa@m& (0+255),f,b
  2766   002D28  2B6E               	incf	(efgtoa@m+1)& (0+255),f,b
  2767   002D2A                     l3662:
  2768                           
  2769                           ;C:\Program Files\Microchip\xc8\v2.40\pic\sources\c99\common\doprnt.c: 689:     u = ou;
  2770   002D2A  C573  F588         	movff	efgtoa@ou,efgtoa@u
  2771   002D2E  C574  F589         	movff	efgtoa@ou+1,efgtoa@u+1
  2772   002D32  C575  F58A         	movff	efgtoa@ou+2,efgtoa@u+2
  2773   002D36  C576  F58B         	movff	efgtoa@ou+3,efgtoa@u+3
  2774   002D3A                     
  2775                           ;C:\Program Files\Microchip\xc8\v2.40\pic\sources\c99\common\doprnt.c: 693:  ne = e;
  2776   002D3A  C56F  F560         	movff	efgtoa@e,efgtoa@ne
  2777   002D3E  C570  F561         	movff	efgtoa@e+1,efgtoa@ne+1
  2778   002D42                     
  2779                           ;C:\Program Files\Microchip\xc8\v2.40\pic\sources\c99\common\doprnt.c: 695:     pp = 0;
  2780   002D42  0E00               	movlw	0
  2781   002D44  0105               	movlb	5	; () banked
  2782   002D46  6F68               	movwf	efgtoa@pp& (0+255),b
  2783   002D48                     
  2784                           ; BSR set to: 5
  2785                           ;C:\Program Files\Microchip\xc8\v2.40\pic\sources\c99\common\doprnt.c: 696:     t = 0;
  2786   002D48  0E00               	movlw	0
  2787   002D4A  6F65               	movwf	(efgtoa@t+1)& (0+255),b
  2788   002D4C  0E00               	movlw	0
  2789   002D4E  6F64               	movwf	efgtoa@t& (0+255),b
  2790   002D50                     
  2791                           ; BSR set to: 5
  2792                           ;C:\Program Files\Microchip\xc8\v2.40\pic\sources\c99\common\doprnt.c: 697:     i = 0;
  2793   002D50  0E00               	movlw	0
  2794   002D52  6F80               	movwf	(efgtoa@i+1)& (0+255),b
  2795   002D54  0E00               	movlw	0
  2796   002D56  6F7F               	movwf	efgtoa@i& (0+255),b
  2797                           
  2798                           ;C:\Program Files\Microchip\xc8\v2.40\pic\sources\c99\common\doprnt.c: 698:     while ((
      +                          i < m) && (n < (80 - 5))) {
  2799   002D58  EF93  F017         	goto	l3712
  2800   002D5C                     l3672:
  2801                           
  2802                           ; BSR set to: 5
  2803                           ;C:\Program Files\Microchip\xc8\v2.40\pic\sources\c99\common\doprnt.c: 699:         l = 
      +                          floorf(h/u.f);
  2804   002D5C  C577  F501         	movff	efgtoa@h,___fldiv@b
  2805   002D60  C578  F502         	movff	efgtoa@h+1,___fldiv@b+1
  2806   002D64  C579  F503         	movff	efgtoa@h+2,___fldiv@b+2
  2807   002D68  C57A  F504         	movff	efgtoa@h+3,___fldiv@b+3
  2808   002D6C  C588  F505         	movff	efgtoa@u,___fldiv@a
  2809   002D70  C589  F506         	movff	efgtoa@u+1,___fldiv@a+1
  2810   002D74  C58A  F507         	movff	efgtoa@u+2,___fldiv@a+2
  2811   002D78  C58B  F508         	movff	efgtoa@u+3,___fldiv@a+3
  2812   002D7C  EC92  F01E         	call	___fldiv	;wreg free
  2813   002D80  C501  F51A         	movff	?___fldiv,floorf@x
  2814   002D84  C502  F51B         	movff	?___fldiv+1,floorf@x+1
  2815   002D88  C503  F51C         	movff	?___fldiv+2,floorf@x+2
  2816   002D8C  C504  F51D         	movff	?___fldiv+3,floorf@x+3
  2817   002D90  EC5F  F020         	call	_floorf	;wreg free
  2818   002D94  C51A  F57B         	movff	?_floorf,efgtoa@l
  2819   002D98  C51B  F57C         	movff	?_floorf+1,efgtoa@l+1
  2820   002D9C  C51C  F57D         	movff	?_floorf+2,efgtoa@l+2
  2821   002DA0  C51D  F57E         	movff	?_floorf+3,efgtoa@l+3
  2822                           
  2823                           ;C:\Program Files\Microchip\xc8\v2.40\pic\sources\c99\common\doprnt.c: 700:         d = 
      +                          (int)l > 9 ? 9 : (int)l;
  2824   002DA4  C57B  F501         	movff	efgtoa@l,___fltol@f1
  2825   002DA8  C57C  F502         	movff	efgtoa@l+1,___fltol@f1+1
  2826   002DAC  C57D  F503         	movff	efgtoa@l+2,___fltol@f1+2
  2827   002DB0  C57E  F504         	movff	efgtoa@l+3,___fltol@f1+3
  2828   002DB4  EC78  F023         	call	___fltol	;wreg free
  2829   002DB8  BE02               	btfsc	(?___fltol+1)^(0+1280),7,c
  2830   002DBA  EFEA  F016         	goto	u3540
  2831   002DBE  5002               	movf	(?___fltol+1)^(0+1280),w,c
  2832   002DC0  E107               	bnz	u3541
  2833   002DC2  0E0A               	movlw	10
  2834   002DC4  5C01               	subwf	?___fltol^(0+1280),w,c
  2835   002DC6  B0D8               	btfsc	status,0,c
  2836   002DC8  EFE8  F016         	goto	u3541
  2837   002DCC  EFEA  F016         	goto	u3540
  2838   002DD0                     u3541:
  2839   002DD0  EFFA  F016         	goto	l3676
  2840   002DD4                     u3540:
  2841   002DD4  C57B  F501         	movff	efgtoa@l,___fltol@f1
  2842   002DD8  C57C  F502         	movff	efgtoa@l+1,___fltol@f1+1
  2843   002DDC  C57D  F503         	movff	efgtoa@l+2,___fltol@f1+2
  2844   002DE0  C57E  F504         	movff	efgtoa@l+3,___fltol@f1+3
  2845   002DE4  EC78  F023         	call	___fltol	;wreg free
  2846   002DE8  C501  F56B         	movff	?___fltol,efgtoa@d
  2847   002DEC  C502  F56C         	movff	?___fltol+1,efgtoa@d+1
  2848   002DF0  EFFF  F016         	goto	l1137
  2849   002DF4                     l3676:
  2850   002DF4  0E00               	movlw	0
  2851   002DF6  0105               	movlb	5	; () banked
  2852   002DF8  6F6C               	movwf	(efgtoa@d+1)& (0+255),b
  2853   002DFA  0E09               	movlw	9
  2854   002DFC  6F6B               	movwf	efgtoa@d& (0+255),b
  2855   002DFE                     l1137:
  2856                           
  2857                           ;C:\Program Files\Microchip\xc8\v2.40\pic\sources\c99\common\doprnt.c: 711:   {;C:\Progr
      +                          am Files\Microchip\xc8\v2.40\pic\sources\c99\common\doprnt.c: 712:             if (!pp &
      +                          & (ne < 0)) {
  2858   002DFE  0105               	movlb	5	; () banked
  2859   002E00  5168               	movf	efgtoa@pp& (0+255),w,b
  2860   002E02  A4D8               	btfss	status,2,c
  2861   002E04  EF06  F017         	goto	u3551
  2862   002E08  EF08  F017         	goto	u3550
  2863   002E0C                     u3551:
  2864   002E0C  EF30  F017         	goto	l3696
  2865   002E10                     u3550:
  2866   002E10                     
  2867                           ; BSR set to: 5
  2868   002E10  BF61               	btfsc	(efgtoa@ne+1)& (0+255),7,b
  2869   002E12  EF0F  F017         	goto	u3560
  2870   002E16  EF0D  F017         	goto	u3561
  2871   002E1A                     u3561:
  2872   002E1A  EF30  F017         	goto	l3696
  2873   002E1E                     u3560:
  2874   002E1E                     
  2875                           ; BSR set to: 5
  2876                           ;C:\Program Files\Microchip\xc8\v2.40\pic\sources\c99\common\doprnt.c: 713:             
      +                              dbuf[n++] = '.';
  2877   002E1E  0E00               	movlw	low _dbuf
  2878   002E20  2586               	addwf	efgtoa@n& (0+255),w,b
  2879   002E22  6ED9               	movwf	fsr2l,c
  2880   002E24  0E06               	movlw	high _dbuf
  2881   002E26  2187               	addwfc	(efgtoa@n+1)& (0+255),w,b
  2882   002E28  6EDA               	movwf	fsr2h,c
  2883   002E2A  0E2E               	movlw	46
  2884   002E2C  6EDF               	movwf	indf2,c
  2885   002E2E                     
  2886                           ; BSR set to: 5
  2887   002E2E  4B86               	infsnz	efgtoa@n& (0+255),f,b
  2888   002E30  2B87               	incf	(efgtoa@n+1)& (0+255),f,b
  2889   002E32                     
  2890                           ; BSR set to: 5
  2891                           ;C:\Program Files\Microchip\xc8\v2.40\pic\sources\c99\common\doprnt.c: 714:             
      +                              --w;
  2892   002E32  0771               	decf	efgtoa@w& (0+255),f,b
  2893   002E34  A0D8               	btfss	status,0,c
  2894   002E36  0772               	decf	(efgtoa@w+1)& (0+255),f,b
  2895   002E38                     
  2896                           ; BSR set to: 5
  2897                           ;C:\Program Files\Microchip\xc8\v2.40\pic\sources\c99\common\doprnt.c: 715:             
      +                              pp = 1;
  2898   002E38  0E01               	movlw	1
  2899   002E3A  6F68               	movwf	efgtoa@pp& (0+255),b
  2900   002E3C  EF30  F017         	goto	l3696
  2901   002E40                     l3688:
  2902                           
  2903                           ; BSR set to: 5
  2904                           ;C:\Program Files\Microchip\xc8\v2.40\pic\sources\c99\common\doprnt.c: 718:             
      +                              dbuf[n++] = '0';
  2905   002E40  0E00               	movlw	low _dbuf
  2906   002E42  2586               	addwf	efgtoa@n& (0+255),w,b
  2907   002E44  6ED9               	movwf	fsr2l,c
  2908   002E46  0E06               	movlw	high _dbuf
  2909   002E48  2187               	addwfc	(efgtoa@n+1)& (0+255),w,b
  2910   002E4A  6EDA               	movwf	fsr2h,c
  2911   002E4C  0E30               	movlw	48
  2912   002E4E  6EDF               	movwf	indf2,c
  2913   002E50                     
  2914                           ; BSR set to: 5
  2915   002E50  4B86               	infsnz	efgtoa@n& (0+255),f,b
  2916   002E52  2B87               	incf	(efgtoa@n+1)& (0+255),f,b
  2917   002E54                     
  2918                           ; BSR set to: 5
  2919                           ;C:\Program Files\Microchip\xc8\v2.40\pic\sources\c99\common\doprnt.c: 719:             
      +                              --w;
  2920   002E54  0771               	decf	efgtoa@w& (0+255),f,b
  2921   002E56  A0D8               	btfss	status,0,c
  2922   002E58  0772               	decf	(efgtoa@w+1)& (0+255),f,b
  2923   002E5A                     
  2924                           ; BSR set to: 5
  2925                           ;C:\Program Files\Microchip\xc8\v2.40\pic\sources\c99\common\doprnt.c: 720:             
      +                              --t;
  2926   002E5A  0764               	decf	efgtoa@t& (0+255),f,b
  2927   002E5C  A0D8               	btfss	status,0,c
  2928   002E5E  0765               	decf	(efgtoa@t+1)& (0+255),f,b
  2929   002E60                     l3696:
  2930                           
  2931                           ; BSR set to: 5
  2932                           ;C:\Program Files\Microchip\xc8\v2.40\pic\sources\c99\common\doprnt.c: 717:             
      +                          while (t) {
  2933   002E60  5164               	movf	efgtoa@t& (0+255),w,b
  2934   002E62  1165               	iorwf	(efgtoa@t+1)& (0+255),w,b
  2935   002E64  A4D8               	btfss	status,2,c
  2936   002E66  EF37  F017         	goto	u3571
  2937   002E6A  EF39  F017         	goto	u3570
  2938   002E6E                     u3571:
  2939   002E6E  EF20  F017         	goto	l3688
  2940   002E72                     u3570:
  2941   002E72                     
  2942                           ; BSR set to: 5
  2943                           ;C:\Program Files\Microchip\xc8\v2.40\pic\sources\c99\common\doprnt.c: 722:             
      +                          dbuf[n++] = (char)((int)'0' + d);
  2944   002E72  0E00               	movlw	low _dbuf
  2945   002E74  2586               	addwf	efgtoa@n& (0+255),w,b
  2946   002E76  6ED9               	movwf	fsr2l,c
  2947   002E78  0E06               	movlw	high _dbuf
  2948   002E7A  2187               	addwfc	(efgtoa@n+1)& (0+255),w,b
  2949   002E7C  6EDA               	movwf	fsr2h,c
  2950   002E7E  516B               	movf	efgtoa@d& (0+255),w,b
  2951   002E80  0F30               	addlw	48
  2952   002E82  6EDF               	movwf	indf2,c
  2953   002E84                     
  2954                           ; BSR set to: 5
  2955   002E84  4B86               	infsnz	efgtoa@n& (0+255),f,b
  2956   002E86  2B87               	incf	(efgtoa@n+1)& (0+255),f,b
  2957   002E88                     
  2958                           ; BSR set to: 5
  2959                           ;C:\Program Files\Microchip\xc8\v2.40\pic\sources\c99\common\doprnt.c: 723:             
      +                          --w;
  2960   002E88  0771               	decf	efgtoa@w& (0+255),f,b
  2961   002E8A  A0D8               	btfss	status,0,c
  2962   002E8C  0772               	decf	(efgtoa@w+1)& (0+255),f,b
  2963   002E8E                     
  2964                           ; BSR set to: 5
  2965                           ;C:\Program Files\Microchip\xc8\v2.40\pic\sources\c99\common\doprnt.c: 724:         };C:
      +                          \Program Files\Microchip\xc8\v2.40\pic\sources\c99\common\doprnt.c: 725:         h -= l*
      +                          u.f;
  2966   002E8E  C577  F528         	movff	efgtoa@h,___flsub@b
  2967   002E92  C578  F529         	movff	efgtoa@h+1,___flsub@b+1
  2968   002E96  C579  F52A         	movff	efgtoa@h+2,___flsub@b+2
  2969   002E9A  C57A  F52B         	movff	efgtoa@h+3,___flsub@b+3
  2970   002E9E  C57B  F513         	movff	efgtoa@l,___flmul@a
  2971   002EA2  C57C  F514         	movff	efgtoa@l+1,___flmul@a+1
  2972   002EA6  C57D  F515         	movff	efgtoa@l+2,___flmul@a+2
  2973   002EAA  C57E  F516         	movff	efgtoa@l+3,___flmul@a+3
  2974   002EAE  C588  F50F         	movff	efgtoa@u,___flmul@b
  2975   002EB2  C589  F510         	movff	efgtoa@u+1,___flmul@b+1
  2976   002EB6  C58A  F511         	movff	efgtoa@u+2,___flmul@b+2
  2977   002EBA  C58B  F512         	movff	efgtoa@u+3,___flmul@b+3
  2978   002EBE  ECA4  F01A         	call	___flmul	;wreg free
  2979   002EC2  C50F  F52C         	movff	?___flmul,___flsub@a
  2980   002EC6  C510  F52D         	movff	?___flmul+1,___flsub@a+1
  2981   002ECA  C511  F52E         	movff	?___flmul+2,___flsub@a+2
  2982   002ECE  C512  F52F         	movff	?___flmul+3,___flsub@a+3
  2983   002ED2  ECA5  F027         	call	___flsub	;wreg free
  2984   002ED6  C528  F577         	movff	?___flsub,efgtoa@h
  2985   002EDA  C529  F578         	movff	?___flsub+1,efgtoa@h+1
  2986   002EDE  C52A  F579         	movff	?___flsub+2,efgtoa@h+2
  2987   002EE2  C52B  F57A         	movff	?___flsub+3,efgtoa@h+3
  2988   002EE6                     
  2989                           ;C:\Program Files\Microchip\xc8\v2.40\pic\sources\c99\common\doprnt.c: 726:         u.f 
      +                          = u.f/10.0;
  2990   002EE6  C588  F501         	movff	efgtoa@u,___fldiv@b
  2991   002EEA  C589  F502         	movff	efgtoa@u+1,___fldiv@b+1
  2992   002EEE  C58A  F503         	movff	efgtoa@u+2,___fldiv@b+2
  2993   002EF2  C58B  F504         	movff	efgtoa@u+3,___fldiv@b+3
  2994   002EF6  0E00               	movlw	0
  2995   002EF8  6E05               	movwf	___fldiv@a^(0+1280),c
  2996   002EFA  0E00               	movlw	0
  2997   002EFC  6E06               	movwf	(___fldiv@a+1)^(0+1280),c
  2998   002EFE  0E20               	movlw	32
  2999   002F00  6E07               	movwf	(___fldiv@a+2)^(0+1280),c
  3000   002F02  0E41               	movlw	65
  3001   002F04  6E08               	movwf	(___fldiv@a+3)^(0+1280),c
  3002   002F06  EC92  F01E         	call	___fldiv	;wreg free
  3003   002F0A  C501  F588         	movff	?___fldiv,efgtoa@u
  3004   002F0E  C502  F589         	movff	?___fldiv+1,efgtoa@u+1
  3005   002F12  C503  F58A         	movff	?___fldiv+2,efgtoa@u+2
  3006   002F16  C504  F58B         	movff	?___fldiv+3,efgtoa@u+3
  3007   002F1A                     
  3008                           ;C:\Program Files\Microchip\xc8\v2.40\pic\sources\c99\common\doprnt.c: 727:         --ne
      +                          ;
  3009   002F1A  0105               	movlb	5	; () banked
  3010   002F1C  0760               	decf	efgtoa@ne& (0+255),f,b
  3011   002F1E  A0D8               	btfss	status,0,c
  3012   002F20  0761               	decf	(efgtoa@ne+1)& (0+255),f,b
  3013   002F22                     
  3014                           ; BSR set to: 5
  3015                           ;C:\Program Files\Microchip\xc8\v2.40\pic\sources\c99\common\doprnt.c: 728:         ++i;
  3016   002F22  4B7F               	infsnz	efgtoa@i& (0+255),f,b
  3017   002F24  2B80               	incf	(efgtoa@i+1)& (0+255),f,b
  3018   002F26                     l3712:
  3019                           
  3020                           ; BSR set to: 5
  3021                           ;C:\Program Files\Microchip\xc8\v2.40\pic\sources\c99\common\doprnt.c: 698:     while ((
      +                          i < m) && (n < (80 - 5))) {
  3022   002F26  516D               	movf	efgtoa@m& (0+255),w,b
  3023   002F28  5D7F               	subwf	efgtoa@i& (0+255),w,b
  3024   002F2A  5180               	movf	(efgtoa@i+1)& (0+255),w,b
  3025   002F2C  0A80               	xorlw	128
  3026   002F2E  6E3B               	movwf	??_efgtoa^(0+1280),c
  3027   002F30  516E               	movf	(efgtoa@m+1)& (0+255),w,b
  3028   002F32  0A80               	xorlw	128
  3029   002F34  583B               	subwfb	??_efgtoa^(0+1280),w,c
  3030   002F36  B0D8               	btfsc	status,0,c
  3031   002F38  EFA0  F017         	goto	u3581
  3032   002F3C  EFA2  F017         	goto	u3580
  3033   002F40                     u3581:
  3034   002F40  EFB0  F017         	goto	l3716
  3035   002F44                     u3580:
  3036   002F44                     
  3037                           ; BSR set to: 5
  3038   002F44  BF87               	btfsc	(efgtoa@n+1)& (0+255),7,b
  3039   002F46  EFAE  F017         	goto	u3591
  3040   002F4A  5187               	movf	(efgtoa@n+1)& (0+255),w,b
  3041   002F4C  E109               	bnz	u3590
  3042   002F4E  0E4B               	movlw	75
  3043   002F50  5D86               	subwf	efgtoa@n& (0+255),w,b
  3044   002F52  A0D8               	btfss	status,0,c
  3045   002F54  EFAE  F017         	goto	u3591
  3046   002F58  EFB0  F017         	goto	u3590
  3047   002F5C                     u3591:
  3048   002F5C  EFAE  F016         	goto	l3672
  3049   002F60                     u3590:
  3050   002F60                     l3716:
  3051                           
  3052                           ; BSR set to: 5
  3053                           ;C:\Program Files\Microchip\xc8\v2.40\pic\sources\c99\common\doprnt.c: 735:  i = sizeof(
      +                          dbuf) - 1;
  3054   002F60  0E00               	movlw	0
  3055   002F62  6F80               	movwf	(efgtoa@i+1)& (0+255),b
  3056   002F64  0E4F               	movlw	79
  3057   002F66  6F7F               	movwf	efgtoa@i& (0+255),b
  3058   002F68                     
  3059                           ; BSR set to: 5
  3060                           ;C:\Program Files\Microchip\xc8\v2.40\pic\sources\c99\common\doprnt.c: 736:     dbuf[i] 
      +                          = '\0';
  3061   002F68  0E00               	movlw	low _dbuf
  3062   002F6A  257F               	addwf	efgtoa@i& (0+255),w,b
  3063   002F6C  6ED9               	movwf	fsr2l,c
  3064   002F6E  0E06               	movlw	high _dbuf
  3065   002F70  2180               	addwfc	(efgtoa@i+1)& (0+255),w,b
  3066   002F72  6EDA               	movwf	fsr2h,c
  3067   002F74  0E00               	movlw	0
  3068   002F76  6EDF               	movwf	indf2,c
  3069   002F78                     
  3070                           ; BSR set to: 5
  3071                           ;C:\Program Files\Microchip\xc8\v2.40\pic\sources\c99\common\doprnt.c: 767:  memcpy(&dbu
      +                          f[i-n], &dbuf[0], (size_t)n);
  3072   002F78  0E00               	movlw	low _dbuf
  3073   002F7A  6E3B               	movwf	??_efgtoa^(0+1280),c
  3074   002F7C  0E06               	movlw	high _dbuf
  3075   002F7E  6E3C               	movwf	(??_efgtoa+1)^(0+1280),c
  3076   002F80  5186               	movf	efgtoa@n& (0+255),w,b
  3077   002F82  5E3B               	subwf	??_efgtoa^(0+1280),f,c
  3078   002F84  5187               	movf	(efgtoa@n+1)& (0+255),w,b
  3079   002F86  5A3C               	subwfb	(??_efgtoa+1)^(0+1280),f,c
  3080   002F88  517F               	movf	efgtoa@i& (0+255),w,b
  3081   002F8A  243B               	addwf	??_efgtoa^(0+1280),w,c
  3082   002F8C  6E01               	movwf	memcpy@d1^(0+1280),c
  3083   002F8E  5180               	movf	(efgtoa@i+1)& (0+255),w,b
  3084   002F90  203C               	addwfc	(??_efgtoa+1)^(0+1280),w,c
  3085   002F92  6E02               	movwf	(memcpy@d1+1)^(0+1280),c
  3086   002F94  0E00               	movlw	low _dbuf
  3087   002F96  6E03               	movwf	memcpy@s1^(0+1280),c
  3088   002F98  0E06               	movlw	high _dbuf
  3089   002F9A  6E04               	movwf	(memcpy@s1+1)^(0+1280),c
  3090   002F9C  C586  F505         	movff	efgtoa@n,memcpy@n
  3091   002FA0  C587  F506         	movff	efgtoa@n+1,memcpy@n+1
  3092   002FA4  EC7D  F027         	call	_memcpy	;wreg free
  3093   002FA8                     
  3094                           ;C:\Program Files\Microchip\xc8\v2.40\pic\sources\c99\common\doprnt.c: 768:  n = i-n;
  3095   002FA8  0105               	movlb	5	; () banked
  3096   002FAA  5186               	movf	efgtoa@n& (0+255),w,b
  3097   002FAC  5D7F               	subwf	efgtoa@i& (0+255),w,b
  3098   002FAE  6F86               	movwf	efgtoa@n& (0+255),b
  3099   002FB0  5187               	movf	(efgtoa@n+1)& (0+255),w,b
  3100   002FB2  5980               	subwfb	(efgtoa@i+1)& (0+255),w,b
  3101   002FB4  6F87               	movwf	(efgtoa@n+1)& (0+255),b
  3102   002FB6                     
  3103                           ; BSR set to: 5
  3104                           ;C:\Program Files\Microchip\xc8\v2.40\pic\sources\c99\common\doprnt.c: 769:  i = sign ==
      +                           0 ? 0 : 1;
  3105   002FB6  5181               	movf	efgtoa@sign& (0+255),w,b
  3106   002FB8  A4D8               	btfss	status,2,c
  3107   002FBA  EFE1  F017         	goto	u3601
  3108   002FBE  EFE4  F017         	goto	u3600
  3109   002FC2                     u3601:
  3110   002FC2  0E01               	movlw	1
  3111   002FC4  EFE5  F017         	goto	u3610
  3112   002FC8                     u3600:
  3113   002FC8  0E00               	movlw	0
  3114   002FCA                     u3610:
  3115   002FCA  6F7F               	movwf	efgtoa@i& (0+255),b
  3116   002FCC  6B80               	clrf	(efgtoa@i+1)& (0+255),b
  3117   002FCE                     
  3118                           ; BSR set to: 5
  3119                           ;C:\Program Files\Microchip\xc8\v2.40\pic\sources\c99\common\doprnt.c: 772:  if (flags &
      +                           (1 << 1)) {
  3120   002FCE  A25E               	btfss	_flags^(0+1280),1,c
  3121   002FD0  EFEC  F017         	goto	u3621
  3122   002FD4  EFEE  F017         	goto	u3620
  3123   002FD8                     u3621:
  3124   002FD8  EF1C  F018         	goto	l3738
  3125   002FDC                     u3620:
  3126   002FDC  EFFE  F017         	goto	l3734
  3127   002FE0                     l3730:
  3128                           
  3129                           ; BSR set to: 5
  3130                           ;C:\Program Files\Microchip\xc8\v2.40\pic\sources\c99\common\doprnt.c: 774:    dbuf[--n]
      +                           = '0';
  3131   002FE0  0786               	decf	efgtoa@n& (0+255),f,b
  3132   002FE2  A0D8               	btfss	status,0,c
  3133   002FE4  0787               	decf	(efgtoa@n+1)& (0+255),f,b
  3134   002FE6  0E00               	movlw	low _dbuf
  3135   002FE8  2586               	addwf	efgtoa@n& (0+255),w,b
  3136   002FEA  6ED9               	movwf	fsr2l,c
  3137   002FEC  0E06               	movlw	high _dbuf
  3138   002FEE  2187               	addwfc	(efgtoa@n+1)& (0+255),w,b
  3139   002FF0  6EDA               	movwf	fsr2h,c
  3140   002FF2  0E30               	movlw	48
  3141   002FF4  6EDF               	movwf	indf2,c
  3142   002FF6                     
  3143                           ; BSR set to: 5
  3144                           ;C:\Program Files\Microchip\xc8\v2.40\pic\sources\c99\common\doprnt.c: 775:    w--;
  3145   002FF6  0771               	decf	efgtoa@w& (0+255),f,b
  3146   002FF8  A0D8               	btfss	status,0,c
  3147   002FFA  0772               	decf	(efgtoa@w+1)& (0+255),f,b
  3148   002FFC                     l3734:
  3149                           
  3150                           ; BSR set to: 5
  3151                           ;C:\Program Files\Microchip\xc8\v2.40\pic\sources\c99\common\doprnt.c: 773:   while (w >
      +                           i && n > i) {
  3152   002FFC  5171               	movf	efgtoa@w& (0+255),w,b
  3153   002FFE  5D7F               	subwf	efgtoa@i& (0+255),w,b
  3154   003000  5180               	movf	(efgtoa@i+1)& (0+255),w,b
  3155   003002  0A80               	xorlw	128
  3156   003004  6E3B               	movwf	??_efgtoa^(0+1280),c
  3157   003006  5172               	movf	(efgtoa@w+1)& (0+255),w,b
  3158   003008  0A80               	xorlw	128
  3159   00300A  583B               	subwfb	??_efgtoa^(0+1280),w,c
  3160   00300C  B0D8               	btfsc	status,0,c
  3161   00300E  EF0B  F018         	goto	u3631
  3162   003012  EF0D  F018         	goto	u3630
  3163   003016                     u3631:
  3164   003016  EF1C  F018         	goto	l3738
  3165   00301A                     u3630:
  3166   00301A                     
  3167                           ; BSR set to: 5
  3168   00301A  5186               	movf	efgtoa@n& (0+255),w,b
  3169   00301C  5D7F               	subwf	efgtoa@i& (0+255),w,b
  3170   00301E  5180               	movf	(efgtoa@i+1)& (0+255),w,b
  3171   003020  0A80               	xorlw	128
  3172   003022  6E3B               	movwf	??_efgtoa^(0+1280),c
  3173   003024  5187               	movf	(efgtoa@n+1)& (0+255),w,b
  3174   003026  0A80               	xorlw	128
  3175   003028  583B               	subwfb	??_efgtoa^(0+1280),w,c
  3176   00302A  A0D8               	btfss	status,0,c
  3177   00302C  EF1A  F018         	goto	u3641
  3178   003030  EF1C  F018         	goto	u3640
  3179   003034                     u3641:
  3180   003034  EFF0  F017         	goto	l3730
  3181   003038                     u3640:
  3182   003038                     l3738:
  3183                           
  3184                           ; BSR set to: 5
  3185                           ;C:\Program Files\Microchip\xc8\v2.40\pic\sources\c99\common\doprnt.c: 780:  if (sign) {
  3186   003038  5181               	movf	efgtoa@sign& (0+255),w,b
  3187   00303A  B4D8               	btfsc	status,2,c
  3188   00303C  EF22  F018         	goto	u3651
  3189   003040  EF24  F018         	goto	u3650
  3190   003044                     u3651:
  3191   003044  EF2F  F018         	goto	l3742
  3192   003048                     u3650:
  3193   003048                     
  3194                           ; BSR set to: 5
  3195                           ;C:\Program Files\Microchip\xc8\v2.40\pic\sources\c99\common\doprnt.c: 781:   dbuf[--n] 
      +                          = sign;
  3196   003048  0786               	decf	efgtoa@n& (0+255),f,b
  3197   00304A  A0D8               	btfss	status,0,c
  3198   00304C  0787               	decf	(efgtoa@n+1)& (0+255),f,b
  3199   00304E  0E00               	movlw	low _dbuf
  3200   003050  2586               	addwf	efgtoa@n& (0+255),w,b
  3201   003052  6ED9               	movwf	fsr2l,c
  3202   003054  0E06               	movlw	high _dbuf
  3203   003056  2187               	addwfc	(efgtoa@n+1)& (0+255),w,b
  3204   003058  6EDA               	movwf	fsr2h,c
  3205   00305A  C581  F4DF         	movff	efgtoa@sign,indf2
  3206   00305E                     l3742:
  3207                           
  3208                           ; BSR set to: 5
  3209                           ;C:\Program Files\Microchip\xc8\v2.40\pic\sources\c99\common\doprnt.c: 783:  w -= i;
  3210   00305E  517F               	movf	efgtoa@i& (0+255),w,b
  3211   003060  5F71               	subwf	efgtoa@w& (0+255),f,b
  3212   003062  5180               	movf	(efgtoa@i+1)& (0+255),w,b
  3213   003064  5B72               	subwfb	(efgtoa@w+1)& (0+255),f,b
  3214   003066                     
  3215                           ; BSR set to: 5
  3216                           ;C:\Program Files\Microchip\xc8\v2.40\pic\sources\c99\common\doprnt.c: 786:     return (
      +                          void) pad(fp, &dbuf[n], w);
  3217   003066  C534  F513         	movff	efgtoa@fp,pad@fp
  3218   00306A  C535  F514         	movff	efgtoa@fp+1,pad@fp+1
  3219   00306E  0E00               	movlw	low _dbuf
  3220   003070  2586               	addwf	efgtoa@n& (0+255),w,b
  3221   003072  6E15               	movwf	pad@buf^(0+1280),c
  3222   003074  0E06               	movlw	high _dbuf
  3223   003076  2187               	addwfc	(efgtoa@n+1)& (0+255),w,b
  3224   003078  6E16               	movwf	(pad@buf+1)^(0+1280),c
  3225   00307A  C571  F517         	movff	efgtoa@w,pad@p
  3226   00307E  C572  F518         	movff	efgtoa@w+1,pad@p+1
  3227   003082  EC7F  F026         	call	_pad	;wreg free
  3228   003086                     l1104:
  3229   003086  0012               	return		;funcret
  3230   003088                     __end_of_efgtoa:
  3231                           	callstack 0
  3232                           
  3233 ;; *************** function _strcpy *****************
  3234 ;; Defined at:
  3235 ;;		line 3 in file "C:\Program Files\Microchip\xc8\v2.40\pic\sources\c99\common\strcpy.c"
  3236 ;; Parameters:    Size  Location     Type
  3237 ;;  dest            2    0[COMRAM] PTR unsigned char 
  3238 ;;		 -> dbuf(80), 
  3239 ;;  src             2    2[COMRAM] PTR const unsigned char 
  3240 ;;		 -> STR_5(4), STR_2(4), 
  3241 ;; Auto vars:     Size  Location     Type
  3242 ;;  d               2    6[COMRAM] PTR unsigned char 
  3243 ;;		 -> dbuf(80), 
  3244 ;;  s               2    4[COMRAM] PTR const unsigned char 
  3245 ;;		 -> STR_5(4), STR_2(4), 
  3246 ;; Return value:  Size  Location     Type
  3247 ;;                  2    0[COMRAM] PTR unsigned char 
  3248 ;; Registers used:
  3249 ;;		wreg, fsr2l, fsr2h, status,2, status,0, tblptrl, tblptrh, tblptru
  3250 ;; Tracked objects:
  3251 ;;		On entry : 0/0
  3252 ;;		On exit  : 0/0
  3253 ;;		Unchanged: 0/0
  3254 ;; Data sizes:     COMRAM   BANK5   BANK6   BANK7   BANK8   BANK9  BANK10  BANK11  BANK12  BANK13  BANK14  BANK15  BANK1
      +6  BANK17  BANK18  BANK19  BANK20  BANK21  BANK22  BANK23  BANK24  BANK25  BANK26  BANK27  BANK28  BANK29  BANK30  BANK3
      +1  BANK32  BANK33  BANK34  BANK35  BANK36
  3255 ;;      Params:         4       0       0       0       0       0       0       0       0       0       0       0       
      +0       0       0       0       0       0       0       0       0       0       0       0       0       0       0       
      +0       0       0       0       0       0
  3256 ;;      Locals:         4       0       0       0       0       0       0       0       0       0       0       0       
      +0       0       0       0       0       0       0       0       0       0       0       0       0       0       0       
      +0       0       0       0       0       0
  3257 ;;      Temps:          0       0       0       0       0       0       0       0       0       0       0       0       
      +0       0       0       0       0       0       0       0       0       0       0       0       0       0       0       
      +0       0       0       0       0       0
  3258 ;;      Totals:         8       0       0       0       0       0       0       0       0       0       0       0       
      +0       0       0       0       0       0       0       0       0       0       0       0       0       0       0       
      +0       0       0       0       0       0
  3259 ;;Total ram usage:        8 bytes
  3260 ;; Hardware stack levels used: 1
  3261 ;; This function calls:
  3262 ;;		Nothing
  3263 ;; This function is called by:
  3264 ;;		_efgtoa
  3265 ;; This function uses a non-reentrant model
  3266 ;;
  3267                           
  3268                           	psect	text5
  3269   004FD6                     __ptext5:
  3270                           	callstack 0
  3271   004FD6                     _strcpy:
  3272                           	callstack 122
  3273   004FD6  C503  F505         	movff	strcpy@src,strcpy@s
  3274   004FDA  C504  F506         	movff	strcpy@src+1,strcpy@s+1
  3275   004FDE  C501  F507         	movff	strcpy@dest,strcpy@d
  3276   004FE2  C502  F508         	movff	strcpy@dest+1,strcpy@d+1
  3277   004FE6                     l3452:
  3278   004FE6  C505  F4F6         	movff	strcpy@s,tblptrl
  3279   004FEA  C506  F4F7         	movff	strcpy@s+1,tblptrh
  3280   004FEE  4A05               	infsnz	strcpy@s^(0+1280),f,c
  3281   004FF0  2A06               	incf	(strcpy@s+1)^(0+1280),f,c
  3282   004FF2                     	if	0	;tblptru may be non-zero
  3283   004FF2                     	endif
  3284   004FF2                     	if	1	;Program memory is > 0xFFFF, there are 3 active tblptr bytes
  3285   004FF2  0E00               	movlw	low (__mediumconst shr (0+16))
  3286   004FF4  6EF8               	movwf	tblptru,c
  3287   004FF6                     	endif
  3288   004FF6  C507  F4D9         	movff	strcpy@d,fsr2l
  3289   004FFA  C508  F4DA         	movff	strcpy@d+1,fsr2h
  3290   004FFE  4A07               	infsnz	strcpy@d^(0+1280),f,c
  3291   005000  2A08               	incf	(strcpy@d+1)^(0+1280),f,c
  3292   005002  0008               	tblrd		*
  3293   005004  C4F5 F4DF          	movff	tablat,indf2
  3294   005008  50DF               	movf	indf2,w,c
  3295   00500A  A4D8               	btfss	status,2,c
  3296   00500C  EF0A  F028         	goto	u3141
  3297   005010  EF0C  F028         	goto	u3140
  3298   005014                     u3141:
  3299   005014  EFF3  F027         	goto	l3452
  3300   005018                     u3140:
  3301   005018  0012               	return		;funcret
  3302   00501A                     __end_of_strcpy:
  3303                           	callstack 0
  3304                           
  3305 ;; *************** function _pad *****************
  3306 ;; Defined at:
  3307 ;;		line 133 in file "C:\Program Files\Microchip\xc8\v2.40\pic\sources\c99\common\doprnt.c"
  3308 ;; Parameters:    Size  Location     Type
  3309 ;;  fp              2   18[COMRAM] PTR struct _IO_FILE
  3310 ;;		 -> sprintf@f(11), 
  3311 ;;  buf             2   20[COMRAM] PTR unsigned char 
  3312 ;;		 -> dbuf(80), 
  3313 ;;  p               2   22[COMRAM] int 
  3314 ;; Auto vars:     Size  Location     Type
  3315 ;;  w               2   27[COMRAM] int 
  3316 ;;  i               2   25[COMRAM] int 
  3317 ;; Return value:  Size  Location     Type
  3318 ;;                  1    wreg      void 
  3319 ;; Registers used:
  3320 ;;		wreg, fsr1l, fsr1h, fsr2l, fsr2h, status,2, status,0, cstack
  3321 ;; Tracked objects:
  3322 ;;		On entry : 0/0
  3323 ;;		On exit  : 0/0
  3324 ;;		Unchanged: 0/0
  3325 ;; Data sizes:     COMRAM   BANK5   BANK6   BANK7   BANK8   BANK9  BANK10  BANK11  BANK12  BANK13  BANK14  BANK15  BANK1
      +6  BANK17  BANK18  BANK19  BANK20  BANK21  BANK22  BANK23  BANK24  BANK25  BANK26  BANK27  BANK28  BANK29  BANK30  BANK3
      +1  BANK32  BANK33  BANK34  BANK35  BANK36
  3326 ;;      Params:         6       0       0       0       0       0       0       0       0       0       0       0       
      +0       0       0       0       0       0       0       0       0       0       0       0       0       0       0       
      +0       0       0       0       0       0
  3327 ;;      Locals:         4       0       0       0       0       0       0       0       0       0       0       0       
      +0       0       0       0       0       0       0       0       0       0       0       0       0       0       0       
      +0       0       0       0       0       0
  3328 ;;      Temps:          1       0       0       0       0       0       0       0       0       0       0       0       
      +0       0       0       0       0       0       0       0       0       0       0       0       0       0       0       
      +0       0       0       0       0       0
  3329 ;;      Totals:        11       0       0       0       0       0       0       0       0       0       0       0       
      +0       0       0       0       0       0       0       0       0       0       0       0       0       0       0       
      +0       0       0       0       0       0
  3330 ;;Total ram usage:       11 bytes
  3331 ;; Hardware stack levels used: 1
  3332 ;; Hardware stack levels required when called: 4
  3333 ;; This function calls:
  3334 ;;		_fputc
  3335 ;;		_fputs
  3336 ;; This function is called by:
  3337 ;;		_efgtoa
  3338 ;; This function uses a non-reentrant model
  3339 ;;
  3340                           
  3341                           	psect	text6
  3342   004CFE                     __ptext6:
  3343                           	callstack 0
  3344   004CFE                     _pad:
  3345                           	callstack 118
  3346   004CFE                     
  3347                           ;C:\Program Files\Microchip\xc8\v2.40\pic\sources\c99\common\doprnt.c: 133: static void 
      +                          pad(FILE *fp, char *buf, int p);C:\Program Files\Microchip\xc8\v2.40\pic\sources\c99\com
      +                          mon\doprnt.c: 134: {;C:\Program Files\Microchip\xc8\v2.40\pic\sources\c99\common\doprnt.
      +                          c: 135:     int i, w;;C:\Program Files\Microchip\xc8\v2.40\pic\sources\c99\common\doprnt
      +                          .c: 145:     w = (p < 0) ? 0 : p;
  3348   004CFE  BE18               	btfsc	(pad@p+1)^(0+1280),7,c
  3349   004D00  EF84  F026         	goto	u3051
  3350   004D04  EF86  F026         	goto	u3050
  3351   004D08                     u3051:
  3352   004D08  EF8C  F026         	goto	l3418
  3353   004D0C                     u3050:
  3354   004D0C  C517  F51C         	movff	pad@p,pad@w
  3355   004D10  C518  F51D         	movff	pad@p+1,pad@w+1
  3356   004D14  EF90  F026         	goto	l1089
  3357   004D18                     l3418:
  3358   004D18  0E00               	movlw	0
  3359   004D1A  6E1D               	movwf	(pad@w+1)^(0+1280),c
  3360   004D1C  0E00               	movlw	0
  3361   004D1E  6E1C               	movwf	pad@w^(0+1280),c
  3362   004D20                     l1089:
  3363                           
  3364                           ;C:\Program Files\Microchip\xc8\v2.40\pic\sources\c99\common\doprnt.c: 146:     i = 0;
  3365   004D20  0E00               	movlw	0
  3366   004D22  6E1B               	movwf	(pad@i+1)^(0+1280),c
  3367   004D24  0E00               	movlw	0
  3368   004D26  6E1A               	movwf	pad@i^(0+1280),c
  3369                           
  3370                           ;C:\Program Files\Microchip\xc8\v2.40\pic\sources\c99\common\doprnt.c: 147:     while (i
      +                           < w) {
  3371   004D28  EFA2  F026         	goto	l3424
  3372   004D2C                     l3420:
  3373                           
  3374                           ;C:\Program Files\Microchip\xc8\v2.40\pic\sources\c99\common\doprnt.c: 148:         fput
      +                          c(' ', fp);
  3375   004D2C  0E00               	movlw	0
  3376   004D2E  6E04               	movwf	(fputc@c+1)^(0+1280),c
  3377   004D30  0E20               	movlw	32
  3378   004D32  6E03               	movwf	fputc@c^(0+1280),c
  3379   004D34  C513  F505         	movff	pad@fp,fputc@fp
  3380   004D38  C514  F506         	movff	pad@fp+1,fputc@fp+1
  3381   004D3C  EC66  F025         	call	_fputc	;wreg free
  3382   004D40                     
  3383                           ;C:\Program Files\Microchip\xc8\v2.40\pic\sources\c99\common\doprnt.c: 149:         ++i;
  3384   004D40  4A1A               	infsnz	pad@i^(0+1280),f,c
  3385   004D42  2A1B               	incf	(pad@i+1)^(0+1280),f,c
  3386   004D44                     l3424:
  3387                           
  3388                           ;C:\Program Files\Microchip\xc8\v2.40\pic\sources\c99\common\doprnt.c: 147:     while (i
      +                           < w) {
  3389   004D44  501C               	movf	pad@w^(0+1280),w,c
  3390   004D46  5C1A               	subwf	pad@i^(0+1280),w,c
  3391   004D48  501B               	movf	(pad@i+1)^(0+1280),w,c
  3392   004D4A  0A80               	xorlw	128
  3393   004D4C  6E19               	movwf	??_pad^(0+1280),c
  3394   004D4E  501D               	movf	(pad@w+1)^(0+1280),w,c
  3395   004D50  0A80               	xorlw	128
  3396   004D52  5819               	subwfb	??_pad^(0+1280),w,c
  3397   004D54  A0D8               	btfss	status,0,c
  3398   004D56  EFAF  F026         	goto	u3061
  3399   004D5A  EFB1  F026         	goto	u3060
  3400   004D5E                     u3061:
  3401   004D5E  EF96  F026         	goto	l3420
  3402   004D62                     u3060:
  3403   004D62                     
  3404                           ;C:\Program Files\Microchip\xc8\v2.40\pic\sources\c99\common\doprnt.c: 156:         fput
      +                          s((const char *)buf, fp);
  3405   004D62  C515  F50C         	movff	pad@buf,fputs@s
  3406   004D66  C516  F50D         	movff	pad@buf+1,fputs@s+1
  3407   004D6A  C513  F50E         	movff	pad@fp,fputs@fp
  3408   004D6E  C514  F50F         	movff	pad@fp+1,fputs@fp+1
  3409   004D72  EC0D  F028         	call	_fputs	;wreg free
  3410   004D76  0012               	return		;funcret
  3411   004D78                     __end_of_pad:
  3412                           	callstack 0
  3413                           
  3414 ;; *************** function _fputs *****************
  3415 ;; Defined at:
  3416 ;;		line 8 in file "C:\Program Files\Microchip\xc8\v2.40\pic\sources\c99\common\nf_fputs.c"
  3417 ;; Parameters:    Size  Location     Type
  3418 ;;  s               2   11[COMRAM] PTR const unsigned char 
  3419 ;;		 -> dbuf(80), 
  3420 ;;  fp              2   13[COMRAM] PTR struct _IO_FILE
  3421 ;;		 -> sprintf@f(11), 
  3422 ;; Auto vars:     Size  Location     Type
  3423 ;;  i               2   16[COMRAM] int 
  3424 ;;  c               1   15[COMRAM] unsigned char 
  3425 ;; Return value:  Size  Location     Type
  3426 ;;                  2   11[COMRAM] int 
  3427 ;; Registers used:
  3428 ;;		wreg, fsr1l, fsr1h, fsr2l, fsr2h, status,2, status,0, cstack
  3429 ;; Tracked objects:
  3430 ;;		On entry : 0/0
  3431 ;;		On exit  : 0/0
  3432 ;;		Unchanged: 0/0
  3433 ;; Data sizes:     COMRAM   BANK5   BANK6   BANK7   BANK8   BANK9  BANK10  BANK11  BANK12  BANK13  BANK14  BANK15  BANK1
      +6  BANK17  BANK18  BANK19  BANK20  BANK21  BANK22  BANK23  BANK24  BANK25  BANK26  BANK27  BANK28  BANK29  BANK30  BANK3
      +1  BANK32  BANK33  BANK34  BANK35  BANK36
  3434 ;;      Params:         4       0       0       0       0       0       0       0       0       0       0       0       
      +0       0       0       0       0       0       0       0       0       0       0       0       0       0       0       
      +0       0       0       0       0       0
  3435 ;;      Locals:         3       0       0       0       0       0       0       0       0       0       0       0       
      +0       0       0       0       0       0       0       0       0       0       0       0       0       0       0       
      +0       0       0       0       0       0
  3436 ;;      Temps:          0       0       0       0       0       0       0       0       0       0       0       0       
      +0       0       0       0       0       0       0       0       0       0       0       0       0       0       0       
      +0       0       0       0       0       0
  3437 ;;      Totals:         7       0       0       0       0       0       0       0       0       0       0       0       
      +0       0       0       0       0       0       0       0       0       0       0       0       0       0       0       
      +0       0       0       0       0       0
  3438 ;;Total ram usage:        7 bytes
  3439 ;; Hardware stack levels used: 1
  3440 ;; Hardware stack levels required when called: 3
  3441 ;; This function calls:
  3442 ;;		_fputc
  3443 ;; This function is called by:
  3444 ;;		_pad
  3445 ;; This function uses a non-reentrant model
  3446 ;;
  3447                           
  3448                           	psect	text7
  3449   00501A                     __ptext7:
  3450                           	callstack 0
  3451   00501A                     _fputs:
  3452                           	callstack 118
  3453   00501A  0E00               	movlw	0
  3454   00501C  6E12               	movwf	(fputs@i+1)^(0+1280),c
  3455   00501E  0E00               	movlw	0
  3456   005020  6E11               	movwf	fputs@i^(0+1280),c
  3457   005022  EF1E  F028         	goto	l3042
  3458   005026                     l3038:
  3459   005026  C510  F503         	movff	fputs@c,fputc@c
  3460   00502A  6A04               	clrf	(fputc@c+1)^(0+1280),c
  3461   00502C  C50E  F505         	movff	fputs@fp,fputc@fp
  3462   005030  C50F  F506         	movff	fputs@fp+1,fputc@fp+1
  3463   005034  EC66  F025         	call	_fputc	;wreg free
  3464   005038  4A11               	infsnz	fputs@i^(0+1280),f,c
  3465   00503A  2A12               	incf	(fputs@i+1)^(0+1280),f,c
  3466   00503C                     l3042:
  3467   00503C  5011               	movf	fputs@i^(0+1280),w,c
  3468   00503E  240C               	addwf	fputs@s^(0+1280),w,c
  3469   005040  6ED9               	movwf	fsr2l,c
  3470   005042  5012               	movf	(fputs@i+1)^(0+1280),w,c
  3471   005044  200D               	addwfc	(fputs@s+1)^(0+1280),w,c
  3472   005046  6EDA               	movwf	fsr2h,c
  3473   005048  50DF               	movf	indf2,w,c
  3474   00504A  6E10               	movwf	fputs@c^(0+1280),c
  3475   00504C  5010               	movf	fputs@c^(0+1280),w,c
  3476   00504E  A4D8               	btfss	status,2,c
  3477   005050  EF2C  F028         	goto	u2461
  3478   005054  EF2E  F028         	goto	u2460
  3479   005058                     u2461:
  3480   005058  EF13  F028         	goto	l3038
  3481   00505C                     u2460:
  3482   00505C  0012               	return		;funcret
  3483   00505E                     __end_of_fputs:
  3484                           	callstack 0
  3485                           
  3486 ;; *************** function _fputc *****************
  3487 ;; Defined at:
  3488 ;;		line 8 in file "C:\Program Files\Microchip\xc8\v2.40\pic\sources\c99\common\nf_fputc.c"
  3489 ;; Parameters:    Size  Location     Type
  3490 ;;  c               2    2[COMRAM] int 
  3491 ;;  fp              2    4[COMRAM] PTR struct _IO_FILE
  3492 ;;		 -> sprintf@f(11), 
  3493 ;; Auto vars:     Size  Location     Type
  3494 ;;		None
  3495 ;; Return value:  Size  Location     Type
  3496 ;;                  2    2[COMRAM] int 
  3497 ;; Registers used:
  3498 ;;		wreg, fsr1l, fsr1h, fsr2l, fsr2h, status,2, status,0, cstack
  3499 ;; Tracked objects:
  3500 ;;		On entry : 0/0
  3501 ;;		On exit  : 0/0
  3502 ;;		Unchanged: 0/0
  3503 ;; Data sizes:     COMRAM   BANK5   BANK6   BANK7   BANK8   BANK9  BANK10  BANK11  BANK12  BANK13  BANK14  BANK15  BANK1
      +6  BANK17  BANK18  BANK19  BANK20  BANK21  BANK22  BANK23  BANK24  BANK25  BANK26  BANK27  BANK28  BANK29  BANK30  BANK3
      +1  BANK32  BANK33  BANK34  BANK35  BANK36
  3504 ;;      Params:         4       0       0       0       0       0       0       0       0       0       0       0       
      +0       0       0       0       0       0       0       0       0       0       0       0       0       0       0       
      +0       0       0       0       0       0
  3505 ;;      Locals:         0       0       0       0       0       0       0       0       0       0       0       0       
      +0       0       0       0       0       0       0       0       0       0       0       0       0       0       0       
      +0       0       0       0       0       0
  3506 ;;      Temps:          5       0       0       0       0       0       0       0       0       0       0       0       
      +0       0       0       0       0       0       0       0       0       0       0       0       0       0       0       
      +0       0       0       0       0       0
  3507 ;;      Totals:         9       0       0       0       0       0       0       0       0       0       0       0       
      +0       0       0       0       0       0       0       0       0       0       0       0       0       0       0       
      +0       0       0       0       0       0
  3508 ;;Total ram usage:        9 bytes
  3509 ;; Hardware stack levels used: 1
  3510 ;; Hardware stack levels required when called: 2
  3511 ;; This function calls:
  3512 ;;		_putch
  3513 ;; This function is called by:
  3514 ;;		_pad
  3515 ;;		_vfpfcnvrt
  3516 ;;		_fputs
  3517 ;; This function uses a non-reentrant model
  3518 ;;
  3519                           
  3520                           	psect	text8
  3521   004ACC                     __ptext8:
  3522                           	callstack 0
  3523   004ACC                     _fputc:
  3524                           	callstack 121
  3525   004ACC  5005               	movf	fputc@fp^(0+1280),w,c
  3526   004ACE  1006               	iorwf	(fputc@fp+1)^(0+1280),w,c
  3527   004AD0  B4D8               	btfsc	status,2,c
  3528   004AD2  EF6D  F025         	goto	u2031
  3529   004AD6  EF6F  F025         	goto	u2030
  3530   004ADA                     u2031:
  3531   004ADA  EF78  F025         	goto	l2824
  3532   004ADE                     u2030:
  3533   004ADE  5005               	movf	fputc@fp^(0+1280),w,c
  3534   004AE0  1006               	iorwf	(fputc@fp+1)^(0+1280),w,c
  3535   004AE2  A4D8               	btfss	status,2,c
  3536   004AE4  EF76  F025         	goto	u2041
  3537   004AE8  EF78  F025         	goto	u2040
  3538   004AEC                     u2041:
  3539   004AEC  EF7D  F025         	goto	l2826
  3540   004AF0                     u2040:
  3541   004AF0                     l2824:
  3542   004AF0  5003               	movf	fputc@c^(0+1280),w,c
  3543   004AF2  EC23  F029         	call	_putch
  3544   004AF6  EFCA  F025         	goto	l1280
  3545   004AFA                     l2826:
  3546   004AFA  EE20 F009          	lfsr	2,9
  3547   004AFE  5005               	movf	fputc@fp^(0+1280),w,c
  3548   004B00  26D9               	addwf	fsr2l,f,c
  3549   004B02  5006               	movf	(fputc@fp+1)^(0+1280),w,c
  3550   004B04  22DA               	addwfc	fsr2h,f,c
  3551   004B06  50DE               	movf	postinc2,w,c
  3552   004B08  10DE               	iorwf	postinc2,w,c
  3553   004B0A  B4D8               	btfsc	status,2,c
  3554   004B0C  EF8A  F025         	goto	u2051
  3555   004B10  EF8C  F025         	goto	u2050
  3556   004B14                     u2051:
  3557   004B14  EFA7  F025         	goto	l2830
  3558   004B18                     u2050:
  3559   004B18  EE20 F009          	lfsr	2,9
  3560   004B1C  5005               	movf	fputc@fp^(0+1280),w,c
  3561   004B1E  26D9               	addwf	fsr2l,f,c
  3562   004B20  5006               	movf	(fputc@fp+1)^(0+1280),w,c
  3563   004B22  22DA               	addwfc	fsr2h,f,c
  3564   004B24  EE10 F003          	lfsr	1,3
  3565   004B28  5005               	movf	fputc@fp^(0+1280),w,c
  3566   004B2A  26E1               	addwf	fsr1l,f,c
  3567   004B2C  5006               	movf	(fputc@fp+1)^(0+1280),w,c
  3568   004B2E  22E2               	addwfc	fsr1h,f,c
  3569   004B30  50DE               	movf	postinc2,w,c
  3570   004B32  5CE6               	subwf	postinc1,w,c
  3571   004B34  50E6               	movf	postinc1,w,c
  3572   004B36  0A80               	xorlw	128
  3573   004B38  6E0B               	movwf	(??_fputc+4)^(0+1280),c
  3574   004B3A  50DE               	movf	postinc2,w,c
  3575   004B3C  0A80               	xorlw	128
  3576   004B3E  580B               	subwfb	(??_fputc+4)^(0+1280),w,c
  3577   004B40  B0D8               	btfsc	status,0,c
  3578   004B42  EFA5  F025         	goto	u2061
  3579   004B46  EFA7  F025         	goto	u2060
  3580   004B4A                     u2061:
  3581   004B4A  EFCA  F025         	goto	l1280
  3582   004B4E                     u2060:
  3583   004B4E                     l2830:
  3584   004B4E  EE20 F003          	lfsr	2,3
  3585   004B52  5005               	movf	fputc@fp^(0+1280),w,c
  3586   004B54  26D9               	addwf	fsr2l,f,c
  3587   004B56  5006               	movf	(fputc@fp+1)^(0+1280),w,c
  3588   004B58  22DA               	addwfc	fsr2h,f,c
  3589   004B5A  C4DE F507          	movff	postinc2,??_fputc
  3590   004B5E  C4DD F508          	movff	postdec2,??_fputc+1
  3591   004B62  C505  F4D9         	movff	fputc@fp,fsr2l
  3592   004B66  C506  F4DA         	movff	fputc@fp+1,fsr2h
  3593   004B6A  C4DE F509          	movff	postinc2,??_fputc+2
  3594   004B6E  C4DD F50A          	movff	postdec2,??_fputc+3
  3595   004B72  5007               	movf	??_fputc^(0+1280),w,c
  3596   004B74  2409               	addwf	(??_fputc+2)^(0+1280),w,c
  3597   004B76  6ED9               	movwf	fsr2l,c
  3598   004B78  5008               	movf	(??_fputc+1)^(0+1280),w,c
  3599   004B7A  200A               	addwfc	(??_fputc+3)^(0+1280),w,c
  3600   004B7C  6EDA               	movwf	fsr2h,c
  3601   004B7E  C503  F4DF         	movff	fputc@c,indf2
  3602   004B82  EE20 F003          	lfsr	2,3
  3603   004B86  5005               	movf	fputc@fp^(0+1280),w,c
  3604   004B88  26D9               	addwf	fsr2l,f,c
  3605   004B8A  5006               	movf	(fputc@fp+1)^(0+1280),w,c
  3606   004B8C  22DA               	addwfc	fsr2h,f,c
  3607   004B8E  2ADE               	incf	postinc2,f,c
  3608   004B90  0E00               	movlw	0
  3609   004B92  22DD               	addwfc	postdec2,f,c
  3610   004B94                     l1280:
  3611   004B94  0012               	return		;funcret
  3612   004B96                     __end_of_fputc:
  3613                           	callstack 0
  3614                           
  3615 ;; *************** function _putch *****************
  3616 ;; Defined at:
  3617 ;;		line 192 in file "mcc_generated_files/uart1.c"
  3618 ;; Parameters:    Size  Location     Type
  3619 ;;  txData          1    wreg     unsigned char 
  3620 ;; Auto vars:     Size  Location     Type
  3621 ;;  txData          1    1[COMRAM] unsigned char 
  3622 ;; Return value:  Size  Location     Type
  3623 ;;                  1    wreg      void 
  3624 ;; Registers used:
  3625 ;;		wreg, status,2, cstack
  3626 ;; Tracked objects:
  3627 ;;		On entry : 0/0
  3628 ;;		On exit  : 0/0
  3629 ;;		Unchanged: 0/0
  3630 ;; Data sizes:     COMRAM   BANK5   BANK6   BANK7   BANK8   BANK9  BANK10  BANK11  BANK12  BANK13  BANK14  BANK15  BANK1
      +6  BANK17  BANK18  BANK19  BANK20  BANK21  BANK22  BANK23  BANK24  BANK25  BANK26  BANK27  BANK28  BANK29  BANK30  BANK3
      +1  BANK32  BANK33  BANK34  BANK35  BANK36
  3631 ;;      Params:         0       0       0       0       0       0       0       0       0       0       0       0       
      +0       0       0       0       0       0       0       0       0       0       0       0       0       0       0       
      +0       0       0       0       0       0
  3632 ;;      Locals:         1       0       0       0       0       0       0       0       0       0       0       0       
      +0       0       0       0       0       0       0       0       0       0       0       0       0       0       0       
      +0       0       0       0       0       0
  3633 ;;      Temps:          0       0       0       0       0       0       0       0       0       0       0       0       
      +0       0       0       0       0       0       0       0       0       0       0       0       0       0       0       
      +0       0       0       0       0       0
  3634 ;;      Totals:         1       0       0       0       0       0       0       0       0       0       0       0       
      +0       0       0       0       0       0       0       0       0       0       0       0       0       0       0       
      +0       0       0       0       0       0
  3635 ;;Total ram usage:        1 bytes
  3636 ;; Hardware stack levels used: 1
  3637 ;; Hardware stack levels required when called: 1
  3638 ;; This function calls:
  3639 ;;		_UART1_Write
  3640 ;; This function is called by:
  3641 ;;		_fputc
  3642 ;; This function uses a non-reentrant model
  3643 ;;
  3644                           
  3645                           	psect	text9
  3646   005246                     __ptext9:
  3647                           	callstack 0
  3648   005246                     _putch:
  3649                           	callstack 121
  3650                           
  3651                           ;incstack = 0
  3652                           ;putch@txData stored from wreg
  3653   005246  6E02               	movwf	putch@txData^(0+1280),c
  3654   005248                     
  3655                           ;mcc_generated_files/uart1.c: 192: void putch(char txData);mcc_generated_files/uart1.c: 
      +                          193: {;mcc_generated_files/uart1.c: 194:     UART1_Write(txData);
  3656   005248  5002               	movf	putch@txData^(0+1280),w,c
  3657   00524A  ECF8  F028         	call	_UART1_Write
  3658   00524E  0012               	return		;funcret
  3659   005250                     __end_of_putch:
  3660                           	callstack 0
  3661                           
  3662 ;; *************** function _memcpy *****************
  3663 ;; Defined at:
  3664 ;;		line 4 in file "C:\Program Files\Microchip\xc8\v2.40\pic\sources\c99\common\memcpy.c"
  3665 ;; Parameters:    Size  Location     Type
  3666 ;;  d1              2    0[COMRAM] PTR void 
  3667 ;;		 -> dbuf(80), 
  3668 ;;  s1              2    2[COMRAM] PTR const void 
  3669 ;;		 -> dbuf(80), 
  3670 ;;  n               2    4[COMRAM] unsigned int 
  3671 ;; Auto vars:     Size  Location     Type
  3672 ;;  s               2    8[COMRAM] PTR const unsigned char 
  3673 ;;		 -> dbuf(80), 
  3674 ;;  d               2    6[COMRAM] PTR unsigned char 
  3675 ;;		 -> dbuf(80), 
  3676 ;;  tmp             1   10[COMRAM] unsigned char 
  3677 ;; Return value:  Size  Location     Type
  3678 ;;                  2    0[COMRAM] PTR void 
  3679 ;; Registers used:
  3680 ;;		wreg, fsr2l, fsr2h, status,2, status,0
  3681 ;; Tracked objects:
  3682 ;;		On entry : 0/0
  3683 ;;		On exit  : 0/0
  3684 ;;		Unchanged: 0/0
  3685 ;; Data sizes:     COMRAM   BANK5   BANK6   BANK7   BANK8   BANK9  BANK10  BANK11  BANK12  BANK13  BANK14  BANK15  BANK1
      +6  BANK17  BANK18  BANK19  BANK20  BANK21  BANK22  BANK23  BANK24  BANK25  BANK26  BANK27  BANK28  BANK29  BANK30  BANK3
      +1  BANK32  BANK33  BANK34  BANK35  BANK36
  3686 ;;      Params:         6       0       0       0       0       0       0       0       0       0       0       0       
      +0       0       0       0       0       0       0       0       0       0       0       0       0       0       0       
      +0       0       0       0       0       0
  3687 ;;      Locals:         5       0       0       0       0       0       0       0       0       0       0       0       
      +0       0       0       0       0       0       0       0       0       0       0       0       0       0       0       
      +0       0       0       0       0       0
  3688 ;;      Temps:          0       0       0       0       0       0       0       0       0       0       0       0       
      +0       0       0       0       0       0       0       0       0       0       0       0       0       0       0       
      +0       0       0       0       0       0
  3689 ;;      Totals:        11       0       0       0       0       0       0       0       0       0       0       0       
      +0       0       0       0       0       0       0       0       0       0       0       0       0       0       0       
      +0       0       0       0       0       0
  3690 ;;Total ram usage:       11 bytes
  3691 ;; Hardware stack levels used: 1
  3692 ;; This function calls:
  3693 ;;		Nothing
  3694 ;; This function is called by:
  3695 ;;		_efgtoa
  3696 ;; This function uses a non-reentrant model
  3697 ;;
  3698                           
  3699                           	psect	text10
  3700   004EFA                     __ptext10:
  3701                           	callstack 0
  3702   004EFA                     _memcpy:
  3703                           	callstack 122
  3704   004EFA  C503  F509         	movff	memcpy@s1,memcpy@s
  3705   004EFE  C504  F50A         	movff	memcpy@s1+1,memcpy@s+1
  3706   004F02  C501  F507         	movff	memcpy@d1,memcpy@d
  3707   004F06  C502  F508         	movff	memcpy@d1+1,memcpy@d+1
  3708   004F0A  EF97  F027         	goto	l3496
  3709   004F0E                     l3488:
  3710   004F0E  C509  F4D9         	movff	memcpy@s,fsr2l
  3711   004F12  C50A  F4DA         	movff	memcpy@s+1,fsr2h
  3712   004F16  50DF               	movf	indf2,w,c
  3713   004F18  6E0B               	movwf	memcpy@tmp^(0+1280),c
  3714   004F1A  4A09               	infsnz	memcpy@s^(0+1280),f,c
  3715   004F1C  2A0A               	incf	(memcpy@s+1)^(0+1280),f,c
  3716   004F1E  C507  F4D9         	movff	memcpy@d,fsr2l
  3717   004F22  C508  F4DA         	movff	memcpy@d+1,fsr2h
  3718   004F26  C50B  F4DF         	movff	memcpy@tmp,indf2
  3719   004F2A  4A07               	infsnz	memcpy@d^(0+1280),f,c
  3720   004F2C  2A08               	incf	(memcpy@d+1)^(0+1280),f,c
  3721   004F2E                     l3496:
  3722   004F2E  0605               	decf	memcpy@n^(0+1280),f,c
  3723   004F30  A0D8               	btfss	status,0,c
  3724   004F32  0606               	decf	(memcpy@n+1)^(0+1280),f,c
  3725   004F34  2805               	incf	memcpy@n^(0+1280),w,c
  3726   004F36  E106               	bnz	u3261
  3727   004F38  2806               	incf	(memcpy@n+1)^(0+1280),w,c
  3728   004F3A  A4D8               	btfss	status,2,c
  3729   004F3C  EFA2  F027         	goto	u3261
  3730   004F40  EFA4  F027         	goto	u3260
  3731   004F44                     u3261:
  3732   004F44  EF87  F027         	goto	l3488
  3733   004F48                     u3260:
  3734   004F48  0012               	return		;funcret
  3735   004F4A                     __end_of_memcpy:
  3736                           	callstack 0
  3737                           
  3738 ;; *************** function _labs *****************
  3739 ;; Defined at:
  3740 ;;		line 1 in file "C:\Program Files\Microchip\xc8\v2.40\pic\sources\c99\common\labs.c"
  3741 ;; Parameters:    Size  Location     Type
  3742 ;;  a               4    0[COMRAM] long 
  3743 ;; Auto vars:     Size  Location     Type
  3744 ;;		None
  3745 ;; Return value:  Size  Location     Type
  3746 ;;                  4    0[COMRAM] long 
  3747 ;; Registers used:
  3748 ;;		wreg, status,2, status,0
  3749 ;; Tracked objects:
  3750 ;;		On entry : 0/0
  3751 ;;		On exit  : 0/0
  3752 ;;		Unchanged: 0/0
  3753 ;; Data sizes:     COMRAM   BANK5   BANK6   BANK7   BANK8   BANK9  BANK10  BANK11  BANK12  BANK13  BANK14  BANK15  BANK1
      +6  BANK17  BANK18  BANK19  BANK20  BANK21  BANK22  BANK23  BANK24  BANK25  BANK26  BANK27  BANK28  BANK29  BANK30  BANK3
      +1  BANK32  BANK33  BANK34  BANK35  BANK36
  3754 ;;      Params:         4       0       0       0       0       0       0       0       0       0       0       0       
      +0       0       0       0       0       0       0       0       0       0       0       0       0       0       0       
      +0       0       0       0       0       0
  3755 ;;      Locals:         0       0       0       0       0       0       0       0       0       0       0       0       
      +0       0       0       0       0       0       0       0       0       0       0       0       0       0       0       
      +0       0       0       0       0       0
  3756 ;;      Temps:          4       0       0       0       0       0       0       0       0       0       0       0       
      +0       0       0       0       0       0       0       0       0       0       0       0       0       0       0       
      +0       0       0       0       0       0
  3757 ;;      Totals:         8       0       0       0       0       0       0       0       0       0       0       0       
      +0       0       0       0       0       0       0       0       0       0       0       0       0       0       0       
      +0       0       0       0       0       0
  3758 ;;Total ram usage:        8 bytes
  3759 ;; Hardware stack levels used: 1
  3760 ;; This function calls:
  3761 ;;		Nothing
  3762 ;; This function is called by:
  3763 ;;		_efgtoa
  3764 ;; This function uses a non-reentrant model
  3765 ;;
  3766                           
  3767                           	psect	text11
  3768   004DEC                     __ptext11:
  3769                           	callstack 0
  3770   004DEC                     _labs:
  3771                           	callstack 122
  3772   004DEC  BE04               	btfsc	(labs@a+3)^(0+1280),7,c
  3773   004DEE  EF05  F027         	goto	u3150
  3774   004DF2  5004               	movf	(labs@a+3)^(0+1280),w,c
  3775   004DF4  1003               	iorwf	(labs@a+2)^(0+1280),w,c
  3776   004DF6  1002               	iorwf	(labs@a+1)^(0+1280),w,c
  3777   004DF8  E106               	bnz	u3151
  3778   004DFA  0401               	decf	labs@a^(0+1280),w,c
  3779   004DFC  B0D8               	btfsc	status,0,c
  3780   004DFE  EF03  F027         	goto	u3151
  3781   004E02  EF05  F027         	goto	u3150
  3782   004E06                     u3151:
  3783   004E06  EF20  F027         	goto	l1259
  3784   004E0A                     u3150:
  3785   004E0A  C501  F505         	movff	labs@a,??_labs
  3786   004E0E  C502  F506         	movff	labs@a+1,??_labs+1
  3787   004E12  C503  F507         	movff	labs@a+2,??_labs+2
  3788   004E16  C504  F508         	movff	labs@a+3,??_labs+3
  3789   004E1A  1E05               	comf	??_labs^(0+1280),f,c
  3790   004E1C  1E06               	comf	(??_labs+1)^(0+1280),f,c
  3791   004E1E  1E07               	comf	(??_labs+2)^(0+1280),f,c
  3792   004E20  1E08               	comf	(??_labs+3)^(0+1280),f,c
  3793   004E22  2A05               	incf	??_labs^(0+1280),f,c
  3794   004E24  0E00               	movlw	0
  3795   004E26  2206               	addwfc	(??_labs+1)^(0+1280),f,c
  3796   004E28  2207               	addwfc	(??_labs+2)^(0+1280),f,c
  3797   004E2A  2208               	addwfc	(??_labs+3)^(0+1280),f,c
  3798   004E2C  C505  F501         	movff	??_labs,?_labs
  3799   004E30  C506  F502         	movff	??_labs+1,?_labs+1
  3800   004E34  C507  F503         	movff	??_labs+2,?_labs+2
  3801   004E38  C508  F504         	movff	??_labs+3,?_labs+3
  3802   004E3C  EF28  F027         	goto	l1262
  3803   004E40                     l1259:
  3804   004E40  C501  F501         	movff	labs@a,?_labs
  3805   004E44  C502  F502         	movff	labs@a+1,?_labs+1
  3806   004E48  C503  F503         	movff	labs@a+2,?_labs+2
  3807   004E4C  C504  F504         	movff	labs@a+3,?_labs+3
  3808   004E50                     l1262:
  3809   004E50  0012               	return		;funcret
  3810   004E52                     __end_of_labs:
  3811                           	callstack 0
  3812                           
  3813 ;; *************** function _floorf *****************
  3814 ;; Defined at:
  3815 ;;		line 3 in file "C:\Program Files\Microchip\xc8\v2.40\pic\sources\c99\common\floorf.c"
  3816 ;; Parameters:    Size  Location     Type
  3817 ;;  x               4   25[COMRAM] float 
  3818 ;; Auto vars:     Size  Location     Type
  3819 ;;  u               4   41[COMRAM] struct .
  3820 ;;  m               4   35[COMRAM] unsigned long 
  3821 ;;  e               2   39[COMRAM] int 
  3822 ;; Return value:  Size  Location     Type
  3823 ;;                  4   25[COMRAM] float 
  3824 ;; Registers used:
  3825 ;;		wreg, status,2, status,0
  3826 ;; Tracked objects:
  3827 ;;		On entry : 0/0
  3828 ;;		On exit  : 0/0
  3829 ;;		Unchanged: 0/0
  3830 ;; Data sizes:     COMRAM   BANK5   BANK6   BANK7   BANK8   BANK9  BANK10  BANK11  BANK12  BANK13  BANK14  BANK15  BANK1
      +6  BANK17  BANK18  BANK19  BANK20  BANK21  BANK22  BANK23  BANK24  BANK25  BANK26  BANK27  BANK28  BANK29  BANK30  BANK3
      +1  BANK32  BANK33  BANK34  BANK35  BANK36
  3831 ;;      Params:         4       0       0       0       0       0       0       0       0       0       0       0       
      +0       0       0       0       0       0       0       0       0       0       0       0       0       0       0       
      +0       0       0       0       0       0
  3832 ;;      Locals:        10       0       0       0       0       0       0       0       0       0       0       0       
      +0       0       0       0       0       0       0       0       0       0       0       0       0       0       0       
      +0       0       0       0       0       0
  3833 ;;      Temps:          6       0       0       0       0       0       0       0       0       0       0       0       
      +0       0       0       0       0       0       0       0       0       0       0       0       0       0       0       
      +0       0       0       0       0       0
  3834 ;;      Totals:        20       0       0       0       0       0       0       0       0       0       0       0       
      +0       0       0       0       0       0       0       0       0       0       0       0       0       0       0       
      +0       0       0       0       0       0
  3835 ;;Total ram usage:       20 bytes
  3836 ;; Hardware stack levels used: 1
  3837 ;; This function calls:
  3838 ;;		Nothing
  3839 ;; This function is called by:
  3840 ;;		_efgtoa
  3841 ;; This function uses a non-reentrant model
  3842 ;;
  3843                           
  3844                           	psect	text12
  3845   0040BE                     __ptext12:
  3846                           	callstack 0
  3847   0040BE                     _floorf:
  3848                           	callstack 122
  3849   0040BE  C5C7  F52A         	movff	floorf@F526,floorf@u
  3850   0040C2  C5C8  F52B         	movff	floorf@F526+1,floorf@u+1
  3851   0040C6  C5C9  F52C         	movff	floorf@F526+2,floorf@u+2
  3852   0040CA  C5CA  F52D         	movff	floorf@F526+3,floorf@u+3
  3853   0040CE  C51A  F52A         	movff	floorf@x,floorf@u
  3854   0040D2  C51B  F52B         	movff	floorf@x+1,floorf@u+1
  3855   0040D6  C51C  F52C         	movff	floorf@x+2,floorf@u+2
  3856   0040DA  C51D  F52D         	movff	floorf@x+3,floorf@u+3
  3857   0040DE  0E81               	movlw	129
  3858   0040E0  6E1E               	movwf	??_floorf^(0+1280),c
  3859   0040E2  0EFF               	movlw	255
  3860   0040E4  6E1F               	movwf	(??_floorf+1)^(0+1280),c
  3861   0040E6  C52A  F520         	movff	floorf@u,??_floorf+2
  3862   0040EA  C52B  F521         	movff	floorf@u+1,??_floorf+3
  3863   0040EE  C52C  F522         	movff	floorf@u+2,??_floorf+4
  3864   0040F2  C52D  F523         	movff	floorf@u+3,??_floorf+5
  3865   0040F6  0E18               	movlw	24
  3866   0040F8  EF83  F020         	goto	u3160
  3867   0040FC                     u3165:
  3868   0040FC  90D8               	bcf	status,0,c
  3869   0040FE  3223               	rrcf	(??_floorf+5)^(0+1280),f,c
  3870   004100  3222               	rrcf	(??_floorf+4)^(0+1280),f,c
  3871   004102  3221               	rrcf	(??_floorf+3)^(0+1280),f,c
  3872   004104  3220               	rrcf	(??_floorf+2)^(0+1280),f,c
  3873   004106                     u3160:
  3874   004106  2EE8               	decfsz	wreg,f,c
  3875   004108  EF7E  F020         	goto	u3165
  3876   00410C  5020               	movf	(??_floorf+2)^(0+1280),w,c
  3877   00410E  241E               	addwf	??_floorf^(0+1280),w,c
  3878   004110  6E28               	movwf	floorf@e^(0+1280),c
  3879   004112  0E00               	movlw	0
  3880   004114  201F               	addwfc	(??_floorf+1)^(0+1280),w,c
  3881   004116  6E29               	movwf	(floorf@e+1)^(0+1280),c
  3882   004118  BE29               	btfsc	(floorf@e+1)^(0+1280),7,c
  3883   00411A  EF98  F020         	goto	u3171
  3884   00411E  5029               	movf	(floorf@e+1)^(0+1280),w,c
  3885   004120  E109               	bnz	u3170
  3886   004122  0E17               	movlw	23
  3887   004124  5C28               	subwf	floorf@e^(0+1280),w,c
  3888   004126  A0D8               	btfss	status,0,c
  3889   004128  EF98  F020         	goto	u3171
  3890   00412C  EF9A  F020         	goto	u3170
  3891   004130                     u3171:
  3892   004130  EFA4  F020         	goto	l3464
  3893   004134                     u3170:
  3894   004134                     l3462:
  3895   004134  C51A  F51A         	movff	floorf@x,?_floorf
  3896   004138  C51B  F51B         	movff	floorf@x+1,?_floorf+1
  3897   00413C  C51C  F51C         	movff	floorf@x+2,?_floorf+2
  3898   004140  C51D  F51D         	movff	floorf@x+3,?_floorf+3
  3899   004144  EF67  F021         	goto	l1234
  3900   004148                     l3464:
  3901   004148  BE29               	btfsc	(floorf@e+1)^(0+1280),7,c
  3902   00414A  EFA9  F020         	goto	u3181
  3903   00414E  EFAB  F020         	goto	u3180
  3904   004152                     u3181:
  3905   004152  EF1B  F021         	goto	l3474
  3906   004156                     u3180:
  3907   004156  C528  F51E         	movff	floorf@e,??_floorf
  3908   00415A  0EFF               	movlw	255
  3909   00415C  6E1F               	movwf	(??_floorf+1)^(0+1280),c
  3910   00415E  0EFF               	movlw	255
  3911   004160  6E20               	movwf	(??_floorf+2)^(0+1280),c
  3912   004162  0E7F               	movlw	127
  3913   004164  6E21               	movwf	(??_floorf+3)^(0+1280),c
  3914   004166  0E00               	movlw	0
  3915   004168  6E22               	movwf	(??_floorf+4)^(0+1280),c
  3916   00416A                     u3195:
  3917   00416A  661E               	tstfsz	??_floorf^(0+1280),c
  3918   00416C  EFBA  F020         	goto	u3196
  3919   004170  EFC2  F020         	goto	u3197
  3920   004174                     u3196:
  3921   004174  3422               	rlcf	(??_floorf+4)^(0+1280),w,c
  3922   004176  3222               	rrcf	(??_floorf+4)^(0+1280),f,c
  3923   004178  3221               	rrcf	(??_floorf+3)^(0+1280),f,c
  3924   00417A  3220               	rrcf	(??_floorf+2)^(0+1280),f,c
  3925   00417C  321F               	rrcf	(??_floorf+1)^(0+1280),f,c
  3926   00417E  2E1E               	decfsz	??_floorf^(0+1280),f,c
  3927   004180  EFB5  F020         	goto	u3195
  3928   004184                     u3197:
  3929   004184  C51F  F524         	movff	??_floorf+1,floorf@m
  3930   004188  C520  F525         	movff	??_floorf+2,floorf@m+1
  3931   00418C  C521  F526         	movff	??_floorf+3,floorf@m+2
  3932   004190  C522  F527         	movff	??_floorf+4,floorf@m+3
  3933   004194  5024               	movf	floorf@m^(0+1280),w,c
  3934   004196  142A               	andwf	floorf@u^(0+1280),w,c
  3935   004198  6E1E               	movwf	??_floorf^(0+1280),c
  3936   00419A  5025               	movf	(floorf@m+1)^(0+1280),w,c
  3937   00419C  142B               	andwf	(floorf@u+1)^(0+1280),w,c
  3938   00419E  6E1F               	movwf	(??_floorf+1)^(0+1280),c
  3939   0041A0  5026               	movf	(floorf@m+2)^(0+1280),w,c
  3940   0041A2  142C               	andwf	(floorf@u+2)^(0+1280),w,c
  3941   0041A4  6E20               	movwf	(??_floorf+2)^(0+1280),c
  3942   0041A6  5027               	movf	(floorf@m+3)^(0+1280),w,c
  3943   0041A8  142D               	andwf	(floorf@u+3)^(0+1280),w,c
  3944   0041AA  6E21               	movwf	(??_floorf+3)^(0+1280),c
  3945   0041AC  501E               	movf	??_floorf^(0+1280),w,c
  3946   0041AE  101F               	iorwf	(??_floorf+1)^(0+1280),w,c
  3947   0041B0  1020               	iorwf	(??_floorf+2)^(0+1280),w,c
  3948   0041B2  1021               	iorwf	(??_floorf+3)^(0+1280),w,c
  3949   0041B4  A4D8               	btfss	status,2,c
  3950   0041B6  EFDF  F020         	goto	u3201
  3951   0041BA  EFE1  F020         	goto	u3200
  3952   0041BE                     u3201:
  3953   0041BE  EFE3  F020         	goto	l3470
  3954   0041C2                     u3200:
  3955   0041C2  EF9A  F020         	goto	l3462
  3956   0041C6                     l3470:
  3957   0041C6  C52A  F51E         	movff	floorf@u,??_floorf
  3958   0041CA  C52B  F51F         	movff	floorf@u+1,??_floorf+1
  3959   0041CE  C52C  F520         	movff	floorf@u+2,??_floorf+2
  3960   0041D2  C52D  F521         	movff	floorf@u+3,??_floorf+3
  3961   0041D6  0E20               	movlw	32
  3962   0041D8  EFF3  F020         	goto	u3210
  3963   0041DC                     u3215:
  3964   0041DC  90D8               	bcf	status,0,c
  3965   0041DE  3221               	rrcf	(??_floorf+3)^(0+1280),f,c
  3966   0041E0  3220               	rrcf	(??_floorf+2)^(0+1280),f,c
  3967   0041E2  321F               	rrcf	(??_floorf+1)^(0+1280),f,c
  3968   0041E4  321E               	rrcf	??_floorf^(0+1280),f,c
  3969   0041E6                     u3210:
  3970   0041E6  2EE8               	decfsz	wreg,f,c
  3971   0041E8  EFEE  F020         	goto	u3215
  3972   0041EC  501E               	movf	??_floorf^(0+1280),w,c
  3973   0041EE  101F               	iorwf	(??_floorf+1)^(0+1280),w,c
  3974   0041F0  1020               	iorwf	(??_floorf+2)^(0+1280),w,c
  3975   0041F2  1021               	iorwf	(??_floorf+3)^(0+1280),w,c
  3976   0041F4  B4D8               	btfsc	status,2,c
  3977   0041F6  EFFF  F020         	goto	u3221
  3978   0041FA  EF01  F021         	goto	u3220
  3979   0041FE                     u3221:
  3980   0041FE  EF09  F021         	goto	l1237
  3981   004202                     u3220:
  3982   004202  5024               	movf	floorf@m^(0+1280),w,c
  3983   004204  262A               	addwf	floorf@u^(0+1280),f,c
  3984   004206  5025               	movf	(floorf@m+1)^(0+1280),w,c
  3985   004208  222B               	addwfc	(floorf@u+1)^(0+1280),f,c
  3986   00420A  5026               	movf	(floorf@m+2)^(0+1280),w,c
  3987   00420C  222C               	addwfc	(floorf@u+2)^(0+1280),f,c
  3988   00420E  5027               	movf	(floorf@m+3)^(0+1280),w,c
  3989   004210  222D               	addwfc	(floorf@u+3)^(0+1280),f,c
  3990   004212                     l1237:
  3991   004212  1C24               	comf	floorf@m^(0+1280),w,c
  3992   004214  6E1E               	movwf	??_floorf^(0+1280),c
  3993   004216  1C25               	comf	(floorf@m+1)^(0+1280),w,c
  3994   004218  6E1F               	movwf	(??_floorf+1)^(0+1280),c
  3995   00421A  1C26               	comf	(floorf@m+2)^(0+1280),w,c
  3996   00421C  6E20               	movwf	(??_floorf+2)^(0+1280),c
  3997   00421E  1C27               	comf	(floorf@m+3)^(0+1280),w,c
  3998   004220  6E21               	movwf	(??_floorf+3)^(0+1280),c
  3999   004222  501E               	movf	??_floorf^(0+1280),w,c
  4000   004224  162A               	andwf	floorf@u^(0+1280),f,c
  4001   004226  501F               	movf	(??_floorf+1)^(0+1280),w,c
  4002   004228  162B               	andwf	(floorf@u+1)^(0+1280),f,c
  4003   00422A  5020               	movf	(??_floorf+2)^(0+1280),w,c
  4004   00422C  162C               	andwf	(floorf@u+2)^(0+1280),f,c
  4005   00422E  5021               	movf	(??_floorf+3)^(0+1280),w,c
  4006   004230  162D               	andwf	(floorf@u+3)^(0+1280),f,c
  4007   004232  EF5F  F021         	goto	l3482
  4008   004236                     l3474:
  4009   004236  C52A  F51E         	movff	floorf@u,??_floorf
  4010   00423A  C52B  F51F         	movff	floorf@u+1,??_floorf+1
  4011   00423E  C52C  F520         	movff	floorf@u+2,??_floorf+2
  4012   004242  C52D  F521         	movff	floorf@u+3,??_floorf+3
  4013   004246  0E20               	movlw	32
  4014   004248  EF2B  F021         	goto	u3230
  4015   00424C                     u3235:
  4016   00424C  90D8               	bcf	status,0,c
  4017   00424E  3221               	rrcf	(??_floorf+3)^(0+1280),f,c
  4018   004250  3220               	rrcf	(??_floorf+2)^(0+1280),f,c
  4019   004252  321F               	rrcf	(??_floorf+1)^(0+1280),f,c
  4020   004254  321E               	rrcf	??_floorf^(0+1280),f,c
  4021   004256                     u3230:
  4022   004256  2EE8               	decfsz	wreg,f,c
  4023   004258  EF26  F021         	goto	u3235
  4024   00425C  501E               	movf	??_floorf^(0+1280),w,c
  4025   00425E  101F               	iorwf	(??_floorf+1)^(0+1280),w,c
  4026   004260  1020               	iorwf	(??_floorf+2)^(0+1280),w,c
  4027   004262  1021               	iorwf	(??_floorf+3)^(0+1280),w,c
  4028   004264  A4D8               	btfss	status,2,c
  4029   004266  EF37  F021         	goto	u3241
  4030   00426A  EF39  F021         	goto	u3240
  4031   00426E                     u3241:
  4032   00426E  EF43  F021         	goto	l3478
  4033   004272                     u3240:
  4034   004272  0E00               	movlw	0
  4035   004274  6E2A               	movwf	floorf@u^(0+1280),c
  4036   004276  0E00               	movlw	0
  4037   004278  6E2B               	movwf	(floorf@u+1)^(0+1280),c
  4038   00427A  0E00               	movlw	0
  4039   00427C  6E2C               	movwf	(floorf@u+2)^(0+1280),c
  4040   00427E  0E00               	movlw	0
  4041   004280  6E2D               	movwf	(floorf@u+3)^(0+1280),c
  4042   004282  EF5F  F021         	goto	l3482
  4043   004286                     l3478:
  4044   004286  90D8               	bcf	status,0,c
  4045   004288  342A               	rlcf	floorf@u^(0+1280),w,c
  4046   00428A  6E1E               	movwf	??_floorf^(0+1280),c
  4047   00428C  342B               	rlcf	(floorf@u+1)^(0+1280),w,c
  4048   00428E  6E1F               	movwf	(??_floorf+1)^(0+1280),c
  4049   004290  342C               	rlcf	(floorf@u+2)^(0+1280),w,c
  4050   004292  6E20               	movwf	(??_floorf+2)^(0+1280),c
  4051   004294  342D               	rlcf	(floorf@u+3)^(0+1280),w,c
  4052   004296  6E21               	movwf	(??_floorf+3)^(0+1280),c
  4053   004298  501E               	movf	??_floorf^(0+1280),w,c
  4054   00429A  101F               	iorwf	(??_floorf+1)^(0+1280),w,c
  4055   00429C  1020               	iorwf	(??_floorf+2)^(0+1280),w,c
  4056   00429E  1021               	iorwf	(??_floorf+3)^(0+1280),w,c
  4057   0042A0  B4D8               	btfsc	status,2,c
  4058   0042A2  EF55  F021         	goto	u3251
  4059   0042A6  EF57  F021         	goto	u3250
  4060   0042AA                     u3251:
  4061   0042AA  EF5F  F021         	goto	l3482
  4062   0042AE                     u3250:
  4063   0042AE  0E00               	movlw	0
  4064   0042B0  6E2A               	movwf	floorf@u^(0+1280),c
  4065   0042B2  0E00               	movlw	0
  4066   0042B4  6E2B               	movwf	(floorf@u+1)^(0+1280),c
  4067   0042B6  0E80               	movlw	128
  4068   0042B8  6E2C               	movwf	(floorf@u+2)^(0+1280),c
  4069   0042BA  0EBF               	movlw	191
  4070   0042BC  6E2D               	movwf	(floorf@u+3)^(0+1280),c
  4071   0042BE                     l3482:
  4072   0042BE  C52A  F51A         	movff	floorf@u,?_floorf
  4073   0042C2  C52B  F51B         	movff	floorf@u+1,?_floorf+1
  4074   0042C6  C52C  F51C         	movff	floorf@u+2,?_floorf+2
  4075   0042CA  C52D  F51D         	movff	floorf@u+3,?_floorf+3
  4076   0042CE                     l1234:
  4077   0042CE  0012               	return		;funcret
  4078   0042D0                     __end_of_floorf:
  4079                           	callstack 0
  4080                           
  4081 ;; *************** function ___fpclassifyf *****************
  4082 ;; Defined at:
  4083 ;;		line 4 in file "C:\Program Files\Microchip\xc8\v2.40\pic\sources\c99\common\__fpclassifyf.c"
  4084 ;; Parameters:    Size  Location     Type
  4085 ;;  x               4    0[COMRAM] float 
  4086 ;; Auto vars:     Size  Location     Type
  4087 ;;  u               4   10[COMRAM] struct .
  4088 ;;  e               2    8[COMRAM] int 
  4089 ;; Return value:  Size  Location     Type
  4090 ;;                  2    0[COMRAM] int 
  4091 ;; Registers used:
  4092 ;;		wreg, status,2, status,0
  4093 ;; Tracked objects:
  4094 ;;		On entry : 0/0
  4095 ;;		On exit  : 0/0
  4096 ;;		Unchanged: 0/0
  4097 ;; Data sizes:     COMRAM   BANK5   BANK6   BANK7   BANK8   BANK9  BANK10  BANK11  BANK12  BANK13  BANK14  BANK15  BANK1
      +6  BANK17  BANK18  BANK19  BANK20  BANK21  BANK22  BANK23  BANK24  BANK25  BANK26  BANK27  BANK28  BANK29  BANK30  BANK3
      +1  BANK32  BANK33  BANK34  BANK35  BANK36
  4098 ;;      Params:         4       0       0       0       0       0       0       0       0       0       0       0       
      +0       0       0       0       0       0       0       0       0       0       0       0       0       0       0       
      +0       0       0       0       0       0
  4099 ;;      Locals:         6       0       0       0       0       0       0       0       0       0       0       0       
      +0       0       0       0       0       0       0       0       0       0       0       0       0       0       0       
      +0       0       0       0       0       0
  4100 ;;      Temps:          4       0       0       0       0       0       0       0       0       0       0       0       
      +0       0       0       0       0       0       0       0       0       0       0       0       0       0       0       
      +0       0       0       0       0       0
  4101 ;;      Totals:        14       0       0       0       0       0       0       0       0       0       0       0       
      +0       0       0       0       0       0       0       0       0       0       0       0       0       0       0       
      +0       0       0       0       0       0
  4102 ;;Total ram usage:       14 bytes
  4103 ;; Hardware stack levels used: 1
  4104 ;; This function calls:
  4105 ;;		Nothing
  4106 ;; This function is called by:
  4107 ;;		_efgtoa
  4108 ;; This function uses a non-reentrant model
  4109 ;;
  4110                           
  4111                           	psect	text13
  4112   0048FA                     __ptext13:
  4113                           	callstack 0
  4114   0048FA                     ___fpclassifyf:
  4115                           	callstack 122
  4116   0048FA  C5CB  F50B         	movff	___fpclassifyf@F465,___fpclassifyf@u
  4117   0048FE  C5CC  F50C         	movff	___fpclassifyf@F465+1,___fpclassifyf@u+1
  4118   004902  C5CD  F50D         	movff	___fpclassifyf@F465+2,___fpclassifyf@u+2
  4119   004906  C5CE  F50E         	movff	___fpclassifyf@F465+3,___fpclassifyf@u+3
  4120   00490A  C501  F50B         	movff	___fpclassifyf@x,___fpclassifyf@u
  4121   00490E  C502  F50C         	movff	___fpclassifyf@x+1,___fpclassifyf@u+1
  4122   004912  C503  F50D         	movff	___fpclassifyf@x+2,___fpclassifyf@u+2
  4123   004916  C504  F50E         	movff	___fpclassifyf@x+3,___fpclassifyf@u+3
  4124   00491A  C50B  F505         	movff	___fpclassifyf@u,??___fpclassifyf
  4125   00491E  C50C  F506         	movff	___fpclassifyf@u+1,??___fpclassifyf+1
  4126   004922  C50D  F507         	movff	___fpclassifyf@u+2,??___fpclassifyf+2
  4127   004926  C50E  F508         	movff	___fpclassifyf@u+3,??___fpclassifyf+3
  4128   00492A  0E18               	movlw	24
  4129   00492C  EF9D  F024         	goto	u3070
  4130   004930                     u3075:
  4131   004930  90D8               	bcf	status,0,c
  4132   004932  3208               	rrcf	(??___fpclassifyf+3)^(0+1280),f,c
  4133   004934  3207               	rrcf	(??___fpclassifyf+2)^(0+1280),f,c
  4134   004936  3206               	rrcf	(??___fpclassifyf+1)^(0+1280),f,c
  4135   004938  3205               	rrcf	??___fpclassifyf^(0+1280),f,c
  4136   00493A                     u3070:
  4137   00493A  2EE8               	decfsz	wreg,f,c
  4138   00493C  EF98  F024         	goto	u3075
  4139   004940  5005               	movf	??___fpclassifyf^(0+1280),w,c
  4140   004942  6E09               	movwf	___fpclassifyf@e^(0+1280),c
  4141   004944  6A0A               	clrf	(___fpclassifyf@e+1)^(0+1280),c
  4142   004946  5009               	movf	___fpclassifyf@e^(0+1280),w,c
  4143   004948  100A               	iorwf	(___fpclassifyf@e+1)^(0+1280),w,c
  4144   00494A  A4D8               	btfss	status,2,c
  4145   00494C  EFAA  F024         	goto	u3081
  4146   004950  EFAC  F024         	goto	u3080
  4147   004954                     u3081:
  4148   004954  EFCC  F024         	goto	l3440
  4149   004958                     u3080:
  4150   004958  90D8               	bcf	status,0,c
  4151   00495A  340B               	rlcf	___fpclassifyf@u^(0+1280),w,c
  4152   00495C  6E05               	movwf	??___fpclassifyf^(0+1280),c
  4153   00495E  340C               	rlcf	(___fpclassifyf@u+1)^(0+1280),w,c
  4154   004960  6E06               	movwf	(??___fpclassifyf+1)^(0+1280),c
  4155   004962  340D               	rlcf	(___fpclassifyf@u+2)^(0+1280),w,c
  4156   004964  6E07               	movwf	(??___fpclassifyf+2)^(0+1280),c
  4157   004966  340E               	rlcf	(___fpclassifyf@u+3)^(0+1280),w,c
  4158   004968  6E08               	movwf	(??___fpclassifyf+3)^(0+1280),c
  4159   00496A  5005               	movf	??___fpclassifyf^(0+1280),w,c
  4160   00496C  1006               	iorwf	(??___fpclassifyf+1)^(0+1280),w,c
  4161   00496E  1007               	iorwf	(??___fpclassifyf+2)^(0+1280),w,c
  4162   004970  1008               	iorwf	(??___fpclassifyf+3)^(0+1280),w,c
  4163   004972  A4D8               	btfss	status,2,c
  4164   004974  EFBE  F024         	goto	u3091
  4165   004978  EFC0  F024         	goto	u3090
  4166   00497C                     u3091:
  4167   00497C  EFC6  F024         	goto	l3436
  4168   004980                     u3090:
  4169   004980  0E00               	movlw	0
  4170   004982  6E02               	movwf	(?___fpclassifyf+1)^(0+1280),c
  4171   004984  0E02               	movlw	2
  4172   004986  6E01               	movwf	?___fpclassifyf^(0+1280),c
  4173   004988  EFFB  F024         	goto	l1202
  4174   00498C                     l3436:
  4175   00498C  0E00               	movlw	0
  4176   00498E  6E02               	movwf	(?___fpclassifyf+1)^(0+1280),c
  4177   004990  0E03               	movlw	3
  4178   004992  6E01               	movwf	?___fpclassifyf^(0+1280),c
  4179   004994  EFFB  F024         	goto	l1202
  4180   004998                     l3440:
  4181   004998  2809               	incf	___fpclassifyf@e^(0+1280),w,c
  4182   00499A  100A               	iorwf	(___fpclassifyf@e+1)^(0+1280),w,c
  4183   00499C  A4D8               	btfss	status,2,c
  4184   00499E  EFD3  F024         	goto	u3101
  4185   0049A2  EFD5  F024         	goto	u3100
  4186   0049A6                     u3101:
  4187   0049A6  EFF7  F024         	goto	l3446
  4188   0049AA                     u3100:
  4189   0049AA  C50B  F505         	movff	___fpclassifyf@u,??___fpclassifyf
  4190   0049AE  C50C  F506         	movff	___fpclassifyf@u+1,??___fpclassifyf+1
  4191   0049B2  C50D  F507         	movff	___fpclassifyf@u+2,??___fpclassifyf+2
  4192   0049B6  C50E  F508         	movff	___fpclassifyf@u+3,??___fpclassifyf+3
  4193   0049BA  0E09               	movlw	9
  4194   0049BC                     u3115:
  4195   0049BC  90D8               	bcf	status,0,c
  4196   0049BE  3605               	rlcf	??___fpclassifyf^(0+1280),f,c
  4197   0049C0  3606               	rlcf	(??___fpclassifyf+1)^(0+1280),f,c
  4198   0049C2  3607               	rlcf	(??___fpclassifyf+2)^(0+1280),f,c
  4199   0049C4  3608               	rlcf	(??___fpclassifyf+3)^(0+1280),f,c
  4200   0049C6  2EE8               	decfsz	wreg,f,c
  4201   0049C8  EFDE  F024         	goto	u3115
  4202   0049CC  5005               	movf	??___fpclassifyf^(0+1280),w,c
  4203   0049CE  1006               	iorwf	(??___fpclassifyf+1)^(0+1280),w,c
  4204   0049D0  1007               	iorwf	(??___fpclassifyf+2)^(0+1280),w,c
  4205   0049D2  1008               	iorwf	(??___fpclassifyf+3)^(0+1280),w,c
  4206   0049D4  B4D8               	btfsc	status,2,c
  4207   0049D6  EFEF  F024         	goto	u3121
  4208   0049DA  EFF2  F024         	goto	u3120
  4209   0049DE                     u3121:
  4210   0049DE  0E01               	movlw	1
  4211   0049E0  EFF3  F024         	goto	u3130
  4212   0049E4                     u3120:
  4213   0049E4  0E00               	movlw	0
  4214   0049E6                     u3130:
  4215   0049E6  6E01               	movwf	?___fpclassifyf^(0+1280),c
  4216   0049E8  6A02               	clrf	(?___fpclassifyf+1)^(0+1280),c
  4217   0049EA  EFFB  F024         	goto	l1202
  4218   0049EE                     l3446:
  4219   0049EE  0E00               	movlw	0
  4220   0049F0  6E02               	movwf	(?___fpclassifyf+1)^(0+1280),c
  4221   0049F2  0E04               	movlw	4
  4222   0049F4  6E01               	movwf	?___fpclassifyf^(0+1280),c
  4223   0049F6                     l1202:
  4224   0049F6  0012               	return		;funcret
  4225   0049F8                     __end_of___fpclassifyf:
  4226                           	callstack 0
  4227                           
  4228 ;; *************** function ___fltol *****************
  4229 ;; Defined at:
  4230 ;;		line 43 in file "C:\Program Files\Microchip\xc8\v2.40\pic\sources\c99\common\fltol.c"
  4231 ;; Parameters:    Size  Location     Type
  4232 ;;  f1              4    0[COMRAM] int 
  4233 ;; Auto vars:     Size  Location     Type
  4234 ;;  exp1            1    9[COMRAM] unsigned char 
  4235 ;;  sign1           1    8[COMRAM] unsigned char 
  4236 ;; Return value:  Size  Location     Type
  4237 ;;                  4    0[COMRAM] long 
  4238 ;; Registers used:
  4239 ;;		wreg, status,2, status,0
  4240 ;; Tracked objects:
  4241 ;;		On entry : 0/0
  4242 ;;		On exit  : 0/0
  4243 ;;		Unchanged: 0/0
  4244 ;; Data sizes:     COMRAM   BANK5   BANK6   BANK7   BANK8   BANK9  BANK10  BANK11  BANK12  BANK13  BANK14  BANK15  BANK1
      +6  BANK17  BANK18  BANK19  BANK20  BANK21  BANK22  BANK23  BANK24  BANK25  BANK26  BANK27  BANK28  BANK29  BANK30  BANK3
      +1  BANK32  BANK33  BANK34  BANK35  BANK36
  4245 ;;      Params:         4       0       0       0       0       0       0       0       0       0       0       0       
      +0       0       0       0       0       0       0       0       0       0       0       0       0       0       0       
      +0       0       0       0       0       0
  4246 ;;      Locals:         2       0       0       0       0       0       0       0       0       0       0       0       
      +0       0       0       0       0       0       0       0       0       0       0       0       0       0       0       
      +0       0       0       0       0       0
  4247 ;;      Temps:          4       0       0       0       0       0       0       0       0       0       0       0       
      +0       0       0       0       0       0       0       0       0       0       0       0       0       0       0       
      +0       0       0       0       0       0
  4248 ;;      Totals:        10       0       0       0       0       0       0       0       0       0       0       0       
      +0       0       0       0       0       0       0       0       0       0       0       0       0       0       0       
      +0       0       0       0       0       0
  4249 ;;Total ram usage:       10 bytes
  4250 ;; Hardware stack levels used: 1
  4251 ;; This function calls:
  4252 ;;		Nothing
  4253 ;; This function is called by:
  4254 ;;		_efgtoa
  4255 ;; This function uses a non-reentrant model
  4256 ;;
  4257                           
  4258                           	psect	text14
  4259   0046F0                     __ptext14:
  4260                           	callstack 0
  4261   0046F0                     ___fltol:
  4262                           	callstack 122
  4263   0046F0  3403               	rlcf	(___fltol@f1+2)^(0+1280),w,c
  4264   0046F2  3404               	rlcf	(___fltol@f1+3)^(0+1280),w,c
  4265   0046F4  6E0A               	movwf	___fltol@exp1^(0+1280),c
  4266   0046F6  500A               	movf	___fltol@exp1^(0+1280),w,c
  4267   0046F8  A4D8               	btfss	status,2,c
  4268   0046FA  EF81  F023         	goto	u2981
  4269   0046FE  EF83  F023         	goto	u2980
  4270   004702                     u2981:
  4271   004702  EF8D  F023         	goto	l3376
  4272   004706                     u2980:
  4273   004706                     l3372:
  4274   004706  0E00               	movlw	0
  4275   004708  6E01               	movwf	?___fltol^(0+1280),c
  4276   00470A  0E00               	movlw	0
  4277   00470C  6E02               	movwf	(?___fltol+1)^(0+1280),c
  4278   00470E  0E00               	movlw	0
  4279   004710  6E03               	movwf	(?___fltol+2)^(0+1280),c
  4280   004712  0E00               	movlw	0
  4281   004714  6E04               	movwf	(?___fltol+3)^(0+1280),c
  4282   004716  EFFA  F023         	goto	l674
  4283   00471A                     l3376:
  4284   00471A  C501  F505         	movff	___fltol@f1,??___fltol
  4285   00471E  C502  F506         	movff	___fltol@f1+1,??___fltol+1
  4286   004722  C503  F507         	movff	___fltol@f1+2,??___fltol+2
  4287   004726  C504  F508         	movff	___fltol@f1+3,??___fltol+3
  4288   00472A  0E20               	movlw	32
  4289   00472C  EF9D  F023         	goto	u2990
  4290   004730                     u2995:
  4291   004730  90D8               	bcf	status,0,c
  4292   004732  3208               	rrcf	(??___fltol+3)^(0+1280),f,c
  4293   004734  3207               	rrcf	(??___fltol+2)^(0+1280),f,c
  4294   004736  3206               	rrcf	(??___fltol+1)^(0+1280),f,c
  4295   004738  3205               	rrcf	??___fltol^(0+1280),f,c
  4296   00473A                     u2990:
  4297   00473A  2EE8               	decfsz	wreg,f,c
  4298   00473C  EF98  F023         	goto	u2995
  4299   004740  5005               	movf	??___fltol^(0+1280),w,c
  4300   004742  6E09               	movwf	___fltol@sign1^(0+1280),c
  4301   004744  8E03               	bsf	(___fltol@f1+2)^(0+1280),7,c
  4302   004746  0EFF               	movlw	255
  4303   004748  1601               	andwf	___fltol@f1^(0+1280),f,c
  4304   00474A  0EFF               	movlw	255
  4305   00474C  1602               	andwf	(___fltol@f1+1)^(0+1280),f,c
  4306   00474E  0EFF               	movlw	255
  4307   004750  1603               	andwf	(___fltol@f1+2)^(0+1280),f,c
  4308   004752  0E00               	movlw	0
  4309   004754  1604               	andwf	(___fltol@f1+3)^(0+1280),f,c
  4310   004756  0E96               	movlw	150
  4311   004758  5E0A               	subwf	___fltol@exp1^(0+1280),f,c
  4312   00475A  BE0A               	btfsc	___fltol@exp1^(0+1280),7,c
  4313   00475C  EFB4  F023         	goto	u3000
  4314   004760  EFB2  F023         	goto	u3001
  4315   004764                     u3001:
  4316   004764  EFCA  F023         	goto	l3396
  4317   004768                     u3000:
  4318   004768  500A               	movf	___fltol@exp1^(0+1280),w,c
  4319   00476A  0A80               	xorlw	128
  4320   00476C  0F97               	addlw	151
  4321   00476E  B0D8               	btfsc	status,0,c
  4322   004770  EFBC  F023         	goto	u3011
  4323   004774  EFBE  F023         	goto	u3010
  4324   004778                     u3011:
  4325   004778  EFC0  F023         	goto	l3392
  4326   00477C                     u3010:
  4327   00477C  EF83  F023         	goto	l3372
  4328   004780                     l3392:
  4329   004780  90D8               	bcf	status,0,c
  4330   004782  3204               	rrcf	(___fltol@f1+3)^(0+1280),f,c
  4331   004784  3203               	rrcf	(___fltol@f1+2)^(0+1280),f,c
  4332   004786  3202               	rrcf	(___fltol@f1+1)^(0+1280),f,c
  4333   004788  3201               	rrcf	___fltol@f1^(0+1280),f,c
  4334   00478A  3E0A               	incfsz	___fltol@exp1^(0+1280),f,c
  4335   00478C  EFC0  F023         	goto	l3392
  4336   004790  EFE2  F023         	goto	l3406
  4337   004794                     l3396:
  4338   004794  0E1F               	movlw	31
  4339   004796  640A               	cpfsgt	___fltol@exp1^(0+1280),c
  4340   004798  EFD0  F023         	goto	u3021
  4341   00479C  EFD2  F023         	goto	u3020
  4342   0047A0                     u3021:
  4343   0047A0  EFDA  F023         	goto	l3404
  4344   0047A4                     u3020:
  4345   0047A4  EF83  F023         	goto	l3372
  4346   0047A8                     l3402:
  4347   0047A8  90D8               	bcf	status,0,c
  4348   0047AA  3601               	rlcf	___fltol@f1^(0+1280),f,c
  4349   0047AC  3602               	rlcf	(___fltol@f1+1)^(0+1280),f,c
  4350   0047AE  3603               	rlcf	(___fltol@f1+2)^(0+1280),f,c
  4351   0047B0  3604               	rlcf	(___fltol@f1+3)^(0+1280),f,c
  4352   0047B2  060A               	decf	___fltol@exp1^(0+1280),f,c
  4353   0047B4                     l3404:
  4354   0047B4  500A               	movf	___fltol@exp1^(0+1280),w,c
  4355   0047B6  A4D8               	btfss	status,2,c
  4356   0047B8  EFE0  F023         	goto	u3031
  4357   0047BC  EFE2  F023         	goto	u3030
  4358   0047C0                     u3031:
  4359   0047C0  EFD4  F023         	goto	l3402
  4360   0047C4                     u3030:
  4361   0047C4                     l3406:
  4362   0047C4  5009               	movf	___fltol@sign1^(0+1280),w,c
  4363   0047C6  B4D8               	btfsc	status,2,c
  4364   0047C8  EFE8  F023         	goto	u3041
  4365   0047CC  EFEA  F023         	goto	u3040
  4366   0047D0                     u3041:
  4367   0047D0  EFF2  F023         	goto	l3410
  4368   0047D4                     u3040:
  4369   0047D4  1E04               	comf	(___fltol@f1+3)^(0+1280),f,c
  4370   0047D6  1E03               	comf	(___fltol@f1+2)^(0+1280),f,c
  4371   0047D8  1E02               	comf	(___fltol@f1+1)^(0+1280),f,c
  4372   0047DA  6C01               	negf	___fltol@f1^(0+1280),c
  4373   0047DC  0E00               	movlw	0
  4374   0047DE  2202               	addwfc	(___fltol@f1+1)^(0+1280),f,c
  4375   0047E0  2203               	addwfc	(___fltol@f1+2)^(0+1280),f,c
  4376   0047E2  2204               	addwfc	(___fltol@f1+3)^(0+1280),f,c
  4377   0047E4                     l3410:
  4378   0047E4  C501  F501         	movff	___fltol@f1,?___fltol
  4379   0047E8  C502  F502         	movff	___fltol@f1+1,?___fltol+1
  4380   0047EC  C503  F503         	movff	___fltol@f1+2,?___fltol+2
  4381   0047F0  C504  F504         	movff	___fltol@f1+3,?___fltol+3
  4382   0047F4                     l674:
  4383   0047F4  0012               	return		;funcret
  4384   0047F6                     __end_of___fltol:
  4385                           	callstack 0
  4386                           
  4387 ;; *************** function ___flsub *****************
  4388 ;; Defined at:
  4389 ;;		line 245 in file "C:\Program Files\Microchip\xc8\v2.40\pic\sources\c99\common\sprcadd.c"
  4390 ;; Parameters:    Size  Location     Type
  4391 ;;  b               4   39[COMRAM] long 
  4392 ;;  a               4   43[COMRAM] long 
  4393 ;; Auto vars:     Size  Location     Type
  4394 ;;		None
  4395 ;; Return value:  Size  Location     Type
  4396 ;;                  4   39[COMRAM] long 
  4397 ;; Registers used:
  4398 ;;		wreg, status,2, status,0, cstack
  4399 ;; Tracked objects:
  4400 ;;		On entry : 0/0
  4401 ;;		On exit  : 0/0
  4402 ;;		Unchanged: 0/0
  4403 ;; Data sizes:     COMRAM   BANK5   BANK6   BANK7   BANK8   BANK9  BANK10  BANK11  BANK12  BANK13  BANK14  BANK15  BANK1
      +6  BANK17  BANK18  BANK19  BANK20  BANK21  BANK22  BANK23  BANK24  BANK25  BANK26  BANK27  BANK28  BANK29  BANK30  BANK3
      +1  BANK32  BANK33  BANK34  BANK35  BANK36
  4404 ;;      Params:         8       0       0       0       0       0       0       0       0       0       0       0       
      +0       0       0       0       0       0       0       0       0       0       0       0       0       0       0       
      +0       0       0       0       0       0
  4405 ;;      Locals:         0       0       0       0       0       0       0       0       0       0       0       0       
      +0       0       0       0       0       0       0       0       0       0       0       0       0       0       0       
      +0       0       0       0       0       0
  4406 ;;      Temps:          0       0       0       0       0       0       0       0       0       0       0       0       
      +0       0       0       0       0       0       0       0       0       0       0       0       0       0       0       
      +0       0       0       0       0       0
  4407 ;;      Totals:         8       0       0       0       0       0       0       0       0       0       0       0       
      +0       0       0       0       0       0       0       0       0       0       0       0       0       0       0       
      +0       0       0       0       0       0
  4408 ;;Total ram usage:        8 bytes
  4409 ;; Hardware stack levels used: 1
  4410 ;; Hardware stack levels required when called: 1
  4411 ;; This function calls:
  4412 ;;		___fladd
  4413 ;; This function is called by:
  4414 ;;		_efgtoa
  4415 ;; This function uses a non-reentrant model
  4416 ;;
  4417                           
  4418                           	psect	text15
  4419   004F4A                     __ptext15:
  4420                           	callstack 0
  4421   004F4A                     ___flsub:
  4422                           	callstack 121
  4423   004F4A  0E00               	movlw	0
  4424   004F4C  1A2C               	xorwf	___flsub@a^(0+1280),f,c
  4425   004F4E  0E00               	movlw	0
  4426   004F50  1A2D               	xorwf	(___flsub@a+1)^(0+1280),f,c
  4427   004F52  0E00               	movlw	0
  4428   004F54  1A2E               	xorwf	(___flsub@a+2)^(0+1280),f,c
  4429   004F56  0E80               	movlw	128
  4430   004F58  1A2F               	xorwf	(___flsub@a+3)^(0+1280),f,c
  4431   004F5A  C528  F501         	movff	___flsub@b,___fladd@b
  4432   004F5E  C529  F502         	movff	___flsub@b+1,___fladd@b+1
  4433   004F62  C52A  F503         	movff	___flsub@b+2,___fladd@b+2
  4434   004F66  C52B  F504         	movff	___flsub@b+3,___fladd@b+3
  4435   004F6A  C52C  F505         	movff	___flsub@a,___fladd@a
  4436   004F6E  C52D  F506         	movff	___flsub@a+1,___fladd@a+1
  4437   004F72  C52E  F507         	movff	___flsub@a+2,___fladd@a+2
  4438   004F76  C52F  F508         	movff	___flsub@a+3,___fladd@a+3
  4439   004F7A  EC44  F018         	call	___fladd	;wreg free
  4440   004F7E  C501  F528         	movff	?___fladd,?___flsub
  4441   004F82  C502  F529         	movff	?___fladd+1,?___flsub+1
  4442   004F86  C503  F52A         	movff	?___fladd+2,?___flsub+2
  4443   004F8A  C504  F52B         	movff	?___fladd+3,?___flsub+3
  4444   004F8E  0012               	return		;funcret
  4445   004F90                     __end_of___flsub:
  4446                           	callstack 0
  4447                           
  4448 ;; *************** function ___fladd *****************
  4449 ;; Defined at:
  4450 ;;		line 10 in file "C:\Program Files\Microchip\xc8\v2.40\pic\sources\c99\common\sprcadd.c"
  4451 ;; Parameters:    Size  Location     Type
  4452 ;;  b               4    0[COMRAM] long 
  4453 ;;  a               4    4[COMRAM] long 
  4454 ;; Auto vars:     Size  Location     Type
  4455 ;;  grs             1   15[COMRAM] unsigned char 
  4456 ;;  bexp            1   14[COMRAM] unsigned char 
  4457 ;;  aexp            1   13[COMRAM] unsigned char 
  4458 ;;  signs           1   12[COMRAM] unsigned char 
  4459 ;; Return value:  Size  Location     Type
  4460 ;;                  4    0[COMRAM] unsigned char 
  4461 ;; Registers used:
  4462 ;;		wreg, status,2, status,0
  4463 ;; Tracked objects:
  4464 ;;		On entry : 0/0
  4465 ;;		On exit  : 0/0
  4466 ;;		Unchanged: 0/0
  4467 ;; Data sizes:     COMRAM   BANK5   BANK6   BANK7   BANK8   BANK9  BANK10  BANK11  BANK12  BANK13  BANK14  BANK15  BANK1
      +6  BANK17  BANK18  BANK19  BANK20  BANK21  BANK22  BANK23  BANK24  BANK25  BANK26  BANK27  BANK28  BANK29  BANK30  BANK3
      +1  BANK32  BANK33  BANK34  BANK35  BANK36
  4468 ;;      Params:         8       0       0       0       0       0       0       0       0       0       0       0       
      +0       0       0       0       0       0       0       0       0       0       0       0       0       0       0       
      +0       0       0       0       0       0
  4469 ;;      Locals:         4       0       0       0       0       0       0       0       0       0       0       0       
      +0       0       0       0       0       0       0       0       0       0       0       0       0       0       0       
      +0       0       0       0       0       0
  4470 ;;      Temps:          4       0       0       0       0       0       0       0       0       0       0       0       
      +0       0       0       0       0       0       0       0       0       0       0       0       0       0       0       
      +0       0       0       0       0       0
  4471 ;;      Totals:        16       0       0       0       0       0       0       0       0       0       0       0       
      +0       0       0       0       0       0       0       0       0       0       0       0       0       0       0       
      +0       0       0       0       0       0
  4472 ;;Total ram usage:       16 bytes
  4473 ;; Hardware stack levels used: 1
  4474 ;; This function calls:
  4475 ;;		Nothing
  4476 ;; This function is called by:
  4477 ;;		___flsub
  4478 ;;		_efgtoa
  4479 ;; This function uses a non-reentrant model
  4480 ;;
  4481                           
  4482                           	psect	text16
  4483   003088                     __ptext16:
  4484                           	callstack 0
  4485   003088                     ___fladd:
  4486                           	callstack 121
  4487   003088  5004               	movf	(___fladd@b+3)^(0+1280),w,c
  4488   00308A  0B80               	andlw	128
  4489   00308C  6E0D               	movwf	___fladd@signs^(0+1280),c
  4490   00308E  5004               	movf	(___fladd@b+3)^(0+1280),w,c
  4491   003090  2404               	addwf	(___fladd@b+3)^(0+1280),w,c
  4492   003092  6E0F               	movwf	___fladd@bexp^(0+1280),c
  4493   003094  AE03               	btfss	(___fladd@b+2)^(0+1280),7,c
  4494   003096  EF4F  F018         	goto	u2071
  4495   00309A  EF51  F018         	goto	u2070
  4496   00309E                     u2071:
  4497   00309E  EF52  F018         	goto	l2840
  4498   0030A2                     u2070:
  4499   0030A2  800F               	bsf	___fladd@bexp^(0+1280),0,c
  4500   0030A4                     l2840:
  4501   0030A4  500F               	movf	___fladd@bexp^(0+1280),w,c
  4502   0030A6  B4D8               	btfsc	status,2,c
  4503   0030A8  EF58  F018         	goto	u2081
  4504   0030AC  EF5A  F018         	goto	u2080
  4505   0030B0                     u2081:
  4506   0030B0  EF6F  F018         	goto	l2850
  4507   0030B4                     u2080:
  4508   0030B4  280F               	incf	___fladd@bexp^(0+1280),w,c
  4509   0030B6  A4D8               	btfss	status,2,c
  4510   0030B8  EF60  F018         	goto	u2091
  4511   0030BC  EF62  F018         	goto	u2090
  4512   0030C0                     u2091:
  4513   0030C0  EF6A  F018         	goto	l2846
  4514   0030C4                     u2090:
  4515   0030C4  0E00               	movlw	0
  4516   0030C6  6E01               	movwf	___fladd@b^(0+1280),c
  4517   0030C8  0E00               	movlw	0
  4518   0030CA  6E02               	movwf	(___fladd@b+1)^(0+1280),c
  4519   0030CC  0E00               	movlw	0
  4520   0030CE  6E03               	movwf	(___fladd@b+2)^(0+1280),c
  4521   0030D0  0E00               	movlw	0
  4522   0030D2  6E04               	movwf	(___fladd@b+3)^(0+1280),c
  4523   0030D4                     l2846:
  4524   0030D4  8E03               	bsf	(___fladd@b+2)^(0+1280),7,c
  4525   0030D6  0E00               	movlw	0
  4526   0030D8  6E04               	movwf	(___fladd@b+3)^(0+1280),c
  4527   0030DA  EF77  F018         	goto	l2852
  4528   0030DE                     l2850:
  4529   0030DE  0E00               	movlw	0
  4530   0030E0  6E01               	movwf	___fladd@b^(0+1280),c
  4531   0030E2  0E00               	movlw	0
  4532   0030E4  6E02               	movwf	(___fladd@b+1)^(0+1280),c
  4533   0030E6  0E00               	movlw	0
  4534   0030E8  6E03               	movwf	(___fladd@b+2)^(0+1280),c
  4535   0030EA  0E00               	movlw	0
  4536   0030EC  6E04               	movwf	(___fladd@b+3)^(0+1280),c
  4537   0030EE                     l2852:
  4538   0030EE  5008               	movf	(___fladd@a+3)^(0+1280),w,c
  4539   0030F0  0B80               	andlw	128
  4540   0030F2  6E0E               	movwf	___fladd@aexp^(0+1280),c
  4541   0030F4  500D               	movf	___fladd@signs^(0+1280),w,c
  4542   0030F6  180E               	xorwf	___fladd@aexp^(0+1280),w,c
  4543   0030F8  B4D8               	btfsc	status,2,c
  4544   0030FA  EF81  F018         	goto	u2101
  4545   0030FE  EF83  F018         	goto	u2100
  4546   003102                     u2101:
  4547   003102  EF84  F018         	goto	l2858
  4548   003106                     u2100:
  4549   003106  8C0D               	bsf	___fladd@signs^(0+1280),6,c
  4550   003108                     l2858:
  4551   003108  5008               	movf	(___fladd@a+3)^(0+1280),w,c
  4552   00310A  2408               	addwf	(___fladd@a+3)^(0+1280),w,c
  4553   00310C  6E0E               	movwf	___fladd@aexp^(0+1280),c
  4554   00310E  AE07               	btfss	(___fladd@a+2)^(0+1280),7,c
  4555   003110  EF8C  F018         	goto	u2111
  4556   003114  EF8E  F018         	goto	u2110
  4557   003118                     u2111:
  4558   003118  EF8F  F018         	goto	l2864
  4559   00311C                     u2110:
  4560   00311C  800E               	bsf	___fladd@aexp^(0+1280),0,c
  4561   00311E                     l2864:
  4562   00311E  500E               	movf	___fladd@aexp^(0+1280),w,c
  4563   003120  B4D8               	btfsc	status,2,c
  4564   003122  EF95  F018         	goto	u2121
  4565   003126  EF97  F018         	goto	u2120
  4566   00312A                     u2121:
  4567   00312A  EFAC  F018         	goto	l2874
  4568   00312E                     u2120:
  4569   00312E  280E               	incf	___fladd@aexp^(0+1280),w,c
  4570   003130  A4D8               	btfss	status,2,c
  4571   003132  EF9D  F018         	goto	u2131
  4572   003136  EF9F  F018         	goto	u2130
  4573   00313A                     u2131:
  4574   00313A  EFA7  F018         	goto	l2870
  4575   00313E                     u2130:
  4576   00313E  0E00               	movlw	0
  4577   003140  6E05               	movwf	___fladd@a^(0+1280),c
  4578   003142  0E00               	movlw	0
  4579   003144  6E06               	movwf	(___fladd@a+1)^(0+1280),c
  4580   003146  0E00               	movlw	0
  4581   003148  6E07               	movwf	(___fladd@a+2)^(0+1280),c
  4582   00314A  0E00               	movlw	0
  4583   00314C  6E08               	movwf	(___fladd@a+3)^(0+1280),c
  4584   00314E                     l2870:
  4585   00314E  8E07               	bsf	(___fladd@a+2)^(0+1280),7,c
  4586   003150  0E00               	movlw	0
  4587   003152  6E08               	movwf	(___fladd@a+3)^(0+1280),c
  4588   003154  EFB4  F018         	goto	l2876
  4589   003158                     l2874:
  4590   003158  0E00               	movlw	0
  4591   00315A  6E05               	movwf	___fladd@a^(0+1280),c
  4592   00315C  0E00               	movlw	0
  4593   00315E  6E06               	movwf	(___fladd@a+1)^(0+1280),c
  4594   003160  0E00               	movlw	0
  4595   003162  6E07               	movwf	(___fladd@a+2)^(0+1280),c
  4596   003164  0E00               	movlw	0
  4597   003166  6E08               	movwf	(___fladd@a+3)^(0+1280),c
  4598   003168                     l2876:
  4599   003168  500F               	movf	___fladd@bexp^(0+1280),w,c
  4600   00316A  5C0E               	subwf	___fladd@aexp^(0+1280),w,c
  4601   00316C  B0D8               	btfsc	status,0,c
  4602   00316E  EFBB  F018         	goto	u2141
  4603   003172  EFBD  F018         	goto	u2140
  4604   003176                     u2141:
  4605   003176  EFE4  F018         	goto	l2912
  4606   00317A                     u2140:
  4607   00317A  AC0D               	btfss	___fladd@signs^(0+1280),6,c
  4608   00317C  EFC2  F018         	goto	u2151
  4609   003180  EFC4  F018         	goto	u2150
  4610   003184                     u2151:
  4611   003184  EFC6  F018         	goto	l2882
  4612   003188                     u2150:
  4613   003188  0E80               	movlw	128
  4614   00318A  1A0D               	xorwf	___fladd@signs^(0+1280),f,c
  4615   00318C                     l2882:
  4616   00318C  C50F  F510         	movff	___fladd@bexp,___fladd@grs
  4617   003190  C50E  F50F         	movff	___fladd@aexp,___fladd@bexp
  4618   003194  C510  F50E         	movff	___fladd@grs,___fladd@aexp
  4619   003198  C501  F510         	movff	___fladd@b,___fladd@grs
  4620   00319C  C505  F501         	movff	___fladd@a,___fladd@b
  4621   0031A0  C510  F505         	movff	___fladd@grs,___fladd@a
  4622   0031A4  C502  F510         	movff	___fladd@b+1,___fladd@grs
  4623   0031A8  C506  F502         	movff	___fladd@a+1,___fladd@b+1
  4624   0031AC  C510  F506         	movff	___fladd@grs,___fladd@a+1
  4625   0031B0  C503  F510         	movff	___fladd@b+2,___fladd@grs
  4626   0031B4  C507  F503         	movff	___fladd@a+2,___fladd@b+2
  4627   0031B8  C510  F507         	movff	___fladd@grs,___fladd@a+2
  4628   0031BC  C504  F510         	movff	___fladd@b+3,___fladd@grs
  4629   0031C0  C508  F504         	movff	___fladd@a+3,___fladd@b+3
  4630   0031C4  C510  F508         	movff	___fladd@grs,___fladd@a+3
  4631   0031C8                     l2912:
  4632   0031C8  0E00               	movlw	0
  4633   0031CA  6E10               	movwf	___fladd@grs^(0+1280),c
  4634   0031CC  500F               	movf	___fladd@bexp^(0+1280),w,c
  4635   0031CE  C50E  F509         	movff	___fladd@aexp,??___fladd
  4636   0031D2  6A0A               	clrf	(??___fladd+1)^(0+1280),c
  4637   0031D4  5E09               	subwf	??___fladd^(0+1280),f,c
  4638   0031D6  0E00               	movlw	0
  4639   0031D8  5A0A               	subwfb	(??___fladd+1)^(0+1280),f,c
  4640   0031DA  BE0A               	btfsc	(??___fladd+1)^(0+1280),7,c
  4641   0031DC  EFF9  F018         	goto	u2161
  4642   0031E0  500A               	movf	(??___fladd+1)^(0+1280),w,c
  4643   0031E2  E109               	bnz	u2160
  4644   0031E4  0E1A               	movlw	26
  4645   0031E6  5C09               	subwf	??___fladd^(0+1280),w,c
  4646   0031E8  A0D8               	btfss	status,0,c
  4647   0031EA  EFF9  F018         	goto	u2161
  4648   0031EE  EFFB  F018         	goto	u2160
  4649   0031F2                     u2161:
  4650   0031F2  EF32  F019         	goto	l906
  4651   0031F6                     u2160:
  4652   0031F6  5001               	movf	___fladd@b^(0+1280),w,c
  4653   0031F8  1002               	iorwf	(___fladd@b+1)^(0+1280),w,c
  4654   0031FA  1003               	iorwf	(___fladd@b+2)^(0+1280),w,c
  4655   0031FC  1004               	iorwf	(___fladd@b+3)^(0+1280),w,c
  4656   0031FE  A4D8               	btfss	status,2,c
  4657   003200  EF04  F019         	goto	u2171
  4658   003204  EF07  F019         	goto	u2170
  4659   003208                     u2171:
  4660   003208  0E01               	movlw	1
  4661   00320A  EF08  F019         	goto	u2180
  4662   00320E                     u2170:
  4663   00320E  0E00               	movlw	0
  4664   003210                     u2180:
  4665   003210  6E10               	movwf	___fladd@grs^(0+1280),c
  4666   003212  0E00               	movlw	0
  4667   003214  6E01               	movwf	___fladd@b^(0+1280),c
  4668   003216  0E00               	movlw	0
  4669   003218  6E02               	movwf	(___fladd@b+1)^(0+1280),c
  4670   00321A  0E00               	movlw	0
  4671   00321C  6E03               	movwf	(___fladd@b+2)^(0+1280),c
  4672   00321E  0E00               	movlw	0
  4673   003220  6E04               	movwf	(___fladd@b+3)^(0+1280),c
  4674   003222  C50E  F50F         	movff	___fladd@aexp,___fladd@bexp
  4675   003226  EF3B  F019         	goto	l905
  4676   00322A                     l907:
  4677   00322A  A010               	btfss	___fladd@grs^(0+1280),0,c
  4678   00322C  EF1A  F019         	goto	u2191
  4679   003230  EF1C  F019         	goto	u2190
  4680   003234                     u2191:
  4681   003234  EF22  F019         	goto	l2924
  4682   003238                     u2190:
  4683   003238  90D8               	bcf	status,0,c
  4684   00323A  3010               	rrcf	___fladd@grs^(0+1280),w,c
  4685   00323C  0901               	iorlw	1
  4686   00323E  6E10               	movwf	___fladd@grs^(0+1280),c
  4687   003240  EF24  F019         	goto	l2926
  4688   003244                     l2924:
  4689   003244  90D8               	bcf	status,0,c
  4690   003246  3210               	rrcf	___fladd@grs^(0+1280),f,c
  4691   003248                     l2926:
  4692   003248  A001               	btfss	___fladd@b^(0+1280),0,c
  4693   00324A  EF29  F019         	goto	u2201
  4694   00324E  EF2B  F019         	goto	u2200
  4695   003252                     u2201:
  4696   003252  EF2C  F019         	goto	l2930
  4697   003256                     u2200:
  4698   003256  8E10               	bsf	___fladd@grs^(0+1280),7,c
  4699   003258                     l2930:
  4700   003258  3404               	rlcf	(___fladd@b+3)^(0+1280),w,c
  4701   00325A  3204               	rrcf	(___fladd@b+3)^(0+1280),f,c
  4702   00325C  3203               	rrcf	(___fladd@b+2)^(0+1280),f,c
  4703   00325E  3202               	rrcf	(___fladd@b+1)^(0+1280),f,c
  4704   003260  3201               	rrcf	___fladd@b^(0+1280),f,c
  4705   003262  2A0F               	incf	___fladd@bexp^(0+1280),f,c
  4706   003264                     l906:
  4707   003264  500E               	movf	___fladd@aexp^(0+1280),w,c
  4708   003266  5C0F               	subwf	___fladd@bexp^(0+1280),w,c
  4709   003268  A0D8               	btfss	status,0,c
  4710   00326A  EF39  F019         	goto	u2211
  4711   00326E  EF3B  F019         	goto	u2210
  4712   003272                     u2211:
  4713   003272  EF15  F019         	goto	l907
  4714   003276                     u2210:
  4715   003276                     l905:
  4716   003276  BC0D               	btfsc	___fladd@signs^(0+1280),6,c
  4717   003278  EF40  F019         	goto	u2221
  4718   00327C  EF42  F019         	goto	u2220
  4719   003280                     u2221:
  4720   003280  EF82  F019         	goto	l2958
  4721   003284                     u2220:
  4722   003284  500F               	movf	___fladd@bexp^(0+1280),w,c
  4723   003286  A4D8               	btfss	status,2,c
  4724   003288  EF48  F019         	goto	u2231
  4725   00328C  EF4A  F019         	goto	u2230
  4726   003290                     u2231:
  4727   003290  EF54  F019         	goto	l2940
  4728   003294                     u2230:
  4729   003294  0E00               	movlw	0
  4730   003296  6E01               	movwf	?___fladd^(0+1280),c
  4731   003298  0E00               	movlw	0
  4732   00329A  6E02               	movwf	(?___fladd+1)^(0+1280),c
  4733   00329C  0E00               	movlw	0
  4734   00329E  6E03               	movwf	(?___fladd+2)^(0+1280),c
  4735   0032A0  0E00               	movlw	0
  4736   0032A2  6E04               	movwf	(?___fladd+3)^(0+1280),c
  4737   0032A4  EFA3  F01A         	goto	l914
  4738   0032A8                     l2940:
  4739   0032A8  5005               	movf	___fladd@a^(0+1280),w,c
  4740   0032AA  2601               	addwf	___fladd@b^(0+1280),f,c
  4741   0032AC  5006               	movf	(___fladd@a+1)^(0+1280),w,c
  4742   0032AE  2202               	addwfc	(___fladd@b+1)^(0+1280),f,c
  4743   0032B0  5007               	movf	(___fladd@a+2)^(0+1280),w,c
  4744   0032B2  2203               	addwfc	(___fladd@b+2)^(0+1280),f,c
  4745   0032B4  5008               	movf	(___fladd@a+3)^(0+1280),w,c
  4746   0032B6  2204               	addwfc	(___fladd@b+3)^(0+1280),f,c
  4747   0032B8  A004               	btfss	(___fladd@b+3)^(0+1280),0,c
  4748   0032BA  EF61  F019         	goto	u2241
  4749   0032BE  EF63  F019         	goto	u2240
  4750   0032C2                     u2241:
  4751   0032C2  EF0F  F01A         	goto	l2994
  4752   0032C6                     u2240:
  4753   0032C6  A010               	btfss	___fladd@grs^(0+1280),0,c
  4754   0032C8  EF68  F019         	goto	u2251
  4755   0032CC  EF6A  F019         	goto	u2250
  4756   0032D0                     u2251:
  4757   0032D0  EF70  F019         	goto	l2948
  4758   0032D4                     u2250:
  4759   0032D4  90D8               	bcf	status,0,c
  4760   0032D6  3010               	rrcf	___fladd@grs^(0+1280),w,c
  4761   0032D8  0901               	iorlw	1
  4762   0032DA  6E10               	movwf	___fladd@grs^(0+1280),c
  4763   0032DC  EF72  F019         	goto	l2950
  4764   0032E0                     l2948:
  4765   0032E0  90D8               	bcf	status,0,c
  4766   0032E2  3210               	rrcf	___fladd@grs^(0+1280),f,c
  4767   0032E4                     l2950:
  4768   0032E4  A001               	btfss	___fladd@b^(0+1280),0,c
  4769   0032E6  EF77  F019         	goto	u2261
  4770   0032EA  EF79  F019         	goto	u2260
  4771   0032EE                     u2261:
  4772   0032EE  EF7A  F019         	goto	l2954
  4773   0032F2                     u2260:
  4774   0032F2  8E10               	bsf	___fladd@grs^(0+1280),7,c
  4775   0032F4                     l2954:
  4776   0032F4  3404               	rlcf	(___fladd@b+3)^(0+1280),w,c
  4777   0032F6  3204               	rrcf	(___fladd@b+3)^(0+1280),f,c
  4778   0032F8  3203               	rrcf	(___fladd@b+2)^(0+1280),f,c
  4779   0032FA  3202               	rrcf	(___fladd@b+1)^(0+1280),f,c
  4780   0032FC  3201               	rrcf	___fladd@b^(0+1280),f,c
  4781   0032FE  2A0F               	incf	___fladd@bexp^(0+1280),f,c
  4782   003300  EF0F  F01A         	goto	l2994
  4783   003304                     l2958:
  4784   003304  5005               	movf	___fladd@a^(0+1280),w,c
  4785   003306  5C01               	subwf	___fladd@b^(0+1280),w,c
  4786   003308  5006               	movf	(___fladd@a+1)^(0+1280),w,c
  4787   00330A  5802               	subwfb	(___fladd@b+1)^(0+1280),w,c
  4788   00330C  5007               	movf	(___fladd@a+2)^(0+1280),w,c
  4789   00330E  5803               	subwfb	(___fladd@b+2)^(0+1280),w,c
  4790   003310  5004               	movf	(___fladd@b+3)^(0+1280),w,c
  4791   003312  0A80               	xorlw	128
  4792   003314  6E09               	movwf	??___fladd^(0+1280),c
  4793   003316  5008               	movf	(___fladd@a+3)^(0+1280),w,c
  4794   003318  0A80               	xorlw	128
  4795   00331A  5809               	subwfb	??___fladd^(0+1280),w,c
  4796   00331C  B0D8               	btfsc	status,0,c
  4797   00331E  EF93  F019         	goto	u2271
  4798   003322  EF95  F019         	goto	u2270
  4799   003326                     u2271:
  4800   003326  EFC0  F019         	goto	l2968
  4801   00332A                     u2270:
  4802   00332A  5001               	movf	___fladd@b^(0+1280),w,c
  4803   00332C  5C05               	subwf	___fladd@a^(0+1280),w,c
  4804   00332E  6E09               	movwf	??___fladd^(0+1280),c
  4805   003330  5002               	movf	(___fladd@b+1)^(0+1280),w,c
  4806   003332  5806               	subwfb	(___fladd@a+1)^(0+1280),w,c
  4807   003334  6E0A               	movwf	(??___fladd+1)^(0+1280),c
  4808   003336  5003               	movf	(___fladd@b+2)^(0+1280),w,c
  4809   003338  5807               	subwfb	(___fladd@a+2)^(0+1280),w,c
  4810   00333A  6E0B               	movwf	(??___fladd+2)^(0+1280),c
  4811   00333C  5004               	movf	(___fladd@b+3)^(0+1280),w,c
  4812   00333E  5808               	subwfb	(___fladd@a+3)^(0+1280),w,c
  4813   003340  6E0C               	movwf	(??___fladd+3)^(0+1280),c
  4814   003342  0EFF               	movlw	255
  4815   003344  2409               	addwf	??___fladd^(0+1280),w,c
  4816   003346  6E01               	movwf	___fladd@b^(0+1280),c
  4817   003348  0EFF               	movlw	255
  4818   00334A  200A               	addwfc	(??___fladd+1)^(0+1280),w,c
  4819   00334C  6E02               	movwf	(___fladd@b+1)^(0+1280),c
  4820   00334E  0EFF               	movlw	255
  4821   003350  200B               	addwfc	(??___fladd+2)^(0+1280),w,c
  4822   003352  6E03               	movwf	(___fladd@b+2)^(0+1280),c
  4823   003354  0EFF               	movlw	255
  4824   003356  200C               	addwfc	(??___fladd+3)^(0+1280),w,c
  4825   003358  6E04               	movwf	(___fladd@b+3)^(0+1280),c
  4826   00335A  0E80               	movlw	128
  4827   00335C  1A0D               	xorwf	___fladd@signs^(0+1280),f,c
  4828   00335E  6C10               	negf	___fladd@grs^(0+1280),c
  4829   003360  5010               	movf	___fladd@grs^(0+1280),w,c
  4830   003362  A4D8               	btfss	status,2,c
  4831   003364  EFB6  F019         	goto	u2281
  4832   003368  EFB8  F019         	goto	u2280
  4833   00336C                     u2281:
  4834   00336C  EFC8  F019         	goto	l922
  4835   003370                     u2280:
  4836   003370  0E01               	movlw	1
  4837   003372  2601               	addwf	___fladd@b^(0+1280),f,c
  4838   003374  0E00               	movlw	0
  4839   003376  2202               	addwfc	(___fladd@b+1)^(0+1280),f,c
  4840   003378  2203               	addwfc	(___fladd@b+2)^(0+1280),f,c
  4841   00337A  2204               	addwfc	(___fladd@b+3)^(0+1280),f,c
  4842   00337C  EFC8  F019         	goto	l922
  4843   003380                     l2968:
  4844   003380  5005               	movf	___fladd@a^(0+1280),w,c
  4845   003382  5E01               	subwf	___fladd@b^(0+1280),f,c
  4846   003384  5006               	movf	(___fladd@a+1)^(0+1280),w,c
  4847   003386  5A02               	subwfb	(___fladd@b+1)^(0+1280),f,c
  4848   003388  5007               	movf	(___fladd@a+2)^(0+1280),w,c
  4849   00338A  5A03               	subwfb	(___fladd@b+2)^(0+1280),f,c
  4850   00338C  5008               	movf	(___fladd@a+3)^(0+1280),w,c
  4851   00338E  5A04               	subwfb	(___fladd@b+3)^(0+1280),f,c
  4852   003390                     l922:
  4853   003390  5001               	movf	___fladd@b^(0+1280),w,c
  4854   003392  1002               	iorwf	(___fladd@b+1)^(0+1280),w,c
  4855   003394  1003               	iorwf	(___fladd@b+2)^(0+1280),w,c
  4856   003396  1004               	iorwf	(___fladd@b+3)^(0+1280),w,c
  4857   003398  A4D8               	btfss	status,2,c
  4858   00339A  EFD1  F019         	goto	u2291
  4859   00339E  EFD3  F019         	goto	u2290
  4860   0033A2                     u2291:
  4861   0033A2  EF08  F01A         	goto	l2992
  4862   0033A6                     u2290:
  4863   0033A6  5010               	movf	___fladd@grs^(0+1280),w,c
  4864   0033A8  A4D8               	btfss	status,2,c
  4865   0033AA  EFD9  F019         	goto	u2301
  4866   0033AE  EFDB  F019         	goto	u2300
  4867   0033B2                     u2301:
  4868   0033B2  EF08  F01A         	goto	l2992
  4869   0033B6                     u2300:
  4870   0033B6  0E00               	movlw	0
  4871   0033B8  6E01               	movwf	?___fladd^(0+1280),c
  4872   0033BA  0E00               	movlw	0
  4873   0033BC  6E02               	movwf	(?___fladd+1)^(0+1280),c
  4874   0033BE  0E00               	movlw	0
  4875   0033C0  6E03               	movwf	(?___fladd+2)^(0+1280),c
  4876   0033C2  0E00               	movlw	0
  4877   0033C4  6E04               	movwf	(?___fladd+3)^(0+1280),c
  4878   0033C6  EFA3  F01A         	goto	l914
  4879   0033CA                     l2976:
  4880   0033CA  90D8               	bcf	status,0,c
  4881   0033CC  3601               	rlcf	___fladd@b^(0+1280),f,c
  4882   0033CE  3602               	rlcf	(___fladd@b+1)^(0+1280),f,c
  4883   0033D0  3603               	rlcf	(___fladd@b+2)^(0+1280),f,c
  4884   0033D2  3604               	rlcf	(___fladd@b+3)^(0+1280),f,c
  4885   0033D4  AE10               	btfss	___fladd@grs^(0+1280),7,c
  4886   0033D6  EFEF  F019         	goto	u2311
  4887   0033DA  EFF1  F019         	goto	u2310
  4888   0033DE                     u2311:
  4889   0033DE  EFF2  F019         	goto	l2982
  4890   0033E2                     u2310:
  4891   0033E2  8001               	bsf	___fladd@b^(0+1280),0,c
  4892   0033E4                     l2982:
  4893   0033E4  A010               	btfss	___fladd@grs^(0+1280),0,c
  4894   0033E6  EFF7  F019         	goto	u2321
  4895   0033EA  EFF9  F019         	goto	u2320
  4896   0033EE                     u2321:
  4897   0033EE  EFFD  F019         	goto	l2986
  4898   0033F2                     u2320:
  4899   0033F2  80D8               	bsf	status,0,c
  4900   0033F4  3610               	rlcf	___fladd@grs^(0+1280),f,c
  4901   0033F6  EFFF  F019         	goto	l2988
  4902   0033FA                     l2986:
  4903   0033FA  90D8               	bcf	status,0,c
  4904   0033FC  3610               	rlcf	___fladd@grs^(0+1280),f,c
  4905   0033FE                     l2988:
  4906   0033FE  500F               	movf	___fladd@bexp^(0+1280),w,c
  4907   003400  B4D8               	btfsc	status,2,c
  4908   003402  EF05  F01A         	goto	u2331
  4909   003406  EF07  F01A         	goto	u2330
  4910   00340A                     u2331:
  4911   00340A  EF08  F01A         	goto	l2992
  4912   00340E                     u2330:
  4913   00340E  060F               	decf	___fladd@bexp^(0+1280),f,c
  4914   003410                     l2992:
  4915   003410  AE03               	btfss	(___fladd@b+2)^(0+1280),7,c
  4916   003412  EF0D  F01A         	goto	u2341
  4917   003416  EF0F  F01A         	goto	u2340
  4918   00341A                     u2341:
  4919   00341A  EFE5  F019         	goto	l2976
  4920   00341E                     u2340:
  4921   00341E                     l2994:
  4922   00341E  0E00               	movlw	0
  4923   003420  6E0E               	movwf	___fladd@aexp^(0+1280),c
  4924   003422  AE10               	btfss	___fladd@grs^(0+1280),7,c
  4925   003424  EF16  F01A         	goto	u2351
  4926   003428  EF18  F01A         	goto	u2350
  4927   00342C                     u2351:
  4928   00342C  EF30  F01A         	goto	l931
  4929   003430                     u2350:
  4930   003430  C510  F509         	movff	___fladd@grs,??___fladd
  4931   003434  0E7F               	movlw	127
  4932   003436  1609               	andwf	??___fladd^(0+1280),f,c
  4933   003438  B4D8               	btfsc	status,2,c
  4934   00343A  EF21  F01A         	goto	u2361
  4935   00343E  EF23  F01A         	goto	u2360
  4936   003442                     u2361:
  4937   003442  EF27  F01A         	goto	l932
  4938   003446                     u2360:
  4939   003446                     l3000:
  4940   003446  0E01               	movlw	1
  4941   003448  6E0E               	movwf	___fladd@aexp^(0+1280),c
  4942   00344A  EF30  F01A         	goto	l931
  4943   00344E                     l932:
  4944   00344E  A001               	btfss	___fladd@b^(0+1280),0,c
  4945   003450  EF2C  F01A         	goto	u2371
  4946   003454  EF2E  F01A         	goto	u2370
  4947   003458                     u2371:
  4948   003458  EF30  F01A         	goto	l931
  4949   00345C                     u2370:
  4950   00345C  EF23  F01A         	goto	l3000
  4951   003460                     l931:
  4952   003460  500E               	movf	___fladd@aexp^(0+1280),w,c
  4953   003462  B4D8               	btfsc	status,2,c
  4954   003464  EF36  F01A         	goto	u2381
  4955   003468  EF38  F01A         	goto	u2380
  4956   00346C                     u2381:
  4957   00346C  EF63  F01A         	goto	l3012
  4958   003470                     u2380:
  4959   003470  0E01               	movlw	1
  4960   003472  2601               	addwf	___fladd@b^(0+1280),f,c
  4961   003474  0E00               	movlw	0
  4962   003476  2202               	addwfc	(___fladd@b+1)^(0+1280),f,c
  4963   003478  2203               	addwfc	(___fladd@b+2)^(0+1280),f,c
  4964   00347A  2204               	addwfc	(___fladd@b+3)^(0+1280),f,c
  4965   00347C  A004               	btfss	(___fladd@b+3)^(0+1280),0,c
  4966   00347E  EF43  F01A         	goto	u2391
  4967   003482  EF45  F01A         	goto	u2390
  4968   003486                     u2391:
  4969   003486  EF63  F01A         	goto	l3012
  4970   00348A                     u2390:
  4971   00348A  C501  F509         	movff	___fladd@b,??___fladd
  4972   00348E  C502  F50A         	movff	___fladd@b+1,??___fladd+1
  4973   003492  C503  F50B         	movff	___fladd@b+2,??___fladd+2
  4974   003496  C504  F50C         	movff	___fladd@b+3,??___fladd+3
  4975   00349A  340C               	rlcf	(??___fladd+3)^(0+1280),w,c
  4976   00349C  320C               	rrcf	(??___fladd+3)^(0+1280),f,c
  4977   00349E  320B               	rrcf	(??___fladd+2)^(0+1280),f,c
  4978   0034A0  320A               	rrcf	(??___fladd+1)^(0+1280),f,c
  4979   0034A2  3209               	rrcf	??___fladd^(0+1280),f,c
  4980   0034A4  C509  F501         	movff	??___fladd,___fladd@b
  4981   0034A8  C50A  F502         	movff	??___fladd+1,___fladd@b+1
  4982   0034AC  C50B  F503         	movff	??___fladd+2,___fladd@b+2
  4983   0034B0  C50C  F504         	movff	??___fladd+3,___fladd@b+3
  4984   0034B4  280F               	incf	___fladd@bexp^(0+1280),w,c
  4985   0034B6  B4D8               	btfsc	status,2,c
  4986   0034B8  EF60  F01A         	goto	u2401
  4987   0034BC  EF62  F01A         	goto	u2400
  4988   0034C0                     u2401:
  4989   0034C0  EF63  F01A         	goto	l3012
  4990   0034C4                     u2400:
  4991   0034C4  2A0F               	incf	___fladd@bexp^(0+1280),f,c
  4992   0034C6                     l3012:
  4993   0034C6  280F               	incf	___fladd@bexp^(0+1280),w,c
  4994   0034C8  B4D8               	btfsc	status,2,c
  4995   0034CA  EF69  F01A         	goto	u2411
  4996   0034CE  EF6B  F01A         	goto	u2410
  4997   0034D2                     u2411:
  4998   0034D2  EF73  F01A         	goto	l3016
  4999   0034D6                     u2410:
  5000   0034D6  500F               	movf	___fladd@bexp^(0+1280),w,c
  5001   0034D8  A4D8               	btfss	status,2,c
  5002   0034DA  EF71  F01A         	goto	u2421
  5003   0034DE  EF73  F01A         	goto	u2420
  5004   0034E2                     u2421:
  5005   0034E2  EF85  F01A         	goto	l3020
  5006   0034E6                     u2420:
  5007   0034E6                     l3016:
  5008   0034E6  0E00               	movlw	0
  5009   0034E8  6E01               	movwf	___fladd@b^(0+1280),c
  5010   0034EA  0E00               	movlw	0
  5011   0034EC  6E02               	movwf	(___fladd@b+1)^(0+1280),c
  5012   0034EE  0E00               	movlw	0
  5013   0034F0  6E03               	movwf	(___fladd@b+2)^(0+1280),c
  5014   0034F2  0E00               	movlw	0
  5015   0034F4  6E04               	movwf	(___fladd@b+3)^(0+1280),c
  5016   0034F6  500F               	movf	___fladd@bexp^(0+1280),w,c
  5017   0034F8  A4D8               	btfss	status,2,c
  5018   0034FA  EF81  F01A         	goto	u2431
  5019   0034FE  EF83  F01A         	goto	u2430
  5020   003502                     u2431:
  5021   003502  EF85  F01A         	goto	l3020
  5022   003506                     u2430:
  5023   003506  0E00               	movlw	0
  5024   003508  6E0D               	movwf	___fladd@signs^(0+1280),c
  5025   00350A                     l3020:
  5026   00350A  A00F               	btfss	___fladd@bexp^(0+1280),0,c
  5027   00350C  EF8A  F01A         	goto	u2441
  5028   003510  EF8C  F01A         	goto	u2440
  5029   003514                     u2441:
  5030   003514  EF8F  F01A         	goto	l3024
  5031   003518                     u2440:
  5032   003518  8E03               	bsf	(___fladd@b+2)^(0+1280),7,c
  5033   00351A  EF90  F01A         	goto	l3026
  5034   00351E                     l3024:
  5035   00351E  9E03               	bcf	(___fladd@b+2)^(0+1280),7,c
  5036   003520                     l3026:
  5037   003520  90D8               	bcf	status,0,c
  5038   003522  300F               	rrcf	___fladd@bexp^(0+1280),w,c
  5039   003524  6E04               	movwf	(___fladd@b+3)^(0+1280),c
  5040   003526  AE0D               	btfss	___fladd@signs^(0+1280),7,c
  5041   003528  EF98  F01A         	goto	u2451
  5042   00352C  EF9A  F01A         	goto	u2450
  5043   003530                     u2451:
  5044   003530  EF9B  F01A         	goto	l3032
  5045   003534                     u2450:
  5046   003534  8E04               	bsf	(___fladd@b+3)^(0+1280),7,c
  5047   003536                     l3032:
  5048   003536  C501  F501         	movff	___fladd@b,?___fladd
  5049   00353A  C502  F502         	movff	___fladd@b+1,?___fladd+1
  5050   00353E  C503  F503         	movff	___fladd@b+2,?___fladd+2
  5051   003542  C504  F504         	movff	___fladd@b+3,?___fladd+3
  5052   003546                     l914:
  5053   003546  0012               	return		;funcret
  5054   003548                     __end_of___fladd:
  5055                           	callstack 0
  5056                           
  5057 ;; *************** function ___flneg *****************
  5058 ;; Defined at:
  5059 ;;		line 15 in file "C:\Program Files\Microchip\xc8\v2.40\pic\sources\c99\common\flneg.c"
  5060 ;; Parameters:    Size  Location     Type
  5061 ;;  f1              4    0[COMRAM] unsigned char 
  5062 ;; Auto vars:     Size  Location     Type
  5063 ;;		None
  5064 ;; Return value:  Size  Location     Type
  5065 ;;                  4    0[COMRAM] unsigned char 
  5066 ;; Registers used:
  5067 ;;		wreg, status,2, status,0
  5068 ;; Tracked objects:
  5069 ;;		On entry : 0/0
  5070 ;;		On exit  : 0/0
  5071 ;;		Unchanged: 0/0
  5072 ;; Data sizes:     COMRAM   BANK5   BANK6   BANK7   BANK8   BANK9  BANK10  BANK11  BANK12  BANK13  BANK14  BANK15  BANK1
      +6  BANK17  BANK18  BANK19  BANK20  BANK21  BANK22  BANK23  BANK24  BANK25  BANK26  BANK27  BANK28  BANK29  BANK30  BANK3
      +1  BANK32  BANK33  BANK34  BANK35  BANK36
  5073 ;;      Params:         4       0       0       0       0       0       0       0       0       0       0       0       
      +0       0       0       0       0       0       0       0       0       0       0       0       0       0       0       
      +0       0       0       0       0       0
  5074 ;;      Locals:         0       0       0       0       0       0       0       0       0       0       0       0       
      +0       0       0       0       0       0       0       0       0       0       0       0       0       0       0       
      +0       0       0       0       0       0
  5075 ;;      Temps:          0       0       0       0       0       0       0       0       0       0       0       0       
      +0       0       0       0       0       0       0       0       0       0       0       0       0       0       0       
      +0       0       0       0       0       0
  5076 ;;      Totals:         4       0       0       0       0       0       0       0       0       0       0       0       
      +0       0       0       0       0       0       0       0       0       0       0       0       0       0       0       
      +0       0       0       0       0       0
  5077 ;;Total ram usage:        4 bytes
  5078 ;; Hardware stack levels used: 1
  5079 ;; This function calls:
  5080 ;;		Nothing
  5081 ;; This function is called by:
  5082 ;;		_efgtoa
  5083 ;; This function uses a non-reentrant model
  5084 ;;
  5085                           
  5086                           	psect	text17
  5087   00509A                     __ptext17:
  5088                           	callstack 0
  5089   00509A                     ___flneg:
  5090                           	callstack 122
  5091   00509A  5001               	movf	___flneg@f1^(0+1280),w,c
  5092   00509C  1002               	iorwf	(___flneg@f1+1)^(0+1280),w,c
  5093   00509E  1003               	iorwf	(___flneg@f1+2)^(0+1280),w,c
  5094   0050A0  1004               	iorwf	(___flneg@f1+3)^(0+1280),w,c
  5095   0050A2  B4D8               	btfsc	status,2,c
  5096   0050A4  EF56  F028         	goto	u2971
  5097   0050A8  EF58  F028         	goto	u2970
  5098   0050AC                     u2971:
  5099   0050AC  EF60  F028         	goto	l3366
  5100   0050B0                     u2970:
  5101   0050B0  0E00               	movlw	0
  5102   0050B2  1A01               	xorwf	___flneg@f1^(0+1280),f,c
  5103   0050B4  0E00               	movlw	0
  5104   0050B6  1A02               	xorwf	(___flneg@f1+1)^(0+1280),f,c
  5105   0050B8  0E00               	movlw	0
  5106   0050BA  1A03               	xorwf	(___flneg@f1+2)^(0+1280),f,c
  5107   0050BC  0E80               	movlw	128
  5108   0050BE  1A04               	xorwf	(___flneg@f1+3)^(0+1280),f,c
  5109   0050C0                     l3366:
  5110   0050C0  C501  F501         	movff	___flneg@f1,?___flneg
  5111   0050C4  C502  F502         	movff	___flneg@f1+1,?___flneg+1
  5112   0050C8  C503  F503         	movff	___flneg@f1+2,?___flneg+2
  5113   0050CC  C504  F504         	movff	___flneg@f1+3,?___flneg+3
  5114   0050D0  0012               	return		;funcret
  5115   0050D2                     __end_of___flneg:
  5116                           	callstack 0
  5117                           
  5118 ;; *************** function ___flmul *****************
  5119 ;; Defined at:
  5120 ;;		line 8 in file "C:\Program Files\Microchip\xc8\v2.40\pic\sources\c99\common\sprcmul.c"
  5121 ;; Parameters:    Size  Location     Type
  5122 ;;  b               4   14[COMRAM] unsigned char 
  5123 ;;  a               4   18[COMRAM] unsigned char 
  5124 ;; Auto vars:     Size  Location     Type
  5125 ;;  prod            4   33[COMRAM] struct .
  5126 ;;  grs             4   27[COMRAM] unsigned long 
  5127 ;;  temp            2   37[COMRAM] struct .
  5128 ;;  bexp            1   32[COMRAM] unsigned char 
  5129 ;;  aexp            1   31[COMRAM] unsigned char 
  5130 ;;  sign            1   26[COMRAM] unsigned char 
  5131 ;; Return value:  Size  Location     Type
  5132 ;;                  4   14[COMRAM] unsigned char 
  5133 ;; Registers used:
  5134 ;;		wreg, status,2, status,0, prodl, prodh
  5135 ;; Tracked objects:
  5136 ;;		On entry : 0/0
  5137 ;;		On exit  : 0/0
  5138 ;;		Unchanged: 0/0
  5139 ;; Data sizes:     COMRAM   BANK5   BANK6   BANK7   BANK8   BANK9  BANK10  BANK11  BANK12  BANK13  BANK14  BANK15  BANK1
      +6  BANK17  BANK18  BANK19  BANK20  BANK21  BANK22  BANK23  BANK24  BANK25  BANK26  BANK27  BANK28  BANK29  BANK30  BANK3
      +1  BANK32  BANK33  BANK34  BANK35  BANK36
  5140 ;;      Params:         8       0       0       0       0       0       0       0       0       0       0       0       
      +0       0       0       0       0       0       0       0       0       0       0       0       0       0       0       
      +0       0       0       0       0       0
  5141 ;;      Locals:        13       0       0       0       0       0       0       0       0       0       0       0       
      +0       0       0       0       0       0       0       0       0       0       0       0       0       0       0       
      +0       0       0       0       0       0
  5142 ;;      Temps:          4       0       0       0       0       0       0       0       0       0       0       0       
      +0       0       0       0       0       0       0       0       0       0       0       0       0       0       0       
      +0       0       0       0       0       0
  5143 ;;      Totals:        25       0       0       0       0       0       0       0       0       0       0       0       
      +0       0       0       0       0       0       0       0       0       0       0       0       0       0       0       
      +0       0       0       0       0       0
  5144 ;;Total ram usage:       25 bytes
  5145 ;; Hardware stack levels used: 1
  5146 ;; This function calls:
  5147 ;;		Nothing
  5148 ;; This function is called by:
  5149 ;;		_main
  5150 ;;		_efgtoa
  5151 ;; This function uses a non-reentrant model
  5152 ;;
  5153                           
  5154                           	psect	text18
  5155   003548                     __ptext18:
  5156                           	callstack 0
  5157   003548                     ___flmul:
  5158                           	callstack 122
  5159   003548  5012               	movf	(___flmul@b+3)^(0+1280),w,c
  5160   00354A  0B80               	andlw	128
  5161   00354C  6E1B               	movwf	___flmul@sign^(0+1280),c
  5162   00354E  5012               	movf	(___flmul@b+3)^(0+1280),w,c
  5163   003550  2412               	addwf	(___flmul@b+3)^(0+1280),w,c
  5164   003552  6E21               	movwf	___flmul@bexp^(0+1280),c
  5165   003554  AE11               	btfss	(___flmul@b+2)^(0+1280),7,c
  5166   003556  EFAF  F01A         	goto	u2701
  5167   00355A  EFB1  F01A         	goto	u2700
  5168   00355E                     u2701:
  5169   00355E  EFB2  F01A         	goto	l3194
  5170   003562                     u2700:
  5171   003562  8021               	bsf	___flmul@bexp^(0+1280),0,c
  5172   003564                     l3194:
  5173   003564  5021               	movf	___flmul@bexp^(0+1280),w,c
  5174   003566  B4D8               	btfsc	status,2,c
  5175   003568  EFB8  F01A         	goto	u2711
  5176   00356C  EFBA  F01A         	goto	u2710
  5177   003570                     u2711:
  5178   003570  EFCD  F01A         	goto	l3202
  5179   003574                     u2710:
  5180   003574  2821               	incf	___flmul@bexp^(0+1280),w,c
  5181   003576  A4D8               	btfss	status,2,c
  5182   003578  EFC0  F01A         	goto	u2721
  5183   00357C  EFC2  F01A         	goto	u2720
  5184   003580                     u2721:
  5185   003580  EFCA  F01A         	goto	l3200
  5186   003584                     u2720:
  5187   003584  0E00               	movlw	0
  5188   003586  6E0F               	movwf	___flmul@b^(0+1280),c
  5189   003588  0E00               	movlw	0
  5190   00358A  6E10               	movwf	(___flmul@b+1)^(0+1280),c
  5191   00358C  0E00               	movlw	0
  5192   00358E  6E11               	movwf	(___flmul@b+2)^(0+1280),c
  5193   003590  0E00               	movlw	0
  5194   003592  6E12               	movwf	(___flmul@b+3)^(0+1280),c
  5195   003594                     l3200:
  5196   003594  8E11               	bsf	(___flmul@b+2)^(0+1280),7,c
  5197   003596  EFD5  F01A         	goto	l3204
  5198   00359A                     l3202:
  5199   00359A  0E00               	movlw	0
  5200   00359C  6E0F               	movwf	___flmul@b^(0+1280),c
  5201   00359E  0E00               	movlw	0
  5202   0035A0  6E10               	movwf	(___flmul@b+1)^(0+1280),c
  5203   0035A2  0E00               	movlw	0
  5204   0035A4  6E11               	movwf	(___flmul@b+2)^(0+1280),c
  5205   0035A6  0E00               	movlw	0
  5206   0035A8  6E12               	movwf	(___flmul@b+3)^(0+1280),c
  5207   0035AA                     l3204:
  5208   0035AA  5016               	movf	(___flmul@a+3)^(0+1280),w,c
  5209   0035AC  0B80               	andlw	128
  5210   0035AE  1A1B               	xorwf	___flmul@sign^(0+1280),f,c
  5211   0035B0  5016               	movf	(___flmul@a+3)^(0+1280),w,c
  5212   0035B2  2416               	addwf	(___flmul@a+3)^(0+1280),w,c
  5213   0035B4  6E20               	movwf	___flmul@aexp^(0+1280),c
  5214   0035B6  AE15               	btfss	(___flmul@a+2)^(0+1280),7,c
  5215   0035B8  EFE0  F01A         	goto	u2731
  5216   0035BC  EFE2  F01A         	goto	u2730
  5217   0035C0                     u2731:
  5218   0035C0  EFE3  F01A         	goto	l3212
  5219   0035C4                     u2730:
  5220   0035C4  8020               	bsf	___flmul@aexp^(0+1280),0,c
  5221   0035C6                     l3212:
  5222   0035C6  5020               	movf	___flmul@aexp^(0+1280),w,c
  5223   0035C8  B4D8               	btfsc	status,2,c
  5224   0035CA  EFE9  F01A         	goto	u2741
  5225   0035CE  EFEB  F01A         	goto	u2740
  5226   0035D2                     u2741:
  5227   0035D2  EFFE  F01A         	goto	l3220
  5228   0035D6                     u2740:
  5229   0035D6  2820               	incf	___flmul@aexp^(0+1280),w,c
  5230   0035D8  A4D8               	btfss	status,2,c
  5231   0035DA  EFF1  F01A         	goto	u2751
  5232   0035DE  EFF3  F01A         	goto	u2750
  5233   0035E2                     u2751:
  5234   0035E2  EFFB  F01A         	goto	l3218
  5235   0035E6                     u2750:
  5236   0035E6  0E00               	movlw	0
  5237   0035E8  6E13               	movwf	___flmul@a^(0+1280),c
  5238   0035EA  0E00               	movlw	0
  5239   0035EC  6E14               	movwf	(___flmul@a+1)^(0+1280),c
  5240   0035EE  0E00               	movlw	0
  5241   0035F0  6E15               	movwf	(___flmul@a+2)^(0+1280),c
  5242   0035F2  0E00               	movlw	0
  5243   0035F4  6E16               	movwf	(___flmul@a+3)^(0+1280),c
  5244   0035F6                     l3218:
  5245   0035F6  8E15               	bsf	(___flmul@a+2)^(0+1280),7,c
  5246   0035F8  EF06  F01B         	goto	l991
  5247   0035FC                     l3220:
  5248   0035FC  0E00               	movlw	0
  5249   0035FE  6E13               	movwf	___flmul@a^(0+1280),c
  5250   003600  0E00               	movlw	0
  5251   003602  6E14               	movwf	(___flmul@a+1)^(0+1280),c
  5252   003604  0E00               	movlw	0
  5253   003606  6E15               	movwf	(___flmul@a+2)^(0+1280),c
  5254   003608  0E00               	movlw	0
  5255   00360A  6E16               	movwf	(___flmul@a+3)^(0+1280),c
  5256   00360C                     l991:
  5257   00360C  5020               	movf	___flmul@aexp^(0+1280),w,c
  5258   00360E  B4D8               	btfsc	status,2,c
  5259   003610  EF0C  F01B         	goto	u2761
  5260   003614  EF0E  F01B         	goto	u2760
  5261   003618                     u2761:
  5262   003618  EF16  F01B         	goto	l3224
  5263   00361C                     u2760:
  5264   00361C  5021               	movf	___flmul@bexp^(0+1280),w,c
  5265   00361E  A4D8               	btfss	status,2,c
  5266   003620  EF14  F01B         	goto	u2771
  5267   003624  EF16  F01B         	goto	u2770
  5268   003628                     u2771:
  5269   003628  EF20  F01B         	goto	l3228
  5270   00362C                     u2770:
  5271   00362C                     l3224:
  5272   00362C  0E00               	movlw	0
  5273   00362E  6E0F               	movwf	?___flmul^(0+1280),c
  5274   003630  0E00               	movlw	0
  5275   003632  6E10               	movwf	(?___flmul+1)^(0+1280),c
  5276   003634  0E00               	movlw	0
  5277   003636  6E11               	movwf	(?___flmul+2)^(0+1280),c
  5278   003638  0E00               	movlw	0
  5279   00363A  6E12               	movwf	(?___flmul+3)^(0+1280),c
  5280   00363C  EFB8  F01C         	goto	l995
  5281   003640                     l3228:
  5282   003640  5015               	movf	(___flmul@a+2)^(0+1280),w,c
  5283   003642  020F               	mulwf	___flmul@b^(0+1280),c
  5284   003644  C4F3 F526          	movff	prodl,___flmul@temp
  5285   003648  C4F4 F527          	movff	prodh,___flmul@temp+1
  5286   00364C  5026               	movf	___flmul@temp^(0+1280),w,c
  5287   00364E  6E1C               	movwf	___flmul@grs^(0+1280),c
  5288   003650  6A1D               	clrf	(___flmul@grs+1)^(0+1280),c
  5289   003652  6A1E               	clrf	(___flmul@grs+2)^(0+1280),c
  5290   003654  6A1F               	clrf	(___flmul@grs+3)^(0+1280),c
  5291   003656  5027               	movf	(___flmul@temp+1)^(0+1280),w,c
  5292   003658  6E22               	movwf	___flmul@prod^(0+1280),c
  5293   00365A  6A23               	clrf	(___flmul@prod+1)^(0+1280),c
  5294   00365C  6A24               	clrf	(___flmul@prod+2)^(0+1280),c
  5295   00365E  6A25               	clrf	(___flmul@prod+3)^(0+1280),c
  5296   003660  5014               	movf	(___flmul@a+1)^(0+1280),w,c
  5297   003662  0210               	mulwf	(___flmul@b+1)^(0+1280),c
  5298   003664  C4F3 F526          	movff	prodl,___flmul@temp
  5299   003668  C4F4 F527          	movff	prodh,___flmul@temp+1
  5300   00366C  5026               	movf	___flmul@temp^(0+1280),w,c
  5301   00366E  261C               	addwf	___flmul@grs^(0+1280),f,c
  5302   003670  0E00               	movlw	0
  5303   003672  221D               	addwfc	(___flmul@grs+1)^(0+1280),f,c
  5304   003674  221E               	addwfc	(___flmul@grs+2)^(0+1280),f,c
  5305   003676  221F               	addwfc	(___flmul@grs+3)^(0+1280),f,c
  5306   003678  5027               	movf	(___flmul@temp+1)^(0+1280),w,c
  5307   00367A  2622               	addwf	___flmul@prod^(0+1280),f,c
  5308   00367C  0E00               	movlw	0
  5309   00367E  2223               	addwfc	(___flmul@prod+1)^(0+1280),f,c
  5310   003680  2224               	addwfc	(___flmul@prod+2)^(0+1280),f,c
  5311   003682  2225               	addwfc	(___flmul@prod+3)^(0+1280),f,c
  5312   003684  5013               	movf	___flmul@a^(0+1280),w,c
  5313   003686  0211               	mulwf	(___flmul@b+2)^(0+1280),c
  5314   003688  C4F3 F526          	movff	prodl,___flmul@temp
  5315   00368C  C4F4 F527          	movff	prodh,___flmul@temp+1
  5316   003690  5026               	movf	___flmul@temp^(0+1280),w,c
  5317   003692  261C               	addwf	___flmul@grs^(0+1280),f,c
  5318   003694  0E00               	movlw	0
  5319   003696  221D               	addwfc	(___flmul@grs+1)^(0+1280),f,c
  5320   003698  221E               	addwfc	(___flmul@grs+2)^(0+1280),f,c
  5321   00369A  221F               	addwfc	(___flmul@grs+3)^(0+1280),f,c
  5322   00369C  5027               	movf	(___flmul@temp+1)^(0+1280),w,c
  5323   00369E  2622               	addwf	___flmul@prod^(0+1280),f,c
  5324   0036A0  0E00               	movlw	0
  5325   0036A2  2223               	addwfc	(___flmul@prod+1)^(0+1280),f,c
  5326   0036A4  2224               	addwfc	(___flmul@prod+2)^(0+1280),f,c
  5327   0036A6  2225               	addwfc	(___flmul@prod+3)^(0+1280),f,c
  5328   0036A8  C51E  F51F         	movff	___flmul@grs+2,___flmul@grs+3
  5329   0036AC  C51D  F51E         	movff	___flmul@grs+1,___flmul@grs+2
  5330   0036B0  C51C  F51D         	movff	___flmul@grs,___flmul@grs+1
  5331   0036B4  6A1C               	clrf	___flmul@grs^(0+1280),c
  5332   0036B6  5013               	movf	___flmul@a^(0+1280),w,c
  5333   0036B8  0210               	mulwf	(___flmul@b+1)^(0+1280),c
  5334   0036BA  C4F3 F526          	movff	prodl,___flmul@temp
  5335   0036BE  C4F4 F527          	movff	prodh,___flmul@temp+1
  5336   0036C2  5026               	movf	___flmul@temp^(0+1280),w,c
  5337   0036C4  261C               	addwf	___flmul@grs^(0+1280),f,c
  5338   0036C6  5027               	movf	(___flmul@temp+1)^(0+1280),w,c
  5339   0036C8  221D               	addwfc	(___flmul@grs+1)^(0+1280),f,c
  5340   0036CA  0E00               	movlw	0
  5341   0036CC  221E               	addwfc	(___flmul@grs+2)^(0+1280),f,c
  5342   0036CE  0E00               	movlw	0
  5343   0036D0  221F               	addwfc	(___flmul@grs+3)^(0+1280),f,c
  5344   0036D2  5014               	movf	(___flmul@a+1)^(0+1280),w,c
  5345   0036D4  020F               	mulwf	___flmul@b^(0+1280),c
  5346   0036D6  C4F3 F526          	movff	prodl,___flmul@temp
  5347   0036DA  C4F4 F527          	movff	prodh,___flmul@temp+1
  5348   0036DE  5026               	movf	___flmul@temp^(0+1280),w,c
  5349   0036E0  261C               	addwf	___flmul@grs^(0+1280),f,c
  5350   0036E2  5027               	movf	(___flmul@temp+1)^(0+1280),w,c
  5351   0036E4  221D               	addwfc	(___flmul@grs+1)^(0+1280),f,c
  5352   0036E6  0E00               	movlw	0
  5353   0036E8  221E               	addwfc	(___flmul@grs+2)^(0+1280),f,c
  5354   0036EA  0E00               	movlw	0
  5355   0036EC  221F               	addwfc	(___flmul@grs+3)^(0+1280),f,c
  5356   0036EE  C51E  F51F         	movff	___flmul@grs+2,___flmul@grs+3
  5357   0036F2  C51D  F51E         	movff	___flmul@grs+1,___flmul@grs+2
  5358   0036F6  C51C  F51D         	movff	___flmul@grs,___flmul@grs+1
  5359   0036FA  6A1C               	clrf	___flmul@grs^(0+1280),c
  5360   0036FC  5013               	movf	___flmul@a^(0+1280),w,c
  5361   0036FE  020F               	mulwf	___flmul@b^(0+1280),c
  5362   003700  C4F3 F526          	movff	prodl,___flmul@temp
  5363   003704  C4F4 F527          	movff	prodh,___flmul@temp+1
  5364   003708  5026               	movf	___flmul@temp^(0+1280),w,c
  5365   00370A  261C               	addwf	___flmul@grs^(0+1280),f,c
  5366   00370C  5027               	movf	(___flmul@temp+1)^(0+1280),w,c
  5367   00370E  221D               	addwfc	(___flmul@grs+1)^(0+1280),f,c
  5368   003710  0E00               	movlw	0
  5369   003712  221E               	addwfc	(___flmul@grs+2)^(0+1280),f,c
  5370   003714  0E00               	movlw	0
  5371   003716  221F               	addwfc	(___flmul@grs+3)^(0+1280),f,c
  5372   003718  5015               	movf	(___flmul@a+2)^(0+1280),w,c
  5373   00371A  0210               	mulwf	(___flmul@b+1)^(0+1280),c
  5374   00371C  C4F3 F526          	movff	prodl,___flmul@temp
  5375   003720  C4F4 F527          	movff	prodh,___flmul@temp+1
  5376   003724  5026               	movf	___flmul@temp^(0+1280),w,c
  5377   003726  2622               	addwf	___flmul@prod^(0+1280),f,c
  5378   003728  5027               	movf	(___flmul@temp+1)^(0+1280),w,c
  5379   00372A  2223               	addwfc	(___flmul@prod+1)^(0+1280),f,c
  5380   00372C  0E00               	movlw	0
  5381   00372E  2224               	addwfc	(___flmul@prod+2)^(0+1280),f,c
  5382   003730  0E00               	movlw	0
  5383   003732  2225               	addwfc	(___flmul@prod+3)^(0+1280),f,c
  5384   003734  5014               	movf	(___flmul@a+1)^(0+1280),w,c
  5385   003736  0211               	mulwf	(___flmul@b+2)^(0+1280),c
  5386   003738  C4F3 F526          	movff	prodl,___flmul@temp
  5387   00373C  C4F4 F527          	movff	prodh,___flmul@temp+1
  5388   003740  5026               	movf	___flmul@temp^(0+1280),w,c
  5389   003742  2622               	addwf	___flmul@prod^(0+1280),f,c
  5390   003744  5027               	movf	(___flmul@temp+1)^(0+1280),w,c
  5391   003746  2223               	addwfc	(___flmul@prod+1)^(0+1280),f,c
  5392   003748  0E00               	movlw	0
  5393   00374A  2224               	addwfc	(___flmul@prod+2)^(0+1280),f,c
  5394   00374C  0E00               	movlw	0
  5395   00374E  2225               	addwfc	(___flmul@prod+3)^(0+1280),f,c
  5396   003750  5015               	movf	(___flmul@a+2)^(0+1280),w,c
  5397   003752  0211               	mulwf	(___flmul@b+2)^(0+1280),c
  5398   003754  C4F3 F526          	movff	prodl,___flmul@temp
  5399   003758  C4F4 F527          	movff	prodh,___flmul@temp+1
  5400   00375C  5026               	movf	___flmul@temp^(0+1280),w,c
  5401   00375E  6E17               	movwf	??___flmul^(0+1280),c
  5402   003760  5027               	movf	(___flmul@temp+1)^(0+1280),w,c
  5403   003762  6E18               	movwf	(??___flmul+1)^(0+1280),c
  5404   003764  6A19               	clrf	(??___flmul+2)^(0+1280),c
  5405   003766  6A1A               	clrf	(??___flmul+3)^(0+1280),c
  5406   003768  C519  F51A         	movff	??___flmul+2,??___flmul+3
  5407   00376C  C518  F519         	movff	??___flmul+1,??___flmul+2
  5408   003770  C517  F518         	movff	??___flmul,??___flmul+1
  5409   003774  6A17               	clrf	??___flmul^(0+1280),c
  5410   003776  5017               	movf	??___flmul^(0+1280),w,c
  5411   003778  2622               	addwf	___flmul@prod^(0+1280),f,c
  5412   00377A  5018               	movf	(??___flmul+1)^(0+1280),w,c
  5413   00377C  2223               	addwfc	(___flmul@prod+1)^(0+1280),f,c
  5414   00377E  5019               	movf	(??___flmul+2)^(0+1280),w,c
  5415   003780  2224               	addwfc	(___flmul@prod+2)^(0+1280),f,c
  5416   003782  501A               	movf	(??___flmul+3)^(0+1280),w,c
  5417   003784  2225               	addwfc	(___flmul@prod+3)^(0+1280),f,c
  5418   003786  C51C  F517         	movff	___flmul@grs,??___flmul
  5419   00378A  C51D  F518         	movff	___flmul@grs+1,??___flmul+1
  5420   00378E  C51E  F519         	movff	___flmul@grs+2,??___flmul+2
  5421   003792  C51F  F51A         	movff	___flmul@grs+3,??___flmul+3
  5422   003796  0E19               	movlw	25
  5423   003798  EFD3  F01B         	goto	u2780
  5424   00379C                     u2785:
  5425   00379C  90D8               	bcf	status,0,c
  5426   00379E  321A               	rrcf	(??___flmul+3)^(0+1280),f,c
  5427   0037A0  3219               	rrcf	(??___flmul+2)^(0+1280),f,c
  5428   0037A2  3218               	rrcf	(??___flmul+1)^(0+1280),f,c
  5429   0037A4  3217               	rrcf	??___flmul^(0+1280),f,c
  5430   0037A6                     u2780:
  5431   0037A6  2EE8               	decfsz	wreg,f,c
  5432   0037A8  EFCE  F01B         	goto	u2785
  5433   0037AC  5017               	movf	??___flmul^(0+1280),w,c
  5434   0037AE  2622               	addwf	___flmul@prod^(0+1280),f,c
  5435   0037B0  5018               	movf	(??___flmul+1)^(0+1280),w,c
  5436   0037B2  2223               	addwfc	(___flmul@prod+1)^(0+1280),f,c
  5437   0037B4  5019               	movf	(??___flmul+2)^(0+1280),w,c
  5438   0037B6  2224               	addwfc	(___flmul@prod+2)^(0+1280),f,c
  5439   0037B8  501A               	movf	(??___flmul+3)^(0+1280),w,c
  5440   0037BA  2225               	addwfc	(___flmul@prod+3)^(0+1280),f,c
  5441   0037BC  C51E  F51F         	movff	___flmul@grs+2,___flmul@grs+3
  5442   0037C0  C51D  F51E         	movff	___flmul@grs+1,___flmul@grs+2
  5443   0037C4  C51C  F51D         	movff	___flmul@grs,___flmul@grs+1
  5444   0037C8  6A1C               	clrf	___flmul@grs^(0+1280),c
  5445   0037CA  5020               	movf	___flmul@aexp^(0+1280),w,c
  5446   0037CC  C521  F517         	movff	___flmul@bexp,??___flmul
  5447   0037D0  6A18               	clrf	(??___flmul+1)^(0+1280),c
  5448   0037D2  2617               	addwf	??___flmul^(0+1280),f,c
  5449   0037D4  0E00               	movlw	0
  5450   0037D6  2218               	addwfc	(??___flmul+1)^(0+1280),f,c
  5451   0037D8  0E82               	movlw	130
  5452   0037DA  2417               	addwf	??___flmul^(0+1280),w,c
  5453   0037DC  6E26               	movwf	___flmul@temp^(0+1280),c
  5454   0037DE  0EFF               	movlw	255
  5455   0037E0  2018               	addwfc	(??___flmul+1)^(0+1280),w,c
  5456   0037E2  6E27               	movwf	(___flmul@temp+1)^(0+1280),c
  5457   0037E4  EF09  F01C         	goto	l3276
  5458   0037E8                     l3270:
  5459   0037E8  90D8               	bcf	status,0,c
  5460   0037EA  3622               	rlcf	___flmul@prod^(0+1280),f,c
  5461   0037EC  3623               	rlcf	(___flmul@prod+1)^(0+1280),f,c
  5462   0037EE  3624               	rlcf	(___flmul@prod+2)^(0+1280),f,c
  5463   0037F0  3625               	rlcf	(___flmul@prod+3)^(0+1280),f,c
  5464   0037F2  AE1F               	btfss	(___flmul@grs+3)^(0+1280),7,c
  5465   0037F4  EFFE  F01B         	goto	u2791
  5466   0037F8  EF00  F01C         	goto	u2790
  5467   0037FC                     u2791:
  5468   0037FC  EF01  F01C         	goto	l998
  5469   003800                     u2790:
  5470   003800  8022               	bsf	___flmul@prod^(0+1280),0,c
  5471   003802                     l998:
  5472   003802  90D8               	bcf	status,0,c
  5473   003804  361C               	rlcf	___flmul@grs^(0+1280),f,c
  5474   003806  361D               	rlcf	(___flmul@grs+1)^(0+1280),f,c
  5475   003808  361E               	rlcf	(___flmul@grs+2)^(0+1280),f,c
  5476   00380A  361F               	rlcf	(___flmul@grs+3)^(0+1280),f,c
  5477   00380C  0626               	decf	___flmul@temp^(0+1280),f,c
  5478   00380E  A0D8               	btfss	status,0,c
  5479   003810  0627               	decf	(___flmul@temp+1)^(0+1280),f,c
  5480   003812                     l3276:
  5481   003812  AE24               	btfss	(___flmul@prod+2)^(0+1280),7,c
  5482   003814  EF0E  F01C         	goto	u2801
  5483   003818  EF10  F01C         	goto	u2800
  5484   00381C                     u2801:
  5485   00381C  EFF4  F01B         	goto	l3270
  5486   003820                     u2800:
  5487   003820  0E00               	movlw	0
  5488   003822  6E20               	movwf	___flmul@aexp^(0+1280),c
  5489   003824  AE1F               	btfss	(___flmul@grs+3)^(0+1280),7,c
  5490   003826  EF17  F01C         	goto	u2811
  5491   00382A  EF19  F01C         	goto	u2810
  5492   00382E                     u2811:
  5493   00382E  EF3D  F01C         	goto	l1000
  5494   003832                     u2810:
  5495   003832  0EFF               	movlw	255
  5496   003834  141C               	andwf	___flmul@grs^(0+1280),w,c
  5497   003836  6E17               	movwf	??___flmul^(0+1280),c
  5498   003838  0EFF               	movlw	255
  5499   00383A  141D               	andwf	(___flmul@grs+1)^(0+1280),w,c
  5500   00383C  6E18               	movwf	(??___flmul+1)^(0+1280),c
  5501   00383E  0EFF               	movlw	255
  5502   003840  141E               	andwf	(___flmul@grs+2)^(0+1280),w,c
  5503   003842  6E19               	movwf	(??___flmul+2)^(0+1280),c
  5504   003844  0E7F               	movlw	127
  5505   003846  141F               	andwf	(___flmul@grs+3)^(0+1280),w,c
  5506   003848  6E1A               	movwf	(??___flmul+3)^(0+1280),c
  5507   00384A  5017               	movf	??___flmul^(0+1280),w,c
  5508   00384C  1018               	iorwf	(??___flmul+1)^(0+1280),w,c
  5509   00384E  1019               	iorwf	(??___flmul+2)^(0+1280),w,c
  5510   003850  101A               	iorwf	(??___flmul+3)^(0+1280),w,c
  5511   003852  B4D8               	btfsc	status,2,c
  5512   003854  EF2E  F01C         	goto	u2821
  5513   003858  EF30  F01C         	goto	u2820
  5514   00385C                     u2821:
  5515   00385C  EF34  F01C         	goto	l1001
  5516   003860                     u2820:
  5517   003860                     l3284:
  5518   003860  0E01               	movlw	1
  5519   003862  6E20               	movwf	___flmul@aexp^(0+1280),c
  5520   003864  EF3D  F01C         	goto	l1000
  5521   003868                     l1001:
  5522   003868  A022               	btfss	___flmul@prod^(0+1280),0,c
  5523   00386A  EF39  F01C         	goto	u2831
  5524   00386E  EF3B  F01C         	goto	u2830
  5525   003872                     u2831:
  5526   003872  EF3D  F01C         	goto	l1000
  5527   003876                     u2830:
  5528   003876  EF30  F01C         	goto	l3284
  5529   00387A                     l1000:
  5530   00387A  5020               	movf	___flmul@aexp^(0+1280),w,c
  5531   00387C  B4D8               	btfsc	status,2,c
  5532   00387E  EF43  F01C         	goto	u2841
  5533   003882  EF45  F01C         	goto	u2840
  5534   003886                     u2841:
  5535   003886  EF69  F01C         	goto	l3296
  5536   00388A                     u2840:
  5537   00388A  0E01               	movlw	1
  5538   00388C  2622               	addwf	___flmul@prod^(0+1280),f,c
  5539   00388E  0E00               	movlw	0
  5540   003890  2223               	addwfc	(___flmul@prod+1)^(0+1280),f,c
  5541   003892  2224               	addwfc	(___flmul@prod+2)^(0+1280),f,c
  5542   003894  2225               	addwfc	(___flmul@prod+3)^(0+1280),f,c
  5543   003896  A025               	btfss	(___flmul@prod+3)^(0+1280),0,c
  5544   003898  EF50  F01C         	goto	u2851
  5545   00389C  EF52  F01C         	goto	u2850
  5546   0038A0                     u2851:
  5547   0038A0  EF69  F01C         	goto	l3296
  5548   0038A4                     u2850:
  5549   0038A4  C522  F517         	movff	___flmul@prod,??___flmul
  5550   0038A8  C523  F518         	movff	___flmul@prod+1,??___flmul+1
  5551   0038AC  C524  F519         	movff	___flmul@prod+2,??___flmul+2
  5552   0038B0  C525  F51A         	movff	___flmul@prod+3,??___flmul+3
  5553   0038B4  341A               	rlcf	(??___flmul+3)^(0+1280),w,c
  5554   0038B6  321A               	rrcf	(??___flmul+3)^(0+1280),f,c
  5555   0038B8  3219               	rrcf	(??___flmul+2)^(0+1280),f,c
  5556   0038BA  3218               	rrcf	(??___flmul+1)^(0+1280),f,c
  5557   0038BC  3217               	rrcf	??___flmul^(0+1280),f,c
  5558   0038BE  C517  F522         	movff	??___flmul,___flmul@prod
  5559   0038C2  C518  F523         	movff	??___flmul+1,___flmul@prod+1
  5560   0038C6  C519  F524         	movff	??___flmul+2,___flmul@prod+2
  5561   0038CA  C51A  F525         	movff	??___flmul+3,___flmul@prod+3
  5562   0038CE  4A26               	infsnz	___flmul@temp^(0+1280),f,c
  5563   0038D0  2A27               	incf	(___flmul@temp+1)^(0+1280),f,c
  5564   0038D2                     l3296:
  5565   0038D2  BE27               	btfsc	(___flmul@temp+1)^(0+1280),7,c
  5566   0038D4  EF74  F01C         	goto	u2861
  5567   0038D8  5027               	movf	(___flmul@temp+1)^(0+1280),w,c
  5568   0038DA  E108               	bnz	u2860
  5569   0038DC  2826               	incf	___flmul@temp^(0+1280),w,c
  5570   0038DE  A0D8               	btfss	status,0,c
  5571   0038E0  EF74  F01C         	goto	u2861
  5572   0038E4  EF76  F01C         	goto	u2860
  5573   0038E8                     u2861:
  5574   0038E8  EF80  F01C         	goto	l3300
  5575   0038EC                     u2860:
  5576   0038EC  0E00               	movlw	0
  5577   0038EE  6E22               	movwf	___flmul@prod^(0+1280),c
  5578   0038F0  0E00               	movlw	0
  5579   0038F2  6E23               	movwf	(___flmul@prod+1)^(0+1280),c
  5580   0038F4  0E80               	movlw	128
  5581   0038F6  6E24               	movwf	(___flmul@prod+2)^(0+1280),c
  5582   0038F8  0E7F               	movlw	127
  5583   0038FA  6E25               	movwf	(___flmul@prod+3)^(0+1280),c
  5584   0038FC  EFAE  F01C         	goto	l3312
  5585   003900                     l3300:
  5586   003900  BE27               	btfsc	(___flmul@temp+1)^(0+1280),7,c
  5587   003902  EF8D  F01C         	goto	u2870
  5588   003906  5027               	movf	(___flmul@temp+1)^(0+1280),w,c
  5589   003908  E106               	bnz	u2871
  5590   00390A  0426               	decf	___flmul@temp^(0+1280),w,c
  5591   00390C  B0D8               	btfsc	status,0,c
  5592   00390E  EF8B  F01C         	goto	u2871
  5593   003912  EF8D  F01C         	goto	u2870
  5594   003916                     u2871:
  5595   003916  EF99  F01C         	goto	l1008
  5596   00391A                     u2870:
  5597   00391A  0E00               	movlw	0
  5598   00391C  6E22               	movwf	___flmul@prod^(0+1280),c
  5599   00391E  0E00               	movlw	0
  5600   003920  6E23               	movwf	(___flmul@prod+1)^(0+1280),c
  5601   003922  0E00               	movlw	0
  5602   003924  6E24               	movwf	(___flmul@prod+2)^(0+1280),c
  5603   003926  0E00               	movlw	0
  5604   003928  6E25               	movwf	(___flmul@prod+3)^(0+1280),c
  5605   00392A  0E00               	movlw	0
  5606   00392C  6E1B               	movwf	___flmul@sign^(0+1280),c
  5607   00392E  EFAE  F01C         	goto	l3312
  5608   003932                     l1008:
  5609   003932  C526  F521         	movff	___flmul@temp,___flmul@bexp
  5610   003936  0EFF               	movlw	255
  5611   003938  1622               	andwf	___flmul@prod^(0+1280),f,c
  5612   00393A  0EFF               	movlw	255
  5613   00393C  1623               	andwf	(___flmul@prod+1)^(0+1280),f,c
  5614   00393E  0E7F               	movlw	127
  5615   003940  1624               	andwf	(___flmul@prod+2)^(0+1280),f,c
  5616   003942  0E00               	movlw	0
  5617   003944  1625               	andwf	(___flmul@prod+3)^(0+1280),f,c
  5618   003946  A021               	btfss	___flmul@bexp^(0+1280),0,c
  5619   003948  EFA8  F01C         	goto	u2881
  5620   00394C  EFAA  F01C         	goto	u2880
  5621   003950                     u2881:
  5622   003950  EFAB  F01C         	goto	l3310
  5623   003954                     u2880:
  5624   003954  8E24               	bsf	(___flmul@prod+2)^(0+1280),7,c
  5625   003956                     l3310:
  5626   003956  90D8               	bcf	status,0,c
  5627   003958  3021               	rrcf	___flmul@bexp^(0+1280),w,c
  5628   00395A  6E25               	movwf	(___flmul@prod+3)^(0+1280),c
  5629   00395C                     l3312:
  5630   00395C  501B               	movf	___flmul@sign^(0+1280),w,c
  5631   00395E  1225               	iorwf	(___flmul@prod+3)^(0+1280),f,c
  5632   003960  C522  F50F         	movff	___flmul@prod,?___flmul
  5633   003964  C523  F510         	movff	___flmul@prod+1,?___flmul+1
  5634   003968  C524  F511         	movff	___flmul@prod+2,?___flmul+2
  5635   00396C  C525  F512         	movff	___flmul@prod+3,?___flmul+3
  5636   003970                     l995:
  5637   003970  0012               	return		;funcret
  5638   003972                     __end_of___flmul:
  5639                           	callstack 0
  5640                           
  5641 ;; *************** function ___flge *****************
  5642 ;; Defined at:
  5643 ;;		line 4 in file "C:\Program Files\Microchip\xc8\v2.40\pic\sources\c99\common\flge.c"
  5644 ;; Parameters:    Size  Location     Type
  5645 ;;  ff1             4   39[COMRAM] unsigned char 
  5646 ;;  ff2             4   43[COMRAM] unsigned char 
  5647 ;; Auto vars:     Size  Location     Type
  5648 ;;		None
  5649 ;; Return value:  Size  Location     Type
  5650 ;;		None               void
  5651 ;; Registers used:
  5652 ;;		wreg, status,2, status,0
  5653 ;; Tracked objects:
  5654 ;;		On entry : 0/0
  5655 ;;		On exit  : 0/0
  5656 ;;		Unchanged: 0/0
  5657 ;; Data sizes:     COMRAM   BANK5   BANK6   BANK7   BANK8   BANK9  BANK10  BANK11  BANK12  BANK13  BANK14  BANK15  BANK1
      +6  BANK17  BANK18  BANK19  BANK20  BANK21  BANK22  BANK23  BANK24  BANK25  BANK26  BANK27  BANK28  BANK29  BANK30  BANK3
      +1  BANK32  BANK33  BANK34  BANK35  BANK36
  5658 ;;      Params:         8       0       0       0       0       0       0       0       0       0       0       0       
      +0       0       0       0       0       0       0       0       0       0       0       0       0       0       0       
      +0       0       0       0       0       0
  5659 ;;      Locals:         0       0       0       0       0       0       0       0       0       0       0       0       
      +0       0       0       0       0       0       0       0       0       0       0       0       0       0       0       
      +0       0       0       0       0       0
  5660 ;;      Temps:          4       0       0       0       0       0       0       0       0       0       0       0       
      +0       0       0       0       0       0       0       0       0       0       0       0       0       0       0       
      +0       0       0       0       0       0
  5661 ;;      Totals:        12       0       0       0       0       0       0       0       0       0       0       0       
      +0       0       0       0       0       0       0       0       0       0       0       0       0       0       0       
      +0       0       0       0       0       0
  5662 ;;Total ram usage:       12 bytes
  5663 ;; Hardware stack levels used: 1
  5664 ;; This function calls:
  5665 ;;		Nothing
  5666 ;; This function is called by:
  5667 ;;		_efgtoa
  5668 ;; This function uses a non-reentrant model
  5669 ;;
  5670                           
  5671                           	psect	text19
  5672   0047F6                     __ptext19:
  5673                           	callstack 0
  5674   0047F6                     ___flge:
  5675                           	callstack 122
  5676   0047F6  0E00               	movlw	0
  5677   0047F8  1428               	andwf	___flge@ff1^(0+1280),w,c
  5678   0047FA  6E30               	movwf	??___flge^(0+1280),c
  5679   0047FC  0E00               	movlw	0
  5680   0047FE  1429               	andwf	(___flge@ff1+1)^(0+1280),w,c
  5681   004800  6E31               	movwf	(??___flge+1)^(0+1280),c
  5682   004802  0E80               	movlw	128
  5683   004804  142A               	andwf	(___flge@ff1+2)^(0+1280),w,c
  5684   004806  6E32               	movwf	(??___flge+2)^(0+1280),c
  5685   004808  0E7F               	movlw	127
  5686   00480A  142B               	andwf	(___flge@ff1+3)^(0+1280),w,c
  5687   00480C  6E33               	movwf	(??___flge+3)^(0+1280),c
  5688   00480E  5030               	movf	??___flge^(0+1280),w,c
  5689   004810  1031               	iorwf	(??___flge+1)^(0+1280),w,c
  5690   004812  1032               	iorwf	(??___flge+2)^(0+1280),w,c
  5691   004814  1033               	iorwf	(??___flge+3)^(0+1280),w,c
  5692   004816  A4D8               	btfss	status,2,c
  5693   004818  EF10  F024         	goto	u2921
  5694   00481C  EF12  F024         	goto	u2920
  5695   004820                     u2921:
  5696   004820  EF1A  F024         	goto	l3344
  5697   004824                     u2920:
  5698   004824  0E00               	movlw	0
  5699   004826  6E28               	movwf	___flge@ff1^(0+1280),c
  5700   004828  0E00               	movlw	0
  5701   00482A  6E29               	movwf	(___flge@ff1+1)^(0+1280),c
  5702   00482C  0E00               	movlw	0
  5703   00482E  6E2A               	movwf	(___flge@ff1+2)^(0+1280),c
  5704   004830  0E00               	movlw	0
  5705   004832  6E2B               	movwf	(___flge@ff1+3)^(0+1280),c
  5706   004834                     l3344:
  5707   004834  0E00               	movlw	0
  5708   004836  142C               	andwf	___flge@ff2^(0+1280),w,c
  5709   004838  6E30               	movwf	??___flge^(0+1280),c
  5710   00483A  0E00               	movlw	0
  5711   00483C  142D               	andwf	(___flge@ff2+1)^(0+1280),w,c
  5712   00483E  6E31               	movwf	(??___flge+1)^(0+1280),c
  5713   004840  0E80               	movlw	128
  5714   004842  142E               	andwf	(___flge@ff2+2)^(0+1280),w,c
  5715   004844  6E32               	movwf	(??___flge+2)^(0+1280),c
  5716   004846  0E7F               	movlw	127
  5717   004848  142F               	andwf	(___flge@ff2+3)^(0+1280),w,c
  5718   00484A  6E33               	movwf	(??___flge+3)^(0+1280),c
  5719   00484C  5030               	movf	??___flge^(0+1280),w,c
  5720   00484E  1031               	iorwf	(??___flge+1)^(0+1280),w,c
  5721   004850  1032               	iorwf	(??___flge+2)^(0+1280),w,c
  5722   004852  1033               	iorwf	(??___flge+3)^(0+1280),w,c
  5723   004854  A4D8               	btfss	status,2,c
  5724   004856  EF2F  F024         	goto	u2931
  5725   00485A  EF31  F024         	goto	u2930
  5726   00485E                     u2931:
  5727   00485E  EF39  F024         	goto	l3348
  5728   004862                     u2930:
  5729   004862  0E00               	movlw	0
  5730   004864  6E2C               	movwf	___flge@ff2^(0+1280),c
  5731   004866  0E00               	movlw	0
  5732   004868  6E2D               	movwf	(___flge@ff2+1)^(0+1280),c
  5733   00486A  0E00               	movlw	0
  5734   00486C  6E2E               	movwf	(___flge@ff2+2)^(0+1280),c
  5735   00486E  0E00               	movlw	0
  5736   004870  6E2F               	movwf	(___flge@ff2+3)^(0+1280),c
  5737   004872                     l3348:
  5738   004872  AE2B               	btfss	(___flge@ff1+3)^(0+1280),7,c
  5739   004874  EF3E  F024         	goto	u2941
  5740   004878  EF40  F024         	goto	u2940
  5741   00487C                     u2941:
  5742   00487C  EF49  F024         	goto	l3352
  5743   004880                     u2940:
  5744   004880  6C28               	negf	___flge@ff1^(0+1280),c
  5745   004882  1E29               	comf	(___flge@ff1+1)^(0+1280),f,c
  5746   004884  B0D8               	btfsc	status,0,c
  5747   004886  2A29               	incf	(___flge@ff1+1)^(0+1280),f,c
  5748   004888  1E2A               	comf	(___flge@ff1+2)^(0+1280),f,c
  5749   00488A  B0D8               	btfsc	status,0,c
  5750   00488C  2A2A               	incf	(___flge@ff1+2)^(0+1280),f,c
  5751   00488E  0E80               	movlw	128
  5752   004890  562B               	subfwb	(___flge@ff1+3)^(0+1280),f,c
  5753   004892                     l3352:
  5754   004892  AE2F               	btfss	(___flge@ff2+3)^(0+1280),7,c
  5755   004894  EF4E  F024         	goto	u2951
  5756   004898  EF50  F024         	goto	u2950
  5757   00489C                     u2951:
  5758   00489C  EF59  F024         	goto	l642
  5759   0048A0                     u2950:
  5760   0048A0  6C2C               	negf	___flge@ff2^(0+1280),c
  5761   0048A2  1E2D               	comf	(___flge@ff2+1)^(0+1280),f,c
  5762   0048A4  B0D8               	btfsc	status,0,c
  5763   0048A6  2A2D               	incf	(___flge@ff2+1)^(0+1280),f,c
  5764   0048A8  1E2E               	comf	(___flge@ff2+2)^(0+1280),f,c
  5765   0048AA  B0D8               	btfsc	status,0,c
  5766   0048AC  2A2E               	incf	(___flge@ff2+2)^(0+1280),f,c
  5767   0048AE  0E80               	movlw	128
  5768   0048B0  562F               	subfwb	(___flge@ff2+3)^(0+1280),f,c
  5769   0048B2                     l642:
  5770   0048B2  0E00               	movlw	0
  5771   0048B4  1A28               	xorwf	___flge@ff1^(0+1280),f,c
  5772   0048B6  0E00               	movlw	0
  5773   0048B8  1A29               	xorwf	(___flge@ff1+1)^(0+1280),f,c
  5774   0048BA  0E00               	movlw	0
  5775   0048BC  1A2A               	xorwf	(___flge@ff1+2)^(0+1280),f,c
  5776   0048BE  0E80               	movlw	128
  5777   0048C0  1A2B               	xorwf	(___flge@ff1+3)^(0+1280),f,c
  5778   0048C2  0E00               	movlw	0
  5779   0048C4  1A2C               	xorwf	___flge@ff2^(0+1280),f,c
  5780   0048C6  0E00               	movlw	0
  5781   0048C8  1A2D               	xorwf	(___flge@ff2+1)^(0+1280),f,c
  5782   0048CA  0E00               	movlw	0
  5783   0048CC  1A2E               	xorwf	(___flge@ff2+2)^(0+1280),f,c
  5784   0048CE  0E80               	movlw	128
  5785   0048D0  1A2F               	xorwf	(___flge@ff2+3)^(0+1280),f,c
  5786   0048D2  502C               	movf	___flge@ff2^(0+1280),w,c
  5787   0048D4  5C28               	subwf	___flge@ff1^(0+1280),w,c
  5788   0048D6  502D               	movf	(___flge@ff2+1)^(0+1280),w,c
  5789   0048D8  5829               	subwfb	(___flge@ff1+1)^(0+1280),w,c
  5790   0048DA  502E               	movf	(___flge@ff2+2)^(0+1280),w,c
  5791   0048DC  582A               	subwfb	(___flge@ff1+2)^(0+1280),w,c
  5792   0048DE  502F               	movf	(___flge@ff2+3)^(0+1280),w,c
  5793   0048E0  582B               	subwfb	(___flge@ff1+3)^(0+1280),w,c
  5794   0048E2  B0D8               	btfsc	status,0,c
  5795   0048E4  EF76  F024         	goto	u2961
  5796   0048E8  EF78  F024         	goto	u2960
  5797   0048EC                     u2961:
  5798   0048EC  EF7B  F024         	goto	l3358
  5799   0048F0                     u2960:
  5800   0048F0  90D8               	bcf	status,0,c
  5801   0048F2  EF7C  F024         	goto	l647
  5802   0048F6                     l3358:
  5803   0048F6  80D8               	bsf	status,0,c
  5804   0048F8                     l647:
  5805   0048F8  0012               	return		;funcret
  5806   0048FA                     __end_of___flge:
  5807                           	callstack 0
  5808                           
  5809 ;; *************** function ___fleq *****************
  5810 ;; Defined at:
  5811 ;;		line 4 in file "C:\Program Files\Microchip\xc8\v2.40\pic\sources\c99\common\fleq.c"
  5812 ;; Parameters:    Size  Location     Type
  5813 ;;  ff1             4    0[COMRAM] unsigned char 
  5814 ;;  ff2             4    4[COMRAM] unsigned char 
  5815 ;; Auto vars:     Size  Location     Type
  5816 ;;		None
  5817 ;; Return value:  Size  Location     Type
  5818 ;;		None               void
  5819 ;; Registers used:
  5820 ;;		wreg, status,2, status,0
  5821 ;; Tracked objects:
  5822 ;;		On entry : 0/0
  5823 ;;		On exit  : 0/0
  5824 ;;		Unchanged: 0/0
  5825 ;; Data sizes:     COMRAM   BANK5   BANK6   BANK7   BANK8   BANK9  BANK10  BANK11  BANK12  BANK13  BANK14  BANK15  BANK1
      +6  BANK17  BANK18  BANK19  BANK20  BANK21  BANK22  BANK23  BANK24  BANK25  BANK26  BANK27  BANK28  BANK29  BANK30  BANK3
      +1  BANK32  BANK33  BANK34  BANK35  BANK36
  5826 ;;      Params:         8       0       0       0       0       0       0       0       0       0       0       0       
      +0       0       0       0       0       0       0       0       0       0       0       0       0       0       0       
      +0       0       0       0       0       0
  5827 ;;      Locals:         0       0       0       0       0       0       0       0       0       0       0       0       
      +0       0       0       0       0       0       0       0       0       0       0       0       0       0       0       
      +0       0       0       0       0       0
  5828 ;;      Temps:          4       0       0       0       0       0       0       0       0       0       0       0       
      +0       0       0       0       0       0       0       0       0       0       0       0       0       0       0       
      +0       0       0       0       0       0
  5829 ;;      Totals:        12       0       0       0       0       0       0       0       0       0       0       0       
      +0       0       0       0       0       0       0       0       0       0       0       0       0       0       0       
      +0       0       0       0       0       0
  5830 ;;Total ram usage:       12 bytes
  5831 ;; Hardware stack levels used: 1
  5832 ;; This function calls:
  5833 ;;		Nothing
  5834 ;; This function is called by:
  5835 ;;		_efgtoa
  5836 ;; This function uses a non-reentrant model
  5837 ;;
  5838                           
  5839                           	psect	text20
  5840   004C54                     __ptext20:
  5841                           	callstack 0
  5842   004C54                     ___fleq:
  5843                           	callstack 122
  5844   004C54  0E00               	movlw	0
  5845   004C56  1401               	andwf	___fleq@ff1^(0+1280),w,c
  5846   004C58  6E09               	movwf	??___fleq^(0+1280),c
  5847   004C5A  0E00               	movlw	0
  5848   004C5C  1402               	andwf	(___fleq@ff1+1)^(0+1280),w,c
  5849   004C5E  6E0A               	movwf	(??___fleq+1)^(0+1280),c
  5850   004C60  0E80               	movlw	128
  5851   004C62  1403               	andwf	(___fleq@ff1+2)^(0+1280),w,c
  5852   004C64  6E0B               	movwf	(??___fleq+2)^(0+1280),c
  5853   004C66  0E7F               	movlw	127
  5854   004C68  1404               	andwf	(___fleq@ff1+3)^(0+1280),w,c
  5855   004C6A  6E0C               	movwf	(??___fleq+3)^(0+1280),c
  5856   004C6C  5009               	movf	??___fleq^(0+1280),w,c
  5857   004C6E  100A               	iorwf	(??___fleq+1)^(0+1280),w,c
  5858   004C70  100B               	iorwf	(??___fleq+2)^(0+1280),w,c
  5859   004C72  100C               	iorwf	(??___fleq+3)^(0+1280),w,c
  5860   004C74  A4D8               	btfss	status,2,c
  5861   004C76  EF3F  F026         	goto	u2891
  5862   004C7A  EF41  F026         	goto	u2890
  5863   004C7E                     u2891:
  5864   004C7E  EF49  F026         	goto	l3328
  5865   004C82                     u2890:
  5866   004C82  0E00               	movlw	0
  5867   004C84  6E01               	movwf	___fleq@ff1^(0+1280),c
  5868   004C86  0E00               	movlw	0
  5869   004C88  6E02               	movwf	(___fleq@ff1+1)^(0+1280),c
  5870   004C8A  0E00               	movlw	0
  5871   004C8C  6E03               	movwf	(___fleq@ff1+2)^(0+1280),c
  5872   004C8E  0E00               	movlw	0
  5873   004C90  6E04               	movwf	(___fleq@ff1+3)^(0+1280),c
  5874   004C92                     l3328:
  5875   004C92  0E00               	movlw	0
  5876   004C94  1405               	andwf	___fleq@ff2^(0+1280),w,c
  5877   004C96  6E09               	movwf	??___fleq^(0+1280),c
  5878   004C98  0E00               	movlw	0
  5879   004C9A  1406               	andwf	(___fleq@ff2+1)^(0+1280),w,c
  5880   004C9C  6E0A               	movwf	(??___fleq+1)^(0+1280),c
  5881   004C9E  0E80               	movlw	128
  5882   004CA0  1407               	andwf	(___fleq@ff2+2)^(0+1280),w,c
  5883   004CA2  6E0B               	movwf	(??___fleq+2)^(0+1280),c
  5884   004CA4  0E7F               	movlw	127
  5885   004CA6  1408               	andwf	(___fleq@ff2+3)^(0+1280),w,c
  5886   004CA8  6E0C               	movwf	(??___fleq+3)^(0+1280),c
  5887   004CAA  5009               	movf	??___fleq^(0+1280),w,c
  5888   004CAC  100A               	iorwf	(??___fleq+1)^(0+1280),w,c
  5889   004CAE  100B               	iorwf	(??___fleq+2)^(0+1280),w,c
  5890   004CB0  100C               	iorwf	(??___fleq+3)^(0+1280),w,c
  5891   004CB2  A4D8               	btfss	status,2,c
  5892   004CB4  EF5E  F026         	goto	u2901
  5893   004CB8  EF60  F026         	goto	u2900
  5894   004CBC                     u2901:
  5895   004CBC  EF68  F026         	goto	l3332
  5896   004CC0                     u2900:
  5897   004CC0  0E00               	movlw	0
  5898   004CC2  6E05               	movwf	___fleq@ff2^(0+1280),c
  5899   004CC4  0E00               	movlw	0
  5900   004CC6  6E06               	movwf	(___fleq@ff2+1)^(0+1280),c
  5901   004CC8  0E00               	movlw	0
  5902   004CCA  6E07               	movwf	(___fleq@ff2+2)^(0+1280),c
  5903   004CCC  0E00               	movlw	0
  5904   004CCE  6E08               	movwf	(___fleq@ff2+3)^(0+1280),c
  5905   004CD0                     l3332:
  5906   004CD0  5005               	movf	___fleq@ff2^(0+1280),w,c
  5907   004CD2  1801               	xorwf	___fleq@ff1^(0+1280),w,c
  5908   004CD4  E10F               	bnz	u2910
  5909   004CD6  5006               	movf	(___fleq@ff2+1)^(0+1280),w,c
  5910   004CD8  1802               	xorwf	(___fleq@ff1+1)^(0+1280),w,c
  5911   004CDA  E10C               	bnz	u2910
  5912   004CDC  5007               	movf	(___fleq@ff2+2)^(0+1280),w,c
  5913   004CDE  1803               	xorwf	(___fleq@ff1+2)^(0+1280),w,c
  5914   004CE0  E109               	bnz	u2910
  5915   004CE2  5008               	movf	(___fleq@ff2+3)^(0+1280),w,c
  5916   004CE4  1804               	xorwf	(___fleq@ff1+3)^(0+1280),w,c
  5917   004CE6  B4D8               	btfsc	status,2,c
  5918   004CE8  EF78  F026         	goto	u2911
  5919   004CEC  EF7A  F026         	goto	u2910
  5920   004CF0                     u2911:
  5921   004CF0  EF7D  F026         	goto	l3336
  5922   004CF4                     u2910:
  5923   004CF4  90D8               	bcf	status,0,c
  5924   004CF6  EF7E  F026         	goto	l636
  5925   004CFA                     l3336:
  5926   004CFA  80D8               	bsf	status,0,c
  5927   004CFC                     l636:
  5928   004CFC  0012               	return		;funcret
  5929   004CFE                     __end_of___fleq:
  5930                           	callstack 0
  5931                           
  5932 ;; *************** function ___fldiv *****************
  5933 ;; Defined at:
  5934 ;;		line 11 in file "C:\Program Files\Microchip\xc8\v2.40\pic\sources\c99\common\sprcdiv.c"
  5935 ;; Parameters:    Size  Location     Type
  5936 ;;  b               4    0[COMRAM] unsigned char 
  5937 ;;  a               4    4[COMRAM] unsigned char 
  5938 ;; Auto vars:     Size  Location     Type
  5939 ;;  grs             4   19[COMRAM] unsigned long 
  5940 ;;  rem             4   12[COMRAM] unsigned long 
  5941 ;;  new_exp         2   17[COMRAM] short 
  5942 ;;  aexp            1   24[COMRAM] unsigned char 
  5943 ;;  bexp            1   23[COMRAM] unsigned char 
  5944 ;;  sign            1   16[COMRAM] unsigned char 
  5945 ;; Return value:  Size  Location     Type
  5946 ;;                  4    0[COMRAM] unsigned char 
  5947 ;; Registers used:
  5948 ;;		wreg, status,2, status,0
  5949 ;; Tracked objects:
  5950 ;;		On entry : 0/0
  5951 ;;		On exit  : 0/0
  5952 ;;		Unchanged: 0/0
  5953 ;; Data sizes:     COMRAM   BANK5   BANK6   BANK7   BANK8   BANK9  BANK10  BANK11  BANK12  BANK13  BANK14  BANK15  BANK1
      +6  BANK17  BANK18  BANK19  BANK20  BANK21  BANK22  BANK23  BANK24  BANK25  BANK26  BANK27  BANK28  BANK29  BANK30  BANK3
      +1  BANK32  BANK33  BANK34  BANK35  BANK36
  5954 ;;      Params:         8       0       0       0       0       0       0       0       0       0       0       0       
      +0       0       0       0       0       0       0       0       0       0       0       0       0       0       0       
      +0       0       0       0       0       0
  5955 ;;      Locals:        13       0       0       0       0       0       0       0       0       0       0       0       
      +0       0       0       0       0       0       0       0       0       0       0       0       0       0       0       
      +0       0       0       0       0       0
  5956 ;;      Temps:          4       0       0       0       0       0       0       0       0       0       0       0       
      +0       0       0       0       0       0       0       0       0       0       0       0       0       0       0       
      +0       0       0       0       0       0
  5957 ;;      Totals:        25       0       0       0       0       0       0       0       0       0       0       0       
      +0       0       0       0       0       0       0       0       0       0       0       0       0       0       0       
      +0       0       0       0       0       0
  5958 ;;Total ram usage:       25 bytes
  5959 ;; Hardware stack levels used: 1
  5960 ;; This function calls:
  5961 ;;		Nothing
  5962 ;; This function is called by:
  5963 ;;		_main
  5964 ;;		_efgtoa
  5965 ;; This function uses a non-reentrant model
  5966 ;;
  5967                           
  5968                           	psect	text21
  5969   003D24                     __ptext21:
  5970                           	callstack 0
  5971   003D24                     ___fldiv:
  5972                           	callstack 122
  5973   003D24  5004               	movf	(___fldiv@b+3)^(0+1280),w,c
  5974   003D26  0B80               	andlw	128
  5975   003D28  6E11               	movwf	___fldiv@sign^(0+1280),c
  5976   003D2A  5004               	movf	(___fldiv@b+3)^(0+1280),w,c
  5977   003D2C  2404               	addwf	(___fldiv@b+3)^(0+1280),w,c
  5978   003D2E  6E18               	movwf	___fldiv@bexp^(0+1280),c
  5979   003D30  AE03               	btfss	(___fldiv@b+2)^(0+1280),7,c
  5980   003D32  EF9D  F01E         	goto	u2471
  5981   003D36  EF9F  F01E         	goto	u2470
  5982   003D3A                     u2471:
  5983   003D3A  EFA0  F01E         	goto	l3056
  5984   003D3E                     u2470:
  5985   003D3E  8018               	bsf	___fldiv@bexp^(0+1280),0,c
  5986   003D40                     l3056:
  5987   003D40  5018               	movf	___fldiv@bexp^(0+1280),w,c
  5988   003D42  B4D8               	btfsc	status,2,c
  5989   003D44  EFA6  F01E         	goto	u2481
  5990   003D48  EFA8  F01E         	goto	u2480
  5991   003D4C                     u2481:
  5992   003D4C  EFBD  F01E         	goto	l3066
  5993   003D50                     u2480:
  5994   003D50  2818               	incf	___fldiv@bexp^(0+1280),w,c
  5995   003D52  A4D8               	btfss	status,2,c
  5996   003D54  EFAE  F01E         	goto	u2491
  5997   003D58  EFB0  F01E         	goto	u2490
  5998   003D5C                     u2491:
  5999   003D5C  EFB8  F01E         	goto	l3062
  6000   003D60                     u2490:
  6001   003D60  0E00               	movlw	0
  6002   003D62  6E01               	movwf	___fldiv@b^(0+1280),c
  6003   003D64  0E00               	movlw	0
  6004   003D66  6E02               	movwf	(___fldiv@b+1)^(0+1280),c
  6005   003D68  0E00               	movlw	0
  6006   003D6A  6E03               	movwf	(___fldiv@b+2)^(0+1280),c
  6007   003D6C  0E00               	movlw	0
  6008   003D6E  6E04               	movwf	(___fldiv@b+3)^(0+1280),c
  6009   003D70                     l3062:
  6010   003D70  8E03               	bsf	(___fldiv@b+2)^(0+1280),7,c
  6011   003D72  0E00               	movlw	0
  6012   003D74  6E04               	movwf	(___fldiv@b+3)^(0+1280),c
  6013   003D76  EFC5  F01E         	goto	l3068
  6014   003D7A                     l3066:
  6015   003D7A  0E00               	movlw	0
  6016   003D7C  6E01               	movwf	___fldiv@b^(0+1280),c
  6017   003D7E  0E00               	movlw	0
  6018   003D80  6E02               	movwf	(___fldiv@b+1)^(0+1280),c
  6019   003D82  0E00               	movlw	0
  6020   003D84  6E03               	movwf	(___fldiv@b+2)^(0+1280),c
  6021   003D86  0E00               	movlw	0
  6022   003D88  6E04               	movwf	(___fldiv@b+3)^(0+1280),c
  6023   003D8A                     l3068:
  6024   003D8A  5008               	movf	(___fldiv@a+3)^(0+1280),w,c
  6025   003D8C  0B80               	andlw	128
  6026   003D8E  1A11               	xorwf	___fldiv@sign^(0+1280),f,c
  6027   003D90  5008               	movf	(___fldiv@a+3)^(0+1280),w,c
  6028   003D92  2408               	addwf	(___fldiv@a+3)^(0+1280),w,c
  6029   003D94  6E19               	movwf	___fldiv@aexp^(0+1280),c
  6030   003D96  AE07               	btfss	(___fldiv@a+2)^(0+1280),7,c
  6031   003D98  EFD0  F01E         	goto	u2501
  6032   003D9C  EFD2  F01E         	goto	u2500
  6033   003DA0                     u2501:
  6034   003DA0  EFD3  F01E         	goto	l3076
  6035   003DA4                     u2500:
  6036   003DA4  8019               	bsf	___fldiv@aexp^(0+1280),0,c
  6037   003DA6                     l3076:
  6038   003DA6  5019               	movf	___fldiv@aexp^(0+1280),w,c
  6039   003DA8  B4D8               	btfsc	status,2,c
  6040   003DAA  EFD9  F01E         	goto	u2511
  6041   003DAE  EFDB  F01E         	goto	u2510
  6042   003DB2                     u2511:
  6043   003DB2  EFF0  F01E         	goto	l3086
  6044   003DB6                     u2510:
  6045   003DB6  2819               	incf	___fldiv@aexp^(0+1280),w,c
  6046   003DB8  A4D8               	btfss	status,2,c
  6047   003DBA  EFE1  F01E         	goto	u2521
  6048   003DBE  EFE3  F01E         	goto	u2520
  6049   003DC2                     u2521:
  6050   003DC2  EFEB  F01E         	goto	l3082
  6051   003DC6                     u2520:
  6052   003DC6  0E00               	movlw	0
  6053   003DC8  6E05               	movwf	___fldiv@a^(0+1280),c
  6054   003DCA  0E00               	movlw	0
  6055   003DCC  6E06               	movwf	(___fldiv@a+1)^(0+1280),c
  6056   003DCE  0E00               	movlw	0
  6057   003DD0  6E07               	movwf	(___fldiv@a+2)^(0+1280),c
  6058   003DD2  0E00               	movlw	0
  6059   003DD4  6E08               	movwf	(___fldiv@a+3)^(0+1280),c
  6060   003DD6                     l3082:
  6061   003DD6  8E07               	bsf	(___fldiv@a+2)^(0+1280),7,c
  6062   003DD8  0E00               	movlw	0
  6063   003DDA  6E08               	movwf	(___fldiv@a+3)^(0+1280),c
  6064   003DDC  EFF8  F01E         	goto	l3088
  6065   003DE0                     l3086:
  6066   003DE0  0E00               	movlw	0
  6067   003DE2  6E05               	movwf	___fldiv@a^(0+1280),c
  6068   003DE4  0E00               	movlw	0
  6069   003DE6  6E06               	movwf	(___fldiv@a+1)^(0+1280),c
  6070   003DE8  0E00               	movlw	0
  6071   003DEA  6E07               	movwf	(___fldiv@a+2)^(0+1280),c
  6072   003DEC  0E00               	movlw	0
  6073   003DEE  6E08               	movwf	(___fldiv@a+3)^(0+1280),c
  6074   003DF0                     l3088:
  6075   003DF0  5005               	movf	___fldiv@a^(0+1280),w,c
  6076   003DF2  1006               	iorwf	(___fldiv@a+1)^(0+1280),w,c
  6077   003DF4  1007               	iorwf	(___fldiv@a+2)^(0+1280),w,c
  6078   003DF6  1008               	iorwf	(___fldiv@a+3)^(0+1280),w,c
  6079   003DF8  A4D8               	btfss	status,2,c
  6080   003DFA  EF01  F01F         	goto	u2531
  6081   003DFE  EF03  F01F         	goto	u2530
  6082   003E02                     u2531:
  6083   003E02  EF1B  F01F         	goto	l3100
  6084   003E06                     u2530:
  6085   003E06  0E00               	movlw	0
  6086   003E08  6E01               	movwf	___fldiv@b^(0+1280),c
  6087   003E0A  0E00               	movlw	0
  6088   003E0C  6E02               	movwf	(___fldiv@b+1)^(0+1280),c
  6089   003E0E  0E00               	movlw	0
  6090   003E10  6E03               	movwf	(___fldiv@b+2)^(0+1280),c
  6091   003E12  0E00               	movlw	0
  6092   003E14  6E04               	movwf	(___fldiv@b+3)^(0+1280),c
  6093   003E16  0E80               	movlw	128
  6094   003E18  1203               	iorwf	(___fldiv@b+2)^(0+1280),f,c
  6095   003E1A  0E7F               	movlw	127
  6096   003E1C  1204               	iorwf	(___fldiv@b+3)^(0+1280),f,c
  6097   003E1E                     l3094:
  6098   003E1E  5011               	movf	___fldiv@sign^(0+1280),w,c
  6099   003E20  1204               	iorwf	(___fldiv@b+3)^(0+1280),f,c
  6100   003E22  C501  F501         	movff	___fldiv@b,?___fldiv
  6101   003E26  C502  F502         	movff	___fldiv@b+1,?___fldiv+1
  6102   003E2A  C503  F503         	movff	___fldiv@b+2,?___fldiv+2
  6103   003E2E  C504  F504         	movff	___fldiv@b+3,?___fldiv+3
  6104   003E32  EF5E  F020         	goto	l959
  6105   003E36                     l3100:
  6106   003E36  5018               	movf	___fldiv@bexp^(0+1280),w,c
  6107   003E38  A4D8               	btfss	status,2,c
  6108   003E3A  EF21  F01F         	goto	u2541
  6109   003E3E  EF23  F01F         	goto	u2540
  6110   003E42                     u2541:
  6111   003E42  EF2D  F01F         	goto	l3108
  6112   003E46                     u2540:
  6113   003E46  0E00               	movlw	0
  6114   003E48  6E01               	movwf	?___fldiv^(0+1280),c
  6115   003E4A  0E00               	movlw	0
  6116   003E4C  6E02               	movwf	(?___fldiv+1)^(0+1280),c
  6117   003E4E  0E00               	movlw	0
  6118   003E50  6E03               	movwf	(?___fldiv+2)^(0+1280),c
  6119   003E52  0E00               	movlw	0
  6120   003E54  6E04               	movwf	(?___fldiv+3)^(0+1280),c
  6121   003E56  EF5E  F020         	goto	l959
  6122   003E5A                     l3108:
  6123   003E5A  5019               	movf	___fldiv@aexp^(0+1280),w,c
  6124   003E5C  C518  F509         	movff	___fldiv@bexp,??___fldiv
  6125   003E60  6A0A               	clrf	(??___fldiv+1)^(0+1280),c
  6126   003E62  5E09               	subwf	??___fldiv^(0+1280),f,c
  6127   003E64  0E00               	movlw	0
  6128   003E66  5A0A               	subwfb	(??___fldiv+1)^(0+1280),f,c
  6129   003E68  0E7F               	movlw	127
  6130   003E6A  2409               	addwf	??___fldiv^(0+1280),w,c
  6131   003E6C  6E12               	movwf	___fldiv@new_exp^(0+1280),c
  6132   003E6E  0E00               	movlw	0
  6133   003E70  200A               	addwfc	(??___fldiv+1)^(0+1280),w,c
  6134   003E72  6E13               	movwf	(___fldiv@new_exp+1)^(0+1280),c
  6135   003E74  C501  F50D         	movff	___fldiv@b,___fldiv@rem
  6136   003E78  C502  F50E         	movff	___fldiv@b+1,___fldiv@rem+1
  6137   003E7C  C503  F50F         	movff	___fldiv@b+2,___fldiv@rem+2
  6138   003E80  C504  F510         	movff	___fldiv@b+3,___fldiv@rem+3
  6139   003E84  0E00               	movlw	0
  6140   003E86  6E01               	movwf	___fldiv@b^(0+1280),c
  6141   003E88  0E00               	movlw	0
  6142   003E8A  6E02               	movwf	(___fldiv@b+1)^(0+1280),c
  6143   003E8C  0E00               	movlw	0
  6144   003E8E  6E03               	movwf	(___fldiv@b+2)^(0+1280),c
  6145   003E90  0E00               	movlw	0
  6146   003E92  6E04               	movwf	(___fldiv@b+3)^(0+1280),c
  6147   003E94  0E00               	movlw	0
  6148   003E96  6E14               	movwf	___fldiv@grs^(0+1280),c
  6149   003E98  0E00               	movlw	0
  6150   003E9A  6E15               	movwf	(___fldiv@grs+1)^(0+1280),c
  6151   003E9C  0E00               	movlw	0
  6152   003E9E  6E16               	movwf	(___fldiv@grs+2)^(0+1280),c
  6153   003EA0  0E00               	movlw	0
  6154   003EA2  6E17               	movwf	(___fldiv@grs+3)^(0+1280),c
  6155   003EA4  0E00               	movlw	0
  6156   003EA6  6E19               	movwf	___fldiv@aexp^(0+1280),c
  6157   003EA8  EF8E  F01F         	goto	l961
  6158   003EAC                     l3118:
  6159   003EAC  5019               	movf	___fldiv@aexp^(0+1280),w,c
  6160   003EAE  B4D8               	btfsc	status,2,c
  6161   003EB0  EF5C  F01F         	goto	u2551
  6162   003EB4  EF5E  F01F         	goto	u2550
  6163   003EB8                     u2551:
  6164   003EB8  EF75  F01F         	goto	l3126
  6165   003EBC                     u2550:
  6166   003EBC  90D8               	bcf	status,0,c
  6167   003EBE  360D               	rlcf	___fldiv@rem^(0+1280),f,c
  6168   003EC0  360E               	rlcf	(___fldiv@rem+1)^(0+1280),f,c
  6169   003EC2  360F               	rlcf	(___fldiv@rem+2)^(0+1280),f,c
  6170   003EC4  3610               	rlcf	(___fldiv@rem+3)^(0+1280),f,c
  6171   003EC6  90D8               	bcf	status,0,c
  6172   003EC8  3601               	rlcf	___fldiv@b^(0+1280),f,c
  6173   003ECA  3602               	rlcf	(___fldiv@b+1)^(0+1280),f,c
  6174   003ECC  3603               	rlcf	(___fldiv@b+2)^(0+1280),f,c
  6175   003ECE  3604               	rlcf	(___fldiv@b+3)^(0+1280),f,c
  6176   003ED0  AE17               	btfss	(___fldiv@grs+3)^(0+1280),7,c
  6177   003ED2  EF6D  F01F         	goto	u2561
  6178   003ED6  EF6F  F01F         	goto	u2560
  6179   003EDA                     u2561:
  6180   003EDA  EF70  F01F         	goto	l964
  6181   003EDE                     u2560:
  6182   003EDE  8001               	bsf	___fldiv@b^(0+1280),0,c
  6183   003EE0                     l964:
  6184   003EE0  90D8               	bcf	status,0,c
  6185   003EE2  3614               	rlcf	___fldiv@grs^(0+1280),f,c
  6186   003EE4  3615               	rlcf	(___fldiv@grs+1)^(0+1280),f,c
  6187   003EE6  3616               	rlcf	(___fldiv@grs+2)^(0+1280),f,c
  6188   003EE8  3617               	rlcf	(___fldiv@grs+3)^(0+1280),f,c
  6189   003EEA                     l3126:
  6190   003EEA  5005               	movf	___fldiv@a^(0+1280),w,c
  6191   003EEC  5C0D               	subwf	___fldiv@rem^(0+1280),w,c
  6192   003EEE  5006               	movf	(___fldiv@a+1)^(0+1280),w,c
  6193   003EF0  580E               	subwfb	(___fldiv@rem+1)^(0+1280),w,c
  6194   003EF2  5007               	movf	(___fldiv@a+2)^(0+1280),w,c
  6195   003EF4  580F               	subwfb	(___fldiv@rem+2)^(0+1280),w,c
  6196   003EF6  5008               	movf	(___fldiv@a+3)^(0+1280),w,c
  6197   003EF8  5810               	subwfb	(___fldiv@rem+3)^(0+1280),w,c
  6198   003EFA  A0D8               	btfss	status,0,c
  6199   003EFC  EF82  F01F         	goto	u2571
  6200   003F00  EF84  F01F         	goto	u2570
  6201   003F04                     u2571:
  6202   003F04  EF8D  F01F         	goto	l3132
  6203   003F08                     u2570:
  6204   003F08  8C17               	bsf	(___fldiv@grs+3)^(0+1280),6,c
  6205   003F0A  5005               	movf	___fldiv@a^(0+1280),w,c
  6206   003F0C  5E0D               	subwf	___fldiv@rem^(0+1280),f,c
  6207   003F0E  5006               	movf	(___fldiv@a+1)^(0+1280),w,c
  6208   003F10  5A0E               	subwfb	(___fldiv@rem+1)^(0+1280),f,c
  6209   003F12  5007               	movf	(___fldiv@a+2)^(0+1280),w,c
  6210   003F14  5A0F               	subwfb	(___fldiv@rem+2)^(0+1280),f,c
  6211   003F16  5008               	movf	(___fldiv@a+3)^(0+1280),w,c
  6212   003F18  5A10               	subwfb	(___fldiv@rem+3)^(0+1280),f,c
  6213   003F1A                     l3132:
  6214   003F1A  2A19               	incf	___fldiv@aexp^(0+1280),f,c
  6215   003F1C                     l961:
  6216   003F1C  0E19               	movlw	25
  6217   003F1E  6419               	cpfsgt	___fldiv@aexp^(0+1280),c
  6218   003F20  EF94  F01F         	goto	u2581
  6219   003F24  EF96  F01F         	goto	u2580
  6220   003F28                     u2581:
  6221   003F28  EF56  F01F         	goto	l3118
  6222   003F2C                     u2580:
  6223   003F2C  500D               	movf	___fldiv@rem^(0+1280),w,c
  6224   003F2E  100E               	iorwf	(___fldiv@rem+1)^(0+1280),w,c
  6225   003F30  100F               	iorwf	(___fldiv@rem+2)^(0+1280),w,c
  6226   003F32  1010               	iorwf	(___fldiv@rem+3)^(0+1280),w,c
  6227   003F34  B4D8               	btfsc	status,2,c
  6228   003F36  EF9F  F01F         	goto	u2591
  6229   003F3A  EFA1  F01F         	goto	u2590
  6230   003F3E                     u2591:
  6231   003F3E  EFB9  F01F         	goto	l3144
  6232   003F42                     u2590:
  6233   003F42  8014               	bsf	___fldiv@grs^(0+1280),0,c
  6234   003F44  EFB9  F01F         	goto	l3144
  6235   003F48                     l3138:
  6236   003F48  90D8               	bcf	status,0,c
  6237   003F4A  3601               	rlcf	___fldiv@b^(0+1280),f,c
  6238   003F4C  3602               	rlcf	(___fldiv@b+1)^(0+1280),f,c
  6239   003F4E  3603               	rlcf	(___fldiv@b+2)^(0+1280),f,c
  6240   003F50  3604               	rlcf	(___fldiv@b+3)^(0+1280),f,c
  6241   003F52  AE17               	btfss	(___fldiv@grs+3)^(0+1280),7,c
  6242   003F54  EFAE  F01F         	goto	u2601
  6243   003F58  EFB0  F01F         	goto	u2600
  6244   003F5C                     u2601:
  6245   003F5C  EFB1  F01F         	goto	l970
  6246   003F60                     u2600:
  6247   003F60  8001               	bsf	___fldiv@b^(0+1280),0,c
  6248   003F62                     l970:
  6249   003F62  90D8               	bcf	status,0,c
  6250   003F64  3614               	rlcf	___fldiv@grs^(0+1280),f,c
  6251   003F66  3615               	rlcf	(___fldiv@grs+1)^(0+1280),f,c
  6252   003F68  3616               	rlcf	(___fldiv@grs+2)^(0+1280),f,c
  6253   003F6A  3617               	rlcf	(___fldiv@grs+3)^(0+1280),f,c
  6254   003F6C  0612               	decf	___fldiv@new_exp^(0+1280),f,c
  6255   003F6E  A0D8               	btfss	status,0,c
  6256   003F70  0613               	decf	(___fldiv@new_exp+1)^(0+1280),f,c
  6257   003F72                     l3144:
  6258   003F72  AE03               	btfss	(___fldiv@b+2)^(0+1280),7,c
  6259   003F74  EFBE  F01F         	goto	u2611
  6260   003F78  EFC0  F01F         	goto	u2610
  6261   003F7C                     u2611:
  6262   003F7C  EFA4  F01F         	goto	l3138
  6263   003F80                     u2610:
  6264   003F80  0E00               	movlw	0
  6265   003F82  6E19               	movwf	___fldiv@aexp^(0+1280),c
  6266   003F84  AE17               	btfss	(___fldiv@grs+3)^(0+1280),7,c
  6267   003F86  EFC7  F01F         	goto	u2621
  6268   003F8A  EFC9  F01F         	goto	u2620
  6269   003F8E                     u2621:
  6270   003F8E  EFED  F01F         	goto	l972
  6271   003F92                     u2620:
  6272   003F92  0EFF               	movlw	255
  6273   003F94  1414               	andwf	___fldiv@grs^(0+1280),w,c
  6274   003F96  6E09               	movwf	??___fldiv^(0+1280),c
  6275   003F98  0EFF               	movlw	255
  6276   003F9A  1415               	andwf	(___fldiv@grs+1)^(0+1280),w,c
  6277   003F9C  6E0A               	movwf	(??___fldiv+1)^(0+1280),c
  6278   003F9E  0EFF               	movlw	255
  6279   003FA0  1416               	andwf	(___fldiv@grs+2)^(0+1280),w,c
  6280   003FA2  6E0B               	movwf	(??___fldiv+2)^(0+1280),c
  6281   003FA4  0E7F               	movlw	127
  6282   003FA6  1417               	andwf	(___fldiv@grs+3)^(0+1280),w,c
  6283   003FA8  6E0C               	movwf	(??___fldiv+3)^(0+1280),c
  6284   003FAA  5009               	movf	??___fldiv^(0+1280),w,c
  6285   003FAC  100A               	iorwf	(??___fldiv+1)^(0+1280),w,c
  6286   003FAE  100B               	iorwf	(??___fldiv+2)^(0+1280),w,c
  6287   003FB0  100C               	iorwf	(??___fldiv+3)^(0+1280),w,c
  6288   003FB2  B4D8               	btfsc	status,2,c
  6289   003FB4  EFDE  F01F         	goto	u2631
  6290   003FB8  EFE0  F01F         	goto	u2630
  6291   003FBC                     u2631:
  6292   003FBC  EFE4  F01F         	goto	l973
  6293   003FC0                     u2630:
  6294   003FC0                     l3152:
  6295   003FC0  0E01               	movlw	1
  6296   003FC2  6E19               	movwf	___fldiv@aexp^(0+1280),c
  6297   003FC4  EFED  F01F         	goto	l972
  6298   003FC8                     l973:
  6299   003FC8  A001               	btfss	___fldiv@b^(0+1280),0,c
  6300   003FCA  EFE9  F01F         	goto	u2641
  6301   003FCE  EFEB  F01F         	goto	u2640
  6302   003FD2                     u2641:
  6303   003FD2  EFED  F01F         	goto	l972
  6304   003FD6                     u2640:
  6305   003FD6  EFE0  F01F         	goto	l3152
  6306   003FDA                     l972:
  6307   003FDA  5019               	movf	___fldiv@aexp^(0+1280),w,c
  6308   003FDC  B4D8               	btfsc	status,2,c
  6309   003FDE  EFF3  F01F         	goto	u2651
  6310   003FE2  EFF5  F01F         	goto	u2650
  6311   003FE6                     u2651:
  6312   003FE6  EF19  F020         	goto	l3164
  6313   003FEA                     u2650:
  6314   003FEA  0E01               	movlw	1
  6315   003FEC  2601               	addwf	___fldiv@b^(0+1280),f,c
  6316   003FEE  0E00               	movlw	0
  6317   003FF0  2202               	addwfc	(___fldiv@b+1)^(0+1280),f,c
  6318   003FF2  2203               	addwfc	(___fldiv@b+2)^(0+1280),f,c
  6319   003FF4  2204               	addwfc	(___fldiv@b+3)^(0+1280),f,c
  6320   003FF6  A004               	btfss	(___fldiv@b+3)^(0+1280),0,c
  6321   003FF8  EF00  F020         	goto	u2661
  6322   003FFC  EF02  F020         	goto	u2660
  6323   004000                     u2661:
  6324   004000  EF19  F020         	goto	l3164
  6325   004004                     u2660:
  6326   004004  C501  F509         	movff	___fldiv@b,??___fldiv
  6327   004008  C502  F50A         	movff	___fldiv@b+1,??___fldiv+1
  6328   00400C  C503  F50B         	movff	___fldiv@b+2,??___fldiv+2
  6329   004010  C504  F50C         	movff	___fldiv@b+3,??___fldiv+3
  6330   004014  340C               	rlcf	(??___fldiv+3)^(0+1280),w,c
  6331   004016  320C               	rrcf	(??___fldiv+3)^(0+1280),f,c
  6332   004018  320B               	rrcf	(??___fldiv+2)^(0+1280),f,c
  6333   00401A  320A               	rrcf	(??___fldiv+1)^(0+1280),f,c
  6334   00401C  3209               	rrcf	??___fldiv^(0+1280),f,c
  6335   00401E  C509  F501         	movff	??___fldiv,___fldiv@b
  6336   004022  C50A  F502         	movff	??___fldiv+1,___fldiv@b+1
  6337   004026  C50B  F503         	movff	??___fldiv+2,___fldiv@b+2
  6338   00402A  C50C  F504         	movff	??___fldiv+3,___fldiv@b+3
  6339   00402E  4A12               	infsnz	___fldiv@new_exp^(0+1280),f,c
  6340   004030  2A13               	incf	(___fldiv@new_exp+1)^(0+1280),f,c
  6341   004032                     l3164:
  6342   004032  BE13               	btfsc	(___fldiv@new_exp+1)^(0+1280),7,c
  6343   004034  EF24  F020         	goto	u2671
  6344   004038  5013               	movf	(___fldiv@new_exp+1)^(0+1280),w,c
  6345   00403A  E108               	bnz	u2670
  6346   00403C  2812               	incf	___fldiv@new_exp^(0+1280),w,c
  6347   00403E  A0D8               	btfss	status,0,c
  6348   004040  EF24  F020         	goto	u2671
  6349   004044  EF26  F020         	goto	u2670
  6350   004048                     u2671:
  6351   004048  EF31  F020         	goto	l3168
  6352   00404C                     u2670:
  6353   00404C  0E00               	movlw	0
  6354   00404E  6E13               	movwf	(___fldiv@new_exp+1)^(0+1280),c
  6355   004050  6812               	setf	___fldiv@new_exp^(0+1280),c
  6356   004052  0E00               	movlw	0
  6357   004054  6E01               	movwf	___fldiv@b^(0+1280),c
  6358   004056  0E00               	movlw	0
  6359   004058  6E02               	movwf	(___fldiv@b+1)^(0+1280),c
  6360   00405A  0E00               	movlw	0
  6361   00405C  6E03               	movwf	(___fldiv@b+2)^(0+1280),c
  6362   00405E  0E00               	movlw	0
  6363   004060  6E04               	movwf	(___fldiv@b+3)^(0+1280),c
  6364   004062                     l3168:
  6365   004062  BE13               	btfsc	(___fldiv@new_exp+1)^(0+1280),7,c
  6366   004064  EF3E  F020         	goto	u2680
  6367   004068  5013               	movf	(___fldiv@new_exp+1)^(0+1280),w,c
  6368   00406A  E106               	bnz	u2681
  6369   00406C  0412               	decf	___fldiv@new_exp^(0+1280),w,c
  6370   00406E  B0D8               	btfsc	status,0,c
  6371   004070  EF3C  F020         	goto	u2681
  6372   004074  EF3E  F020         	goto	u2680
  6373   004078                     u2681:
  6374   004078  EF4C  F020         	goto	l3172
  6375   00407C                     u2680:
  6376   00407C  0E00               	movlw	0
  6377   00407E  6E13               	movwf	(___fldiv@new_exp+1)^(0+1280),c
  6378   004080  0E00               	movlw	0
  6379   004082  6E12               	movwf	___fldiv@new_exp^(0+1280),c
  6380   004084  0E00               	movlw	0
  6381   004086  6E01               	movwf	___fldiv@b^(0+1280),c
  6382   004088  0E00               	movlw	0
  6383   00408A  6E02               	movwf	(___fldiv@b+1)^(0+1280),c
  6384   00408C  0E00               	movlw	0
  6385   00408E  6E03               	movwf	(___fldiv@b+2)^(0+1280),c
  6386   004090  0E00               	movlw	0
  6387   004092  6E04               	movwf	(___fldiv@b+3)^(0+1280),c
  6388   004094  0E00               	movlw	0
  6389   004096  6E11               	movwf	___fldiv@sign^(0+1280),c
  6390   004098                     l3172:
  6391   004098  C512  F518         	movff	___fldiv@new_exp,___fldiv@bexp
  6392   00409C  A018               	btfss	___fldiv@bexp^(0+1280),0,c
  6393   00409E  EF53  F020         	goto	u2691
  6394   0040A2  EF55  F020         	goto	u2690
  6395   0040A6                     u2691:
  6396   0040A6  EF58  F020         	goto	l3178
  6397   0040AA                     u2690:
  6398   0040AA  8E03               	bsf	(___fldiv@b+2)^(0+1280),7,c
  6399   0040AC  EF59  F020         	goto	l3180
  6400   0040B0                     l3178:
  6401   0040B0  9E03               	bcf	(___fldiv@b+2)^(0+1280),7,c
  6402   0040B2                     l3180:
  6403   0040B2  90D8               	bcf	status,0,c
  6404   0040B4  3018               	rrcf	___fldiv@bexp^(0+1280),w,c
  6405   0040B6  6E04               	movwf	(___fldiv@b+3)^(0+1280),c
  6406   0040B8  EF0F  F01F         	goto	l3094
  6407   0040BC                     l959:
  6408   0040BC  0012               	return		;funcret
  6409   0040BE                     __end_of___fldiv:
  6410                           	callstack 0
  6411                           
  6412 ;; *************** function _atoi *****************
  6413 ;; Defined at:
  6414 ;;		line 4 in file "C:\Program Files\Microchip\xc8\v2.40\pic\sources\c99\common\atoi.c"
  6415 ;; Parameters:    Size  Location     Type
  6416 ;;  s               2    6[COMRAM] PTR const unsigned char 
  6417 ;;		 -> STR_1(21), 
  6418 ;; Auto vars:     Size  Location     Type
  6419 ;;  n               2   13[COMRAM] int 
  6420 ;;  neg             2   11[COMRAM] int 
  6421 ;; Return value:  Size  Location     Type
  6422 ;;                  2    6[COMRAM] int 
  6423 ;; Registers used:
  6424 ;;		wreg, status,2, status,0, tblptrl, tblptrh, tblptru, prodl, prodh, cstack
  6425 ;; Tracked objects:
  6426 ;;		On entry : 0/0
  6427 ;;		On exit  : 0/0
  6428 ;;		Unchanged: 0/0
  6429 ;; Data sizes:     COMRAM   BANK5   BANK6   BANK7   BANK8   BANK9  BANK10  BANK11  BANK12  BANK13  BANK14  BANK15  BANK1
      +6  BANK17  BANK18  BANK19  BANK20  BANK21  BANK22  BANK23  BANK24  BANK25  BANK26  BANK27  BANK28  BANK29  BANK30  BANK3
      +1  BANK32  BANK33  BANK34  BANK35  BANK36
  6430 ;;      Params:         2       0       0       0       0       0       0       0       0       0       0       0       
      +0       0       0       0       0       0       0       0       0       0       0       0       0       0       0       
      +0       0       0       0       0       0
  6431 ;;      Locals:         4       0       0       0       0       0       0       0       0       0       0       0       
      +0       0       0       0       0       0       0       0       0       0       0       0       0       0       0       
      +0       0       0       0       0       0
  6432 ;;      Temps:          3       0       0       0       0       0       0       0       0       0       0       0       
      +0       0       0       0       0       0       0       0       0       0       0       0       0       0       0       
      +0       0       0       0       0       0
  6433 ;;      Totals:         9       0       0       0       0       0       0       0       0       0       0       0       
      +0       0       0       0       0       0       0       0       0       0       0       0       0       0       0       
      +0       0       0       0       0       0
  6434 ;;Total ram usage:        9 bytes
  6435 ;; Hardware stack levels used: 1
  6436 ;; Hardware stack levels required when called: 1
  6437 ;; This function calls:
  6438 ;;		___wmul
  6439 ;;		_isdigit
  6440 ;;		_isspace
  6441 ;; This function is called by:
  6442 ;;		_vfpfcnvrt
  6443 ;; This function uses a non-reentrant model
  6444 ;;
  6445                           
  6446                           	psect	text22
  6447   004484                     __ptext22:
  6448                           	callstack 0
  6449   004484                     _atoi:
  6450                           	callstack 122
  6451   004484  0E00               	movlw	0
  6452   004486  6E0F               	movwf	(atoi@n+1)^(0+1280),c
  6453   004488  0E00               	movlw	0
  6454   00448A  6E0E               	movwf	atoi@n^(0+1280),c
  6455   00448C  0E00               	movlw	0
  6456   00448E  6E0D               	movwf	(atoi@neg+1)^(0+1280),c
  6457   004490  0E00               	movlw	0
  6458   004492  6E0C               	movwf	atoi@neg^(0+1280),c
  6459   004494  EF4E  F022         	goto	l3754
  6460   004498                     l3750:
  6461   004498  4A07               	infsnz	atoi@s^(0+1280),f,c
  6462   00449A  2A08               	incf	(atoi@s+1)^(0+1280),f,c
  6463   00449C                     l3754:
  6464   00449C  C507  F4F6         	movff	atoi@s,tblptrl
  6465   0044A0  C508  F4F7         	movff	atoi@s+1,tblptrh
  6466   0044A4                     	if	0	;tblptru may be non-zero
  6467   0044A4                     	endif
  6468   0044A4                     	if	1	;Program memory is > 0xFFFF, there are 3 active tblptr bytes
  6469   0044A4  0E00               	movlw	low (__mediumconst shr (0+16))
  6470   0044A6  6EF8               	movwf	tblptru,c
  6471   0044A8                     	endif
  6472   0044A8  0008               	tblrd		*
  6473   0044AA  50F5               	movf	tablat,w,c
  6474   0044AC  0A20               	xorlw	32
  6475   0044AE  B4D8               	btfsc	status,2,c
  6476   0044B0  EF5C  F022         	goto	u3661
  6477   0044B4  EF5E  F022         	goto	u3660
  6478   0044B8                     u3661:
  6479   0044B8  EF4C  F022         	goto	l3750
  6480   0044BC                     u3660:
  6481   0044BC  C507  F4F6         	movff	atoi@s,tblptrl
  6482   0044C0  C508  F4F7         	movff	atoi@s+1,tblptrh
  6483   0044C4                     	if	0	;tblptru may be non-zero
  6484   0044C4                     	endif
  6485   0044C4                     	if	1	;Program memory is > 0xFFFF, there are 3 active tblptr bytes
  6486   0044C4  0E00               	movlw	low (__mediumconst shr (0+16))
  6487   0044C6  6EF8               	movwf	tblptru,c
  6488   0044C8                     	endif
  6489   0044C8  0008               	tblrd		*
  6490   0044CA  C4F5 F509          	movff	tablat,??_atoi
  6491   0044CE  0EF7               	movlw	247
  6492   0044D0  2409               	addwf	??_atoi^(0+1280),w,c
  6493   0044D2  6E0A               	movwf	(??_atoi+1)^(0+1280),c
  6494   0044D4  6A0B               	clrf	(??_atoi+2)^(0+1280),c
  6495   0044D6  0EFF               	movlw	255
  6496   0044D8  220B               	addwfc	(??_atoi+2)^(0+1280),f,c
  6497   0044DA  500B               	movf	(??_atoi+2)^(0+1280),w,c
  6498   0044DC  E109               	bnz	u3670
  6499   0044DE  0E05               	movlw	5
  6500   0044E0  5C0A               	subwf	(??_atoi+1)^(0+1280),w,c
  6501   0044E2  A0D8               	btfss	status,0,c
  6502   0044E4  EF76  F022         	goto	u3671
  6503   0044E8  EF78  F022         	goto	u3670
  6504   0044EC                     u3671:
  6505   0044EC  EF4C  F022         	goto	l3750
  6506   0044F0                     u3670:
  6507   0044F0  EF82  F022         	goto	l3762
  6508   0044F4                     l3758:
  6509   0044F4  0E00               	movlw	0
  6510   0044F6  6E0D               	movwf	(atoi@neg+1)^(0+1280),c
  6511   0044F8  0E01               	movlw	1
  6512   0044FA  6E0C               	movwf	atoi@neg^(0+1280),c
  6513   0044FC                     l3760:
  6514   0044FC  4A07               	infsnz	atoi@s^(0+1280),f,c
  6515   0044FE  2A08               	incf	(atoi@s+1)^(0+1280),f,c
  6516   004500  EFBB  F022         	goto	l3770
  6517   004504                     l3762:
  6518   004504  C507  F4F6         	movff	atoi@s,tblptrl
  6519   004508  C508  F4F7         	movff	atoi@s+1,tblptrh
  6520   00450C                     	if	0	;tblptru may be non-zero
  6521   00450C                     	endif
  6522   00450C                     	if	1	;Program memory is > 0xFFFF, there are 3 active tblptr bytes
  6523   00450C  0E00               	movlw	low (__mediumconst shr (0+16))
  6524   00450E  6EF8               	movwf	tblptru,c
  6525   004510                     	endif
  6526   004510  0008               	tblrd		*
  6527   004512  50F5               	movf	tablat,w,c
  6528   004514  6E09               	movwf	??_atoi^(0+1280),c
  6529   004516  6A0A               	clrf	(??_atoi+1)^(0+1280),c
  6530                           
  6531                           ; Switch on 2 bytes has been partitioned into a top level switch of size 1, and 1 sub-sw
      +                          itches
  6532                           ; Switch size 1, requested type "simple"
  6533                           ; Number of cases is 1, Range of values is 0 to 0
  6534                           ; switch strategies available:
  6535                           ; Name         Instructions Cycles
  6536                           ; simple_byte            4     3 (average)
  6537                           ;	Chosen strategy is simple_byte
  6538   004518  500A               	movf	(??_atoi+1)^(0+1280),w,c
  6539   00451A  0A00               	xorlw	0	; case 0
  6540   00451C  B4D8               	btfsc	status,2,c
  6541   00451E  EF93  F022         	goto	l4354
  6542   004522  EFBB  F022         	goto	l3770
  6543   004526                     l4354:
  6544                           
  6545                           ; Switch size 1, requested type "simple"
  6546                           ; Number of cases is 2, Range of values is 43 to 45
  6547                           ; switch strategies available:
  6548                           ; Name         Instructions Cycles
  6549                           ; simple_byte            7     4 (average)
  6550                           ;	Chosen strategy is simple_byte
  6551   004526  5009               	movf	??_atoi^(0+1280),w,c
  6552   004528  0A2B               	xorlw	43	; case 43
  6553   00452A  B4D8               	btfsc	status,2,c
  6554   00452C  EF7E  F022         	goto	l3760
  6555   004530  0A06               	xorlw	6	; case 45
  6556   004532  B4D8               	btfsc	status,2,c
  6557   004534  EF7A  F022         	goto	l3758
  6558   004538  EFBB  F022         	goto	l3770
  6559   00453C                     l3764:
  6560   00453C  C50E  F501         	movff	atoi@n,___wmul@multiplier
  6561   004540  C50F  F502         	movff	atoi@n+1,___wmul@multiplier+1
  6562   004544  0E00               	movlw	0
  6563   004546  6E04               	movwf	(___wmul@multiplicand+1)^(0+1280),c
  6564   004548  0E0A               	movlw	10
  6565   00454A  6E03               	movwf	___wmul@multiplicand^(0+1280),c
  6566   00454C  EC97  F028         	call	___wmul	;wreg free
  6567   004550  C507  F4F6         	movff	atoi@s,tblptrl
  6568   004554  C508  F4F7         	movff	atoi@s+1,tblptrh
  6569   004558                     	if	0	;tblptru may be non-zero
  6570   004558                     	endif
  6571   004558                     	if	1	;Program memory is > 0xFFFF, there are 3 active tblptr bytes
  6572   004558  0E00               	movlw	low (__mediumconst shr (0+16))
  6573   00455A  6EF8               	movwf	tblptru,c
  6574   00455C                     	endif
  6575   00455C  0008               	tblrd		*
  6576   00455E  50F5               	movf	tablat,w,c
  6577   004560  5E01               	subwf	?___wmul^(0+1280),f,c
  6578   004562  0E00               	movlw	0
  6579   004564  5A02               	subwfb	(?___wmul+1)^(0+1280),f,c
  6580   004566  0E30               	movlw	48
  6581   004568  2401               	addwf	?___wmul^(0+1280),w,c
  6582   00456A  6E0E               	movwf	atoi@n^(0+1280),c
  6583   00456C  0E00               	movlw	0
  6584   00456E  2002               	addwfc	(?___wmul+1)^(0+1280),w,c
  6585   004570  6E0F               	movwf	(atoi@n+1)^(0+1280),c
  6586   004572  EF7E  F022         	goto	l3760
  6587   004576                     l3770:
  6588   004576  C507  F4F6         	movff	atoi@s,tblptrl
  6589   00457A  C508  F4F7         	movff	atoi@s+1,tblptrh
  6590   00457E                     	if	0	;tblptru may be non-zero
  6591   00457E                     	endif
  6592   00457E                     	if	1	;Program memory is > 0xFFFF, there are 3 active tblptr bytes
  6593   00457E  0E00               	movlw	low (__mediumconst shr (0+16))
  6594   004580  6EF8               	movwf	tblptru,c
  6595   004582                     	endif
  6596   004582  0008               	tblrd		*
  6597   004584  C4F5 F509          	movff	tablat,??_atoi
  6598   004588  0ED0               	movlw	208
  6599   00458A  2409               	addwf	??_atoi^(0+1280),w,c
  6600   00458C  6E0A               	movwf	(??_atoi+1)^(0+1280),c
  6601   00458E  6A0B               	clrf	(??_atoi+2)^(0+1280),c
  6602   004590  0EFF               	movlw	255
  6603   004592  220B               	addwfc	(??_atoi+2)^(0+1280),f,c
  6604   004594  500B               	movf	(??_atoi+2)^(0+1280),w,c
  6605   004596  E109               	bnz	u3680
  6606   004598  0E0A               	movlw	10
  6607   00459A  5C0A               	subwf	(??_atoi+1)^(0+1280),w,c
  6608   00459C  A0D8               	btfss	status,0,c
  6609   00459E  EFD3  F022         	goto	u3681
  6610   0045A2  EFD5  F022         	goto	u3680
  6611   0045A6                     u3681:
  6612   0045A6  EF9E  F022         	goto	l3764
  6613   0045AA                     u3680:
  6614   0045AA  500C               	movf	atoi@neg^(0+1280),w,c
  6615   0045AC  100D               	iorwf	(atoi@neg+1)^(0+1280),w,c
  6616   0045AE  A4D8               	btfss	status,2,c
  6617   0045B0  EFDC  F022         	goto	u3691
  6618   0045B4  EFDE  F022         	goto	u3690
  6619   0045B8                     u3691:
  6620   0045B8  EFEC  F022         	goto	l1225
  6621   0045BC                     u3690:
  6622   0045BC  C50E  F509         	movff	atoi@n,??_atoi
  6623   0045C0  C50F  F50A         	movff	atoi@n+1,??_atoi+1
  6624   0045C4  1E09               	comf	??_atoi^(0+1280),f,c
  6625   0045C6  1E0A               	comf	(??_atoi+1)^(0+1280),f,c
  6626   0045C8  4A09               	infsnz	??_atoi^(0+1280),f,c
  6627   0045CA  2A0A               	incf	(??_atoi+1)^(0+1280),f,c
  6628   0045CC  C509  F507         	movff	??_atoi,?_atoi
  6629   0045D0  C50A  F508         	movff	??_atoi+1,?_atoi+1
  6630   0045D4  EFF0  F022         	goto	l1228
  6631   0045D8                     l1225:
  6632   0045D8  C50E  F507         	movff	atoi@n,?_atoi
  6633   0045DC  C50F  F508         	movff	atoi@n+1,?_atoi+1
  6634   0045E0                     l1228:
  6635   0045E0  0012               	return		;funcret
  6636   0045E2                     __end_of_atoi:
  6637                           	callstack 0
  6638                           
  6639 ;; *************** function _isspace *****************
  6640 ;; Defined at:
  6641 ;;		line 5 in file "C:\Program Files\Microchip\xc8\v2.40\pic\sources\c99\common\isspace.c"
  6642 ;; Parameters:    Size  Location     Type
  6643 ;;  c               2    0[COMRAM] int 
  6644 ;; Auto vars:     Size  Location     Type
  6645 ;;		None
  6646 ;; Return value:  Size  Location     Type
  6647 ;;                  2    0[COMRAM] int 
  6648 ;; Registers used:
  6649 ;;		wreg, status,2, status,0
  6650 ;; Tracked objects:
  6651 ;;		On entry : 0/0
  6652 ;;		On exit  : 0/0
  6653 ;;		Unchanged: 0/0
  6654 ;; Data sizes:     COMRAM   BANK5   BANK6   BANK7   BANK8   BANK9  BANK10  BANK11  BANK12  BANK13  BANK14  BANK15  BANK1
      +6  BANK17  BANK18  BANK19  BANK20  BANK21  BANK22  BANK23  BANK24  BANK25  BANK26  BANK27  BANK28  BANK29  BANK30  BANK3
      +1  BANK32  BANK33  BANK34  BANK35  BANK36
  6655 ;;      Params:         2       0       0       0       0       0       0       0       0       0       0       0       
      +0       0       0       0       0       0       0       0       0       0       0       0       0       0       0       
      +0       0       0       0       0       0
  6656 ;;      Locals:         1       0       0       0       0       0       0       0       0       0       0       0       
      +0       0       0       0       0       0       0       0       0       0       0       0       0       0       0       
      +0       0       0       0       0       0
  6657 ;;      Temps:          2       0       0       0       0       0       0       0       0       0       0       0       
      +0       0       0       0       0       0       0       0       0       0       0       0       0       0       0       
      +0       0       0       0       0       0
  6658 ;;      Totals:         5       0       0       0       0       0       0       0       0       0       0       0       
      +0       0       0       0       0       0       0       0       0       0       0       0       0       0       0       
      +0       0       0       0       0       0
  6659 ;;Total ram usage:        5 bytes
  6660 ;; Hardware stack levels used: 1
  6661 ;; This function calls:
  6662 ;;		Nothing
  6663 ;; This function is called by:
  6664 ;;		_atoi
  6665 ;; This function uses a non-reentrant model
  6666 ;;
  6667                           
  6668                           	psect	text23
  6669   004F90                     __ptext23:
  6670                           	callstack 0
  6671   004F90                     _isspace:
  6672                           	callstack 122
  6673   004F90  0E01               	movlw	1
  6674   004F92  6E05               	movwf	_isspace$1213^(0+1280),c
  6675   004F94  0E20               	movlw	32
  6676   004F96  1801               	xorwf	isspace@c^(0+1280),w,c
  6677   004F98  1002               	iorwf	(isspace@c+1)^(0+1280),w,c
  6678   004F9A  B4D8               	btfsc	status,2,c
  6679   004F9C  EFD2  F027         	goto	u3291
  6680   004FA0  EFD4  F027         	goto	u3290
  6681   004FA4                     u3291:
  6682   004FA4  EFE7  F027         	goto	l3510
  6683   004FA8                     u3290:
  6684   004FA8  0EF7               	movlw	247
  6685   004FAA  2401               	addwf	isspace@c^(0+1280),w,c
  6686   004FAC  6E03               	movwf	??_isspace^(0+1280),c
  6687   004FAE  0EFF               	movlw	255
  6688   004FB0  2002               	addwfc	(isspace@c+1)^(0+1280),w,c
  6689   004FB2  6E04               	movwf	(??_isspace+1)^(0+1280),c
  6690   004FB4  5004               	movf	(??_isspace+1)^(0+1280),w,c
  6691   004FB6  E109               	bnz	u3300
  6692   004FB8  0E05               	movlw	5
  6693   004FBA  5C03               	subwf	??_isspace^(0+1280),w,c
  6694   004FBC  A0D8               	btfss	status,0,c
  6695   004FBE  EFE3  F027         	goto	u3301
  6696   004FC2  EFE5  F027         	goto	u3300
  6697   004FC6                     u3301:
  6698   004FC6  EFE7  F027         	goto	l3510
  6699   004FCA                     u3300:
  6700   004FCA  0E00               	movlw	0
  6701   004FCC  6E05               	movwf	_isspace$1213^(0+1280),c
  6702   004FCE                     l3510:
  6703   004FCE  C505  F501         	movff	_isspace$1213,?_isspace
  6704   004FD2  6A02               	clrf	(?_isspace+1)^(0+1280),c
  6705   004FD4  0012               	return		;funcret
  6706   004FD6                     __end_of_isspace:
  6707                           	callstack 0
  6708                           
  6709 ;; *************** function _isdigit *****************
  6710 ;; Defined at:
  6711 ;;		line 5 in file "C:\Program Files\Microchip\xc8\v2.40\pic\sources\c99\common\isdigit.c"
  6712 ;; Parameters:    Size  Location     Type
  6713 ;;  c               2    0[COMRAM] int 
  6714 ;; Auto vars:     Size  Location     Type
  6715 ;;		None
  6716 ;; Return value:  Size  Location     Type
  6717 ;;                  2    0[COMRAM] int 
  6718 ;; Registers used:
  6719 ;;		wreg, status,2, status,0
  6720 ;; Tracked objects:
  6721 ;;		On entry : 0/0
  6722 ;;		On exit  : 0/0
  6723 ;;		Unchanged: 0/0
  6724 ;; Data sizes:     COMRAM   BANK5   BANK6   BANK7   BANK8   BANK9  BANK10  BANK11  BANK12  BANK13  BANK14  BANK15  BANK1
      +6  BANK17  BANK18  BANK19  BANK20  BANK21  BANK22  BANK23  BANK24  BANK25  BANK26  BANK27  BANK28  BANK29  BANK30  BANK3
      +1  BANK32  BANK33  BANK34  BANK35  BANK36
  6725 ;;      Params:         2       0       0       0       0       0       0       0       0       0       0       0       
      +0       0       0       0       0       0       0       0       0       0       0       0       0       0       0       
      +0       0       0       0       0       0
  6726 ;;      Locals:         0       0       0       0       0       0       0       0       0       0       0       0       
      +0       0       0       0       0       0       0       0       0       0       0       0       0       0       0       
      +0       0       0       0       0       0
  6727 ;;      Temps:          2       0       0       0       0       0       0       0       0       0       0       0       
      +0       0       0       0       0       0       0       0       0       0       0       0       0       0       0       
      +0       0       0       0       0       0
  6728 ;;      Totals:         4       0       0       0       0       0       0       0       0       0       0       0       
      +0       0       0       0       0       0       0       0       0       0       0       0       0       0       0       
      +0       0       0       0       0       0
  6729 ;;Total ram usage:        4 bytes
  6730 ;; Hardware stack levels used: 1
  6731 ;; This function calls:
  6732 ;;		Nothing
  6733 ;; This function is called by:
  6734 ;;		_vfpfcnvrt
  6735 ;;		_atoi
  6736 ;; This function uses a non-reentrant model
  6737 ;;
  6738                           
  6739                           	psect	text24
  6740   005102                     __ptext24:
  6741                           	callstack 0
  6742   005102                     _isdigit:
  6743                           	callstack 123
  6744   005102  0ED0               	movlw	208
  6745   005104  2401               	addwf	isdigit@c^(0+1280),w,c
  6746   005106  6E03               	movwf	??_isdigit^(0+1280),c
  6747   005108  0EFF               	movlw	255
  6748   00510A  2002               	addwfc	(isdigit@c+1)^(0+1280),w,c
  6749   00510C  6E04               	movwf	(??_isdigit+1)^(0+1280),c
  6750   00510E  5004               	movf	(??_isdigit+1)^(0+1280),w,c
  6751   005110  E10A               	bnz	u3270
  6752   005112  0E0A               	movlw	10
  6753   005114  5C03               	subwf	??_isdigit^(0+1280),w,c
  6754   005116  A0D8               	btfss	status,0,c
  6755   005118  EF90  F028         	goto	u3271
  6756   00511C  EF93  F028         	goto	u3270
  6757   005120                     u3271:
  6758   005120  0E01               	movlw	1
  6759   005122  EF94  F028         	goto	u3280
  6760   005126                     u3270:
  6761   005126  0E00               	movlw	0
  6762   005128                     u3280:
  6763   005128  6E01               	movwf	?_isdigit^(0+1280),c
  6764   00512A  6A02               	clrf	(?_isdigit+1)^(0+1280),c
  6765   00512C  0012               	return		;funcret
  6766   00512E                     __end_of_isdigit:
  6767                           	callstack 0
  6768                           
  6769 ;; *************** function ___wmul *****************
  6770 ;; Defined at:
  6771 ;;		line 15 in file "C:\Program Files\Microchip\xc8\v2.40\pic\sources\c99\common\Umul16.c"
  6772 ;; Parameters:    Size  Location     Type
  6773 ;;  multiplier      2    0[COMRAM] unsigned int 
  6774 ;;  multiplicand    2    2[COMRAM] unsigned int 
  6775 ;; Auto vars:     Size  Location     Type
  6776 ;;  product         2    4[COMRAM] unsigned int 
  6777 ;; Return value:  Size  Location     Type
  6778 ;;                  2    0[COMRAM] unsigned int 
  6779 ;; Registers used:
  6780 ;;		wreg, status,2, status,0, prodl, prodh
  6781 ;; Tracked objects:
  6782 ;;		On entry : 0/0
  6783 ;;		On exit  : 0/0
  6784 ;;		Unchanged: 0/0
  6785 ;; Data sizes:     COMRAM   BANK5   BANK6   BANK7   BANK8   BANK9  BANK10  BANK11  BANK12  BANK13  BANK14  BANK15  BANK1
      +6  BANK17  BANK18  BANK19  BANK20  BANK21  BANK22  BANK23  BANK24  BANK25  BANK26  BANK27  BANK28  BANK29  BANK30  BANK3
      +1  BANK32  BANK33  BANK34  BANK35  BANK36
  6786 ;;      Params:         4       0       0       0       0       0       0       0       0       0       0       0       
      +0       0       0       0       0       0       0       0       0       0       0       0       0       0       0       
      +0       0       0       0       0       0
  6787 ;;      Locals:         2       0       0       0       0       0       0       0       0       0       0       0       
      +0       0       0       0       0       0       0       0       0       0       0       0       0       0       0       
      +0       0       0       0       0       0
  6788 ;;      Temps:          0       0       0       0       0       0       0       0       0       0       0       0       
      +0       0       0       0       0       0       0       0       0       0       0       0       0       0       0       
      +0       0       0       0       0       0
  6789 ;;      Totals:         6       0       0       0       0       0       0       0       0       0       0       0       
      +0       0       0       0       0       0       0       0       0       0       0       0       0       0       0       
      +0       0       0       0       0       0
  6790 ;;Total ram usage:        6 bytes
  6791 ;; Hardware stack levels used: 1
  6792 ;; This function calls:
  6793 ;;		Nothing
  6794 ;; This function is called by:
  6795 ;;		_atoi
  6796 ;; This function uses a non-reentrant model
  6797 ;;
  6798                           
  6799                           	psect	text25
  6800   00512E                     __ptext25:
  6801                           	callstack 0
  6802   00512E                     ___wmul:
  6803                           	callstack 122
  6804   00512E  5001               	movf	___wmul@multiplier^(0+1280),w,c
  6805   005130  0203               	mulwf	___wmul@multiplicand^(0+1280),c
  6806   005132  C4F3 F505          	movff	prodl,___wmul@product
  6807   005136  C4F4 F506          	movff	prodh,___wmul@product+1
  6808   00513A  5001               	movf	___wmul@multiplier^(0+1280),w,c
  6809   00513C  0204               	mulwf	(___wmul@multiplicand+1)^(0+1280),c
  6810   00513E  50F3               	movf	243,w,c
  6811   005140  2606               	addwf	(___wmul@product+1)^(0+1280),f,c
  6812   005142  5002               	movf	(___wmul@multiplier+1)^(0+1280),w,c
  6813   005144  0203               	mulwf	___wmul@multiplicand^(0+1280),c
  6814   005146  50F3               	movf	243,w,c
  6815   005148  2606               	addwf	(___wmul@product+1)^(0+1280),f,c
  6816   00514A  C505  F501         	movff	___wmul@product,?___wmul
  6817   00514E  C506  F502         	movff	___wmul@product+1,?___wmul+1
  6818   005152  0012               	return		;funcret
  6819   005154                     __end_of___wmul:
  6820                           	callstack 0
  6821                           
  6822 ;; *************** function ___xxtofl *****************
  6823 ;; Defined at:
  6824 ;;		line 10 in file "C:\Program Files\Microchip\xc8\v2.40\pic\sources\c99\common\xxtofl.c"
  6825 ;; Parameters:    Size  Location     Type
  6826 ;;  sign            1    wreg     unsigned char 
  6827 ;;  val             4    0[COMRAM] long 
  6828 ;; Auto vars:     Size  Location     Type
  6829 ;;  sign            1    8[COMRAM] unsigned char 
  6830 ;;  arg             4   10[COMRAM] unsigned long 
  6831 ;;  exp             1    9[COMRAM] unsigned char 
  6832 ;; Return value:  Size  Location     Type
  6833 ;;                  4    0[COMRAM] unsigned char 
  6834 ;; Registers used:
  6835 ;;		wreg, status,2, status,0
  6836 ;; Tracked objects:
  6837 ;;		On entry : 0/0
  6838 ;;		On exit  : 0/0
  6839 ;;		Unchanged: 0/0
  6840 ;; Data sizes:     COMRAM   BANK5   BANK6   BANK7   BANK8   BANK9  BANK10  BANK11  BANK12  BANK13  BANK14  BANK15  BANK1
      +6  BANK17  BANK18  BANK19  BANK20  BANK21  BANK22  BANK23  BANK24  BANK25  BANK26  BANK27  BANK28  BANK29  BANK30  BANK3
      +1  BANK32  BANK33  BANK34  BANK35  BANK36
  6841 ;;      Params:         4       0       0       0       0       0       0       0       0       0       0       0       
      +0       0       0       0       0       0       0       0       0       0       0       0       0       0       0       
      +0       0       0       0       0       0
  6842 ;;      Locals:         6       0       0       0       0       0       0       0       0       0       0       0       
      +0       0       0       0       0       0       0       0       0       0       0       0       0       0       0       
      +0       0       0       0       0       0
  6843 ;;      Temps:          4       0       0       0       0       0       0       0       0       0       0       0       
      +0       0       0       0       0       0       0       0       0       0       0       0       0       0       0       
      +0       0       0       0       0       0
  6844 ;;      Totals:        14       0       0       0       0       0       0       0       0       0       0       0       
      +0       0       0       0       0       0       0       0       0       0       0       0       0       0       0       
      +0       0       0       0       0       0
  6845 ;;Total ram usage:       14 bytes
  6846 ;; Hardware stack levels used: 1
  6847 ;; This function calls:
  6848 ;;		Nothing
  6849 ;; This function is called by:
  6850 ;;		_main
  6851 ;; This function uses a non-reentrant model
  6852 ;;
  6853                           
  6854                           	psect	text26
  6855   0042D0                     __ptext26:
  6856                           	callstack 0
  6857   0042D0                     ___xxtofl:
  6858                           	callstack 126
  6859                           
  6860                           ;incstack = 0
  6861                           ;___xxtofl@sign stored from wreg
  6862   0042D0  6E09               	movwf	___xxtofl@sign^(0+1280),c
  6863   0042D2  5009               	movf	___xxtofl@sign^(0+1280),w,c
  6864   0042D4  B4D8               	btfsc	status,2,c
  6865   0042D6  EF6F  F021         	goto	u3881
  6866   0042DA  EF71  F021         	goto	u3880
  6867   0042DE                     u3881:
  6868   0042DE  EF93  F021         	goto	l1032
  6869   0042E2                     u3880:
  6870   0042E2  BE04               	btfsc	(___xxtofl@val+3)^(0+1280),7,c
  6871   0042E4  EF78  F021         	goto	u3890
  6872   0042E8  EF76  F021         	goto	u3891
  6873   0042EC                     u3891:
  6874   0042EC  EF93  F021         	goto	l1032
  6875   0042F0                     u3890:
  6876   0042F0  C501  F505         	movff	___xxtofl@val,??___xxtofl
  6877   0042F4  C502  F506         	movff	___xxtofl@val+1,??___xxtofl+1
  6878   0042F8  C503  F507         	movff	___xxtofl@val+2,??___xxtofl+2
  6879   0042FC  C504  F508         	movff	___xxtofl@val+3,??___xxtofl+3
  6880   004300  1E05               	comf	??___xxtofl^(0+1280),f,c
  6881   004302  1E06               	comf	(??___xxtofl+1)^(0+1280),f,c
  6882   004304  1E07               	comf	(??___xxtofl+2)^(0+1280),f,c
  6883   004306  1E08               	comf	(??___xxtofl+3)^(0+1280),f,c
  6884   004308  2A05               	incf	??___xxtofl^(0+1280),f,c
  6885   00430A  0E00               	movlw	0
  6886   00430C  2206               	addwfc	(??___xxtofl+1)^(0+1280),f,c
  6887   00430E  2207               	addwfc	(??___xxtofl+2)^(0+1280),f,c
  6888   004310  2208               	addwfc	(??___xxtofl+3)^(0+1280),f,c
  6889   004312  C505  F50B         	movff	??___xxtofl,___xxtofl@arg
  6890   004316  C506  F50C         	movff	??___xxtofl+1,___xxtofl@arg+1
  6891   00431A  C507  F50D         	movff	??___xxtofl+2,___xxtofl@arg+2
  6892   00431E  C508  F50E         	movff	??___xxtofl+3,___xxtofl@arg+3
  6893   004322  EF9B  F021         	goto	l4046
  6894   004326                     l1032:
  6895   004326  C501  F50B         	movff	___xxtofl@val,___xxtofl@arg
  6896   00432A  C502  F50C         	movff	___xxtofl@val+1,___xxtofl@arg+1
  6897   00432E  C503  F50D         	movff	___xxtofl@val+2,___xxtofl@arg+2
  6898   004332  C504  F50E         	movff	___xxtofl@val+3,___xxtofl@arg+3
  6899   004336                     l4046:
  6900   004336  5001               	movf	___xxtofl@val^(0+1280),w,c
  6901   004338  1002               	iorwf	(___xxtofl@val+1)^(0+1280),w,c
  6902   00433A  1003               	iorwf	(___xxtofl@val+2)^(0+1280),w,c
  6903   00433C  1004               	iorwf	(___xxtofl@val+3)^(0+1280),w,c
  6904   00433E  A4D8               	btfss	status,2,c
  6905   004340  EFA4  F021         	goto	u3901
  6906   004344  EFA6  F021         	goto	u3900
  6907   004348                     u3901:
  6908   004348  EFB0  F021         	goto	l4052
  6909   00434C                     u3900:
  6910   00434C  0E00               	movlw	0
  6911   00434E  6E01               	movwf	?___xxtofl^(0+1280),c
  6912   004350  0E00               	movlw	0
  6913   004352  6E02               	movwf	(?___xxtofl+1)^(0+1280),c
  6914   004354  0E00               	movlw	0
  6915   004356  6E03               	movwf	(?___xxtofl+2)^(0+1280),c
  6916   004358  0E00               	movlw	0
  6917   00435A  6E04               	movwf	(?___xxtofl+3)^(0+1280),c
  6918   00435C  EF41  F022         	goto	l1035
  6919   004360                     l4052:
  6920   004360  0E96               	movlw	150
  6921   004362  6E0A               	movwf	___xxtofl@exp^(0+1280),c
  6922   004364  EFBA  F021         	goto	l4056
  6923   004368                     l4054:
  6924   004368  2A0A               	incf	___xxtofl@exp^(0+1280),f,c
  6925   00436A  90D8               	bcf	status,0,c
  6926   00436C  320E               	rrcf	(___xxtofl@arg+3)^(0+1280),f,c
  6927   00436E  320D               	rrcf	(___xxtofl@arg+2)^(0+1280),f,c
  6928   004370  320C               	rrcf	(___xxtofl@arg+1)^(0+1280),f,c
  6929   004372  320B               	rrcf	___xxtofl@arg^(0+1280),f,c
  6930   004374                     l4056:
  6931   004374  0E00               	movlw	0
  6932   004376  140B               	andwf	___xxtofl@arg^(0+1280),w,c
  6933   004378  6E05               	movwf	??___xxtofl^(0+1280),c
  6934   00437A  0E00               	movlw	0
  6935   00437C  140C               	andwf	(___xxtofl@arg+1)^(0+1280),w,c
  6936   00437E  6E06               	movwf	(??___xxtofl+1)^(0+1280),c
  6937   004380  0E00               	movlw	0
  6938   004382  140D               	andwf	(___xxtofl@arg+2)^(0+1280),w,c
  6939   004384  6E07               	movwf	(??___xxtofl+2)^(0+1280),c
  6940   004386  0EFE               	movlw	254
  6941   004388  140E               	andwf	(___xxtofl@arg+3)^(0+1280),w,c
  6942   00438A  6E08               	movwf	(??___xxtofl+3)^(0+1280),c
  6943   00438C  5005               	movf	??___xxtofl^(0+1280),w,c
  6944   00438E  1006               	iorwf	(??___xxtofl+1)^(0+1280),w,c
  6945   004390  1007               	iorwf	(??___xxtofl+2)^(0+1280),w,c
  6946   004392  1008               	iorwf	(??___xxtofl+3)^(0+1280),w,c
  6947   004394  A4D8               	btfss	status,2,c
  6948   004396  EFCF  F021         	goto	u3911
  6949   00439A  EFD1  F021         	goto	u3910
  6950   00439E                     u3911:
  6951   00439E  EFB4  F021         	goto	l4054
  6952   0043A2                     u3910:
  6953   0043A2  EFDF  F021         	goto	l1039
  6954   0043A6                     l4058:
  6955   0043A6  2A0A               	incf	___xxtofl@exp^(0+1280),f,c
  6956   0043A8  0E01               	movlw	1
  6957   0043AA  260B               	addwf	___xxtofl@arg^(0+1280),f,c
  6958   0043AC  0E00               	movlw	0
  6959   0043AE  220C               	addwfc	(___xxtofl@arg+1)^(0+1280),f,c
  6960   0043B0  220D               	addwfc	(___xxtofl@arg+2)^(0+1280),f,c
  6961   0043B2  220E               	addwfc	(___xxtofl@arg+3)^(0+1280),f,c
  6962   0043B4  90D8               	bcf	status,0,c
  6963   0043B6  320E               	rrcf	(___xxtofl@arg+3)^(0+1280),f,c
  6964   0043B8  320D               	rrcf	(___xxtofl@arg+2)^(0+1280),f,c
  6965   0043BA  320C               	rrcf	(___xxtofl@arg+1)^(0+1280),f,c
  6966   0043BC  320B               	rrcf	___xxtofl@arg^(0+1280),f,c
  6967   0043BE                     l1039:
  6968   0043BE  0E00               	movlw	0
  6969   0043C0  140B               	andwf	___xxtofl@arg^(0+1280),w,c
  6970   0043C2  6E05               	movwf	??___xxtofl^(0+1280),c
  6971   0043C4  0E00               	movlw	0
  6972   0043C6  140C               	andwf	(___xxtofl@arg+1)^(0+1280),w,c
  6973   0043C8  6E06               	movwf	(??___xxtofl+1)^(0+1280),c
  6974   0043CA  0E00               	movlw	0
  6975   0043CC  140D               	andwf	(___xxtofl@arg+2)^(0+1280),w,c
  6976   0043CE  6E07               	movwf	(??___xxtofl+2)^(0+1280),c
  6977   0043D0  0EFF               	movlw	255
  6978   0043D2  140E               	andwf	(___xxtofl@arg+3)^(0+1280),w,c
  6979   0043D4  6E08               	movwf	(??___xxtofl+3)^(0+1280),c
  6980   0043D6  5005               	movf	??___xxtofl^(0+1280),w,c
  6981   0043D8  1006               	iorwf	(??___xxtofl+1)^(0+1280),w,c
  6982   0043DA  1007               	iorwf	(??___xxtofl+2)^(0+1280),w,c
  6983   0043DC  1008               	iorwf	(??___xxtofl+3)^(0+1280),w,c
  6984   0043DE  A4D8               	btfss	status,2,c
  6985   0043E0  EFF4  F021         	goto	u3921
  6986   0043E4  EFF6  F021         	goto	u3920
  6987   0043E8                     u3921:
  6988   0043E8  EFD3  F021         	goto	l4058
  6989   0043EC                     u3920:
  6990   0043EC  EFFE  F021         	goto	l4066
  6991   0043F0                     l4064:
  6992   0043F0  060A               	decf	___xxtofl@exp^(0+1280),f,c
  6993   0043F2  90D8               	bcf	status,0,c
  6994   0043F4  360B               	rlcf	___xxtofl@arg^(0+1280),f,c
  6995   0043F6  360C               	rlcf	(___xxtofl@arg+1)^(0+1280),f,c
  6996   0043F8  360D               	rlcf	(___xxtofl@arg+2)^(0+1280),f,c
  6997   0043FA  360E               	rlcf	(___xxtofl@arg+3)^(0+1280),f,c
  6998   0043FC                     l4066:
  6999   0043FC  BE0D               	btfsc	(___xxtofl@arg+2)^(0+1280),7,c
  7000   0043FE  EF03  F022         	goto	u3931
  7001   004402  EF05  F022         	goto	u3930
  7002   004406                     u3931:
  7003   004406  EF0D  F022         	goto	l1046
  7004   00440A                     u3930:
  7005   00440A  0E02               	movlw	2
  7006   00440C  600A               	cpfslt	___xxtofl@exp^(0+1280),c
  7007   00440E  EF0B  F022         	goto	u3941
  7008   004412  EF0D  F022         	goto	u3940
  7009   004416                     u3941:
  7010   004416  EFF8  F021         	goto	l4064
  7011   00441A                     u3940:
  7012   00441A                     l1046:
  7013   00441A  B00A               	btfsc	___xxtofl@exp^(0+1280),0,c
  7014   00441C  EF12  F022         	goto	u3951
  7015   004420  EF14  F022         	goto	u3950
  7016   004424                     u3951:
  7017   004424  EF15  F022         	goto	l4072
  7018   004428                     u3950:
  7019   004428  9E0D               	bcf	(___xxtofl@arg+2)^(0+1280),7,c
  7020   00442A                     l4072:
  7021   00442A  90D8               	bcf	status,0,c
  7022   00442C  320A               	rrcf	___xxtofl@exp^(0+1280),f,c
  7023   00442E  C50A  F505         	movff	___xxtofl@exp,??___xxtofl
  7024   004432  6A06               	clrf	(??___xxtofl+1)^(0+1280),c
  7025   004434  6A07               	clrf	(??___xxtofl+2)^(0+1280),c
  7026   004436  6A08               	clrf	(??___xxtofl+3)^(0+1280),c
  7027   004438  C505  F508         	movff	??___xxtofl,??___xxtofl+3
  7028   00443C  6A07               	clrf	(??___xxtofl+2)^(0+1280),c
  7029   00443E  6A06               	clrf	(??___xxtofl+1)^(0+1280),c
  7030   004440  6A05               	clrf	??___xxtofl^(0+1280),c
  7031   004442  5005               	movf	??___xxtofl^(0+1280),w,c
  7032   004444  120B               	iorwf	___xxtofl@arg^(0+1280),f,c
  7033   004446  5006               	movf	(??___xxtofl+1)^(0+1280),w,c
  7034   004448  120C               	iorwf	(___xxtofl@arg+1)^(0+1280),f,c
  7035   00444A  5007               	movf	(??___xxtofl+2)^(0+1280),w,c
  7036   00444C  120D               	iorwf	(___xxtofl@arg+2)^(0+1280),f,c
  7037   00444E  5008               	movf	(??___xxtofl+3)^(0+1280),w,c
  7038   004450  120E               	iorwf	(___xxtofl@arg+3)^(0+1280),f,c
  7039   004452  5009               	movf	___xxtofl@sign^(0+1280),w,c
  7040   004454  B4D8               	btfsc	status,2,c
  7041   004456  EF2F  F022         	goto	u3961
  7042   00445A  EF31  F022         	goto	u3960
  7043   00445E                     u3961:
  7044   00445E  EF39  F022         	goto	l4082
  7045   004462                     u3960:
  7046   004462  BE04               	btfsc	(___xxtofl@val+3)^(0+1280),7,c
  7047   004464  EF38  F022         	goto	u3970
  7048   004468  EF36  F022         	goto	u3971
  7049   00446C                     u3971:
  7050   00446C  EF39  F022         	goto	l4082
  7051   004470                     u3970:
  7052   004470  8E0E               	bsf	(___xxtofl@arg+3)^(0+1280),7,c
  7053   004472                     l4082:
  7054   004472  C50B  F501         	movff	___xxtofl@arg,?___xxtofl
  7055   004476  C50C  F502         	movff	___xxtofl@arg+1,?___xxtofl+1
  7056   00447A  C50D  F503         	movff	___xxtofl@arg+2,?___xxtofl+2
  7057   00447E  C50E  F504         	movff	___xxtofl@arg+3,?___xxtofl+3
  7058   004482                     l1035:
  7059   004482  0012               	return		;funcret
  7060   004484                     __end_of___xxtofl:
  7061                           	callstack 0
  7062                           
  7063 ;; *************** function _UART1_PutS *****************
  7064 ;; Defined at:
  7065 ;;		line 179 in file "mcc_generated_files/uart1.c"
  7066 ;; Parameters:    Size  Location     Type
  7067 ;;  s               2    1[COMRAM] PTR unsigned char 
  7068 ;;		 -> main@cadena(25), 
  7069 ;; Auto vars:     Size  Location     Type
  7070 ;;		None
  7071 ;; Return value:  Size  Location     Type
  7072 ;;                  1    wreg      void 
  7073 ;; Registers used:
  7074 ;;		wreg, fsr2l, fsr2h, status,2, status,0, cstack
  7075 ;; Tracked objects:
  7076 ;;		On entry : 0/0
  7077 ;;		On exit  : 0/0
  7078 ;;		Unchanged: 0/0
  7079 ;; Data sizes:     COMRAM   BANK5   BANK6   BANK7   BANK8   BANK9  BANK10  BANK11  BANK12  BANK13  BANK14  BANK15  BANK1
      +6  BANK17  BANK18  BANK19  BANK20  BANK21  BANK22  BANK23  BANK24  BANK25  BANK26  BANK27  BANK28  BANK29  BANK30  BANK3
      +1  BANK32  BANK33  BANK34  BANK35  BANK36
  7080 ;;      Params:         2       0       0       0       0       0       0       0       0       0       0       0       
      +0       0       0       0       0       0       0       0       0       0       0       0       0       0       0       
      +0       0       0       0       0       0
  7081 ;;      Locals:         0       0       0       0       0       0       0       0       0       0       0       0       
      +0       0       0       0       0       0       0       0       0       0       0       0       0       0       0       
      +0       0       0       0       0       0
  7082 ;;      Temps:          0       0       0       0       0       0       0       0       0       0       0       0       
      +0       0       0       0       0       0       0       0       0       0       0       0       0       0       0       
      +0       0       0       0       0       0
  7083 ;;      Totals:         2       0       0       0       0       0       0       0       0       0       0       0       
      +0       0       0       0       0       0       0       0       0       0       0       0       0       0       0       
      +0       0       0       0       0       0
  7084 ;;Total ram usage:        2 bytes
  7085 ;; Hardware stack levels used: 1
  7086 ;; Hardware stack levels required when called: 1
  7087 ;; This function calls:
  7088 ;;		_UART1_Write
  7089 ;; This function is called by:
  7090 ;;		_main
  7091 ;; This function uses a non-reentrant model
  7092 ;;
  7093                           
  7094                           	psect	text27
  7095   0050D2                     __ptext27:
  7096                           	callstack 0
  7097   0050D2                     _UART1_PutS:
  7098                           	callstack 125
  7099   0050D2                     
  7100                           ;mcc_generated_files/uart1.c: 181:     while(*s)
  7101   0050D2  EF74  F028         	goto	l4014
  7102   0050D6                     l4010:
  7103                           
  7104                           ;mcc_generated_files/uart1.c: 182:         UART1_Write(*s++);
  7105   0050D6  C502  F4D9         	movff	UART1_PutS@s,fsr2l
  7106   0050DA  C503  F4DA         	movff	UART1_PutS@s+1,fsr2h
  7107   0050DE  50DF               	movf	indf2,w,c
  7108   0050E0  ECF8  F028         	call	_UART1_Write
  7109   0050E4  4A02               	infsnz	UART1_PutS@s^(0+1280),f,c
  7110   0050E6  2A03               	incf	(UART1_PutS@s+1)^(0+1280),f,c
  7111   0050E8                     l4014:
  7112                           
  7113                           ;mcc_generated_files/uart1.c: 181:     while(*s)
  7114   0050E8  C502  F4D9         	movff	UART1_PutS@s,fsr2l
  7115   0050EC  C503  F4DA         	movff	UART1_PutS@s+1,fsr2h
  7116   0050F0  50DF               	movf	indf2,w,c
  7117   0050F2  A4D8               	btfss	status,2,c
  7118   0050F4  EF7E  F028         	goto	u3801
  7119   0050F8  EF80  F028         	goto	u3800
  7120   0050FC                     u3801:
  7121   0050FC  EF6B  F028         	goto	l4010
  7122   005100                     u3800:
  7123   005100  0012               	return		;funcret
  7124   005102                     __end_of_UART1_PutS:
  7125                           	callstack 0
  7126                           
  7127 ;; *************** function _UART1_Write *****************
  7128 ;; Defined at:
  7129 ;;		line 170 in file "mcc_generated_files/uart1.c"
  7130 ;; Parameters:    Size  Location     Type
  7131 ;;  txData          1    wreg     unsigned char 
  7132 ;; Auto vars:     Size  Location     Type
  7133 ;;  txData          1    0[COMRAM] unsigned char 
  7134 ;; Return value:  Size  Location     Type
  7135 ;;                  1    wreg      void 
  7136 ;; Registers used:
  7137 ;;		wreg
  7138 ;; Tracked objects:
  7139 ;;		On entry : 0/0
  7140 ;;		On exit  : 0/0
  7141 ;;		Unchanged: 0/0
  7142 ;; Data sizes:     COMRAM   BANK5   BANK6   BANK7   BANK8   BANK9  BANK10  BANK11  BANK12  BANK13  BANK14  BANK15  BANK1
      +6  BANK17  BANK18  BANK19  BANK20  BANK21  BANK22  BANK23  BANK24  BANK25  BANK26  BANK27  BANK28  BANK29  BANK30  BANK3
      +1  BANK32  BANK33  BANK34  BANK35  BANK36
  7143 ;;      Params:         0       0       0       0       0       0       0       0       0       0       0       0       
      +0       0       0       0       0       0       0       0       0       0       0       0       0       0       0       
      +0       0       0       0       0       0
  7144 ;;      Locals:         1       0       0       0       0       0       0       0       0       0       0       0       
      +0       0       0       0       0       0       0       0       0       0       0       0       0       0       0       
      +0       0       0       0       0       0
  7145 ;;      Temps:          0       0       0       0       0       0       0       0       0       0       0       0       
      +0       0       0       0       0       0       0       0       0       0       0       0       0       0       0       
      +0       0       0       0       0       0
  7146 ;;      Totals:         1       0       0       0       0       0       0       0       0       0       0       0       
      +0       0       0       0       0       0       0       0       0       0       0       0       0       0       0       
      +0       0       0       0       0       0
  7147 ;;Total ram usage:        1 bytes
  7148 ;; Hardware stack levels used: 1
  7149 ;; This function calls:
  7150 ;;		Nothing
  7151 ;; This function is called by:
  7152 ;;		_UART1_PutS
  7153 ;;		_putch
  7154 ;; This function uses a non-reentrant model
  7155 ;;
  7156                           
  7157                           	psect	text28
  7158   0051F0                     __ptext28:
  7159                           	callstack 0
  7160   0051F0                     _UART1_Write:
  7161                           	callstack 121
  7162                           
  7163                           ;incstack = 0
  7164                           ;UART1_Write@txData stored from wreg
  7165   0051F0  6E01               	movwf	UART1_Write@txData^(0+1280),c
  7166   0051F2                     l341:
  7167                           
  7168                           ;mcc_generated_files/uart1.c: 172:     while(0 == PIR4bits.U1TXIF)
  7169   0051F2  A2B2               	btfss	178,1,c	;volatile
  7170   0051F4  EFFE  F028         	goto	u2021
  7171   0051F8  EF00  F029         	goto	u2020
  7172   0051FC                     u2021:
  7173   0051FC  EFF9  F028         	goto	l341
  7174   005200                     u2020:
  7175   005200                     
  7176                           ;mcc_generated_files/uart1.c: 176:     U1TXB = txData;
  7177   005200  C501  F2A3         	movff	UART1_Write@txData,675	;volatile
  7178   005204  0012               	return		;funcret
  7179   005206                     __end_of_UART1_Write:
  7180                           	callstack 0
  7181                           
  7182 ;; *************** function _SYSTEM_Initialize *****************
  7183 ;; Defined at:
  7184 ;;		line 50 in file "mcc_generated_files/mcc.c"
  7185 ;; Parameters:    Size  Location     Type
  7186 ;;		None
  7187 ;; Auto vars:     Size  Location     Type
  7188 ;;		None
  7189 ;; Return value:  Size  Location     Type
  7190 ;;                  1    wreg      void 
  7191 ;; Registers used:
  7192 ;;		wreg, status,2, status,0, cstack
  7193 ;; Tracked objects:
  7194 ;;		On entry : 0/0
  7195 ;;		On exit  : 0/0
  7196 ;;		Unchanged: 0/0
  7197 ;; Data sizes:     COMRAM   BANK5   BANK6   BANK7   BANK8   BANK9  BANK10  BANK11  BANK12  BANK13  BANK14  BANK15  BANK1
      +6  BANK17  BANK18  BANK19  BANK20  BANK21  BANK22  BANK23  BANK24  BANK25  BANK26  BANK27  BANK28  BANK29  BANK30  BANK3
      +1  BANK32  BANK33  BANK34  BANK35  BANK36
  7198 ;;      Params:         0       0       0       0       0       0       0       0       0       0       0       0       
      +0       0       0       0       0       0       0       0       0       0       0       0       0       0       0       
      +0       0       0       0       0       0
  7199 ;;      Locals:         0       0       0       0       0       0       0       0       0       0       0       0       
      +0       0       0       0       0       0       0       0       0       0       0       0       0       0       0       
      +0       0       0       0       0       0
  7200 ;;      Temps:          0       0       0       0       0       0       0       0       0       0       0       0       
      +0       0       0       0       0       0       0       0       0       0       0       0       0       0       0       
      +0       0       0       0       0       0
  7201 ;;      Totals:         0       0       0       0       0       0       0       0       0       0       0       0       
      +0       0       0       0       0       0       0       0       0       0       0       0       0       0       0       
      +0       0       0       0       0       0
  7202 ;;Total ram usage:        0 bytes
  7203 ;; Hardware stack levels used: 1
  7204 ;; Hardware stack levels required when called: 2
  7205 ;; This function calls:
  7206 ;;		_OSCILLATOR_Initialize
  7207 ;;		_PIN_MANAGER_Initialize
  7208 ;;		_PMD_Initialize
  7209 ;;		_SPI1_Initialize
  7210 ;;		_UART1_Initialize
  7211 ;; This function is called by:
  7212 ;;		_main
  7213 ;; This function uses a non-reentrant model
  7214 ;;
  7215                           
  7216                           	psect	text29
  7217   005206                     __ptext29:
  7218                           	callstack 0
  7219   005206                     _SYSTEM_Initialize:
  7220                           	callstack 124
  7221   005206                     
  7222                           ;mcc_generated_files/mcc.c: 52:     PMD_Initialize();
  7223   005206  ECAA  F028         	call	_PMD_Initialize	;wreg free
  7224                           
  7225                           ;mcc_generated_files/mcc.c: 53:     PIN_MANAGER_Initialize();
  7226   00520A  ECCB  F025         	call	_PIN_MANAGER_Initialize	;wreg free
  7227                           
  7228                           ;mcc_generated_files/mcc.c: 54:     OSCILLATOR_Initialize();
  7229   00520E  ECDD  F028         	call	_OSCILLATOR_Initialize	;wreg free
  7230   005212                     
  7231                           ;mcc_generated_files/mcc.c: 55:     UART1_Initialize();
  7232   005212  ECBC  F026         	call	_UART1_Initialize	;wreg free
  7233   005216                     
  7234                           ;mcc_generated_files/mcc.c: 56:     SPI1_Initialize();
  7235   005216  ECEB  F028         	call	_SPI1_Initialize	;wreg free
  7236   00521A  0012               	return		;funcret
  7237   00521C                     __end_of_SYSTEM_Initialize:
  7238                           	callstack 0
  7239                           
  7240 ;; *************** function _UART1_Initialize *****************
  7241 ;; Defined at:
  7242 ;;		line 66 in file "mcc_generated_files/uart1.c"
  7243 ;; Parameters:    Size  Location     Type
  7244 ;;		None
  7245 ;; Auto vars:     Size  Location     Type
  7246 ;;		None
  7247 ;; Return value:  Size  Location     Type
  7248 ;;                  1    wreg      void 
  7249 ;; Registers used:
  7250 ;;		wreg, status,2, status,0, cstack
  7251 ;; Tracked objects:
  7252 ;;		On entry : 0/0
  7253 ;;		On exit  : 0/0
  7254 ;;		Unchanged: 0/0
  7255 ;; Data sizes:     COMRAM   BANK5   BANK6   BANK7   BANK8   BANK9  BANK10  BANK11  BANK12  BANK13  BANK14  BANK15  BANK1
      +6  BANK17  BANK18  BANK19  BANK20  BANK21  BANK22  BANK23  BANK24  BANK25  BANK26  BANK27  BANK28  BANK29  BANK30  BANK3
      +1  BANK32  BANK33  BANK34  BANK35  BANK36
  7256 ;;      Params:         0       0       0       0       0       0       0       0       0       0       0       0       
      +0       0       0       0       0       0       0       0       0       0       0       0       0       0       0       
      +0       0       0       0       0       0
  7257 ;;      Locals:         0       0       0       0       0       0       0       0       0       0       0       0       
      +0       0       0       0       0       0       0       0       0       0       0       0       0       0       0       
      +0       0       0       0       0       0
  7258 ;;      Temps:          0       0       0       0       0       0       0       0       0       0       0       0       
      +0       0       0       0       0       0       0       0       0       0       0       0       0       0       0       
      +0       0       0       0       0       0
  7259 ;;      Totals:         0       0       0       0       0       0       0       0       0       0       0       0       
      +0       0       0       0       0       0       0       0       0       0       0       0       0       0       0       
      +0       0       0       0       0       0
  7260 ;;Total ram usage:        0 bytes
  7261 ;; Hardware stack levels used: 1
  7262 ;; Hardware stack levels required when called: 1
  7263 ;; This function calls:
  7264 ;;		_UART1_SetErrorHandler
  7265 ;;		_UART1_SetFramingErrorHandler
  7266 ;;		_UART1_SetOverrunErrorHandler
  7267 ;; This function is called by:
  7268 ;;		_SYSTEM_Initialize
  7269 ;; This function uses a non-reentrant model
  7270 ;;
  7271                           
  7272                           	psect	text30
  7273   004D78                     __ptext30:
  7274                           	callstack 0
  7275   004D78                     _UART1_Initialize:
  7276                           	callstack 124
  7277   004D78                     
  7278                           ;mcc_generated_files/uart1.c: 73:     U1P1L = 0x00;
  7279   004D78  0E00               	movlw	0
  7280   004D7A  0102               	movlb	2	; () banked
  7281   004D7C  6FA5               	movwf	165,b	;volatile
  7282                           
  7283                           ;mcc_generated_files/uart1.c: 76:     U1P1H = 0x00;
  7284   004D7E  0E00               	movlw	0
  7285   004D80  6FA6               	movwf	166,b	;volatile
  7286                           
  7287                           ;mcc_generated_files/uart1.c: 79:     U1P2L = 0x00;
  7288   004D82  0E00               	movlw	0
  7289   004D84  6FA7               	movwf	167,b	;volatile
  7290                           
  7291                           ;mcc_generated_files/uart1.c: 82:     U1P2H = 0x00;
  7292   004D86  0E00               	movlw	0
  7293   004D88  6FA8               	movwf	168,b	;volatile
  7294                           
  7295                           ;mcc_generated_files/uart1.c: 85:     U1P3L = 0x00;
  7296   004D8A  0E00               	movlw	0
  7297   004D8C  6FA9               	movwf	169,b	;volatile
  7298                           
  7299                           ;mcc_generated_files/uart1.c: 88:     U1P3H = 0x00;
  7300   004D8E  0E00               	movlw	0
  7301   004D90  6FAA               	movwf	170,b	;volatile
  7302                           
  7303                           ;mcc_generated_files/uart1.c: 91:     U1CON0 = 0xB0;
  7304   004D92  0EB0               	movlw	176
  7305   004D94  6FAB               	movwf	171,b	;volatile
  7306                           
  7307                           ;mcc_generated_files/uart1.c: 94:     U1CON1 = 0x80;
  7308   004D96  0E80               	movlw	128
  7309   004D98  6FAC               	movwf	172,b	;volatile
  7310                           
  7311                           ;mcc_generated_files/uart1.c: 97:     U1CON2 = 0x00;
  7312   004D9A  0E00               	movlw	0
  7313   004D9C  6FAD               	movwf	173,b	;volatile
  7314                           
  7315                           ;mcc_generated_files/uart1.c: 100:     U1BRGL = 0x8A;
  7316   004D9E  0E8A               	movlw	138
  7317   004DA0  6FAE               	movwf	174,b	;volatile
  7318                           
  7319                           ;mcc_generated_files/uart1.c: 103:     U1BRGH = 0x00;
  7320   004DA2  0E00               	movlw	0
  7321   004DA4  6FAF               	movwf	175,b	;volatile
  7322                           
  7323                           ;mcc_generated_files/uart1.c: 106:     U1FIFO = 0x00;
  7324   004DA6  0E00               	movlw	0
  7325   004DA8  6FB0               	movwf	176,b	;volatile
  7326                           
  7327                           ;mcc_generated_files/uart1.c: 109:     U1UIR = 0x00;
  7328   004DAA  0E00               	movlw	0
  7329   004DAC  6FB1               	movwf	177,b	;volatile
  7330                           
  7331                           ;mcc_generated_files/uart1.c: 112:     U1ERRIR = 0x00;
  7332   004DAE  0E00               	movlw	0
  7333   004DB0  6FB2               	movwf	178,b	;volatile
  7334                           
  7335                           ;mcc_generated_files/uart1.c: 115:     U1ERRIE = 0x00;
  7336   004DB2  0E00               	movlw	0
  7337   004DB4  6FB3               	movwf	179,b	;volatile
  7338   004DB6                     
  7339                           ; BSR set to: 2
  7340                           ;mcc_generated_files/uart1.c: 118:     UART1_SetFramingErrorHandler(UART1_DefaultFraming
      +                          ErrorHandler);
  7341   004DB6  0E00               	movlw	0
  7342   004DB8  6E01               	movwf	UART1_SetFramingErrorHandler@interruptHandler^(0+1280),c
  7343   004DBA  0E00               	movlw	0
  7344   004DBC  6E02               	movwf	(UART1_SetFramingErrorHandler@interruptHandler+1)^(0+1280),c
  7345   004DBE  0E00               	movlw	0
  7346   004DC0  6E03               	movwf	(UART1_SetFramingErrorHandler@interruptHandler+2)^(0+1280),c
  7347   004DC2  EC15  F029         	call	_UART1_SetFramingErrorHandler	;wreg free
  7348   004DC6                     
  7349                           ;mcc_generated_files/uart1.c: 119:     UART1_SetOverrunErrorHandler(UART1_DefaultOverrun
      +                          ErrorHandler);
  7350   004DC6  0E00               	movlw	0
  7351   004DC8  6E01               	movwf	UART1_SetOverrunErrorHandler@interruptHandler^(0+1280),c
  7352   004DCA  0E00               	movlw	0
  7353   004DCC  6E02               	movwf	(UART1_SetOverrunErrorHandler@interruptHandler+1)^(0+1280),c
  7354   004DCE  0E00               	movlw	0
  7355   004DD0  6E03               	movwf	(UART1_SetOverrunErrorHandler@interruptHandler+2)^(0+1280),c
  7356   004DD2  EC0E  F029         	call	_UART1_SetOverrunErrorHandler	;wreg free
  7357   004DD6                     
  7358                           ;mcc_generated_files/uart1.c: 120:     UART1_SetErrorHandler(UART1_DefaultErrorHandler);
  7359   004DD6  0E00               	movlw	0
  7360   004DD8  6E01               	movwf	UART1_SetErrorHandler@interruptHandler^(0+1280),c
  7361   004DDA  0E00               	movlw	0
  7362   004DDC  6E02               	movwf	(UART1_SetErrorHandler@interruptHandler+1)^(0+1280),c
  7363   004DDE  0E00               	movlw	0
  7364   004DE0  6E03               	movwf	(UART1_SetErrorHandler@interruptHandler+2)^(0+1280),c
  7365   004DE2  EC1C  F029         	call	_UART1_SetErrorHandler	;wreg free
  7366   004DE6                     
  7367                           ;mcc_generated_files/uart1.c: 122:     uart1RxLastError.status = 0;
  7368   004DE6  0E00               	movlw	0
  7369   004DE8  6E5F               	movwf	_uart1RxLastError^(0+1280),c	;volatile
  7370   004DEA  0012               	return		;funcret
  7371   004DEC                     __end_of_UART1_Initialize:
  7372                           	callstack 0
  7373                           
  7374 ;; *************** function _UART1_SetOverrunErrorHandler *****************
  7375 ;; Defined at:
  7376 ;;		line 212 in file "mcc_generated_files/uart1.c"
  7377 ;; Parameters:    Size  Location     Type
  7378 ;;  interruptHan    3    0[COMRAM] PTR FTN()void 
  7379 ;;		 -> UART1_DefaultOverrunErrorHandler(1), 
  7380 ;; Auto vars:     Size  Location     Type
  7381 ;;		None
  7382 ;; Return value:  Size  Location     Type
  7383 ;;                  1    wreg      void 
  7384 ;; Registers used:
  7385 ;;		wreg, status,2, status,0
  7386 ;; Tracked objects:
  7387 ;;		On entry : 0/0
  7388 ;;		On exit  : 0/0
  7389 ;;		Unchanged: 0/0
  7390 ;; Data sizes:     COMRAM   BANK5   BANK6   BANK7   BANK8   BANK9  BANK10  BANK11  BANK12  BANK13  BANK14  BANK15  BANK1
      +6  BANK17  BANK18  BANK19  BANK20  BANK21  BANK22  BANK23  BANK24  BANK25  BANK26  BANK27  BANK28  BANK29  BANK30  BANK3
      +1  BANK32  BANK33  BANK34  BANK35  BANK36
  7391 ;;      Params:         3       0       0       0       0       0       0       0       0       0       0       0       
      +0       0       0       0       0       0       0       0       0       0       0       0       0       0       0       
      +0       0       0       0       0       0
  7392 ;;      Locals:         0       0       0       0       0       0       0       0       0       0       0       0       
      +0       0       0       0       0       0       0       0       0       0       0       0       0       0       0       
      +0       0       0       0       0       0
  7393 ;;      Temps:          0       0       0       0       0       0       0       0       0       0       0       0       
      +0       0       0       0       0       0       0       0       0       0       0       0       0       0       0       
      +0       0       0       0       0       0
  7394 ;;      Totals:         3       0       0       0       0       0       0       0       0       0       0       0       
      +0       0       0       0       0       0       0       0       0       0       0       0       0       0       0       
      +0       0       0       0       0       0
  7395 ;;Total ram usage:        3 bytes
  7396 ;; Hardware stack levels used: 1
  7397 ;; This function calls:
  7398 ;;		Nothing
  7399 ;; This function is called by:
  7400 ;;		_UART1_Initialize
  7401 ;; This function uses a non-reentrant model
  7402 ;;
  7403                           
  7404                           	psect	text31
  7405   00521C                     __ptext31:
  7406                           	callstack 0
  7407   00521C                     _UART1_SetOverrunErrorHandler:
  7408                           	callstack 124
  7409   00521C                     
  7410                           ;mcc_generated_files/uart1.c: 213:     UART1_OverrunErrorHandler = interruptHandler;
  7411   00521C  C501  F5D6         	movff	UART1_SetOverrunErrorHandler@interruptHandler,_UART1_OverrunErrorHandler
  7412   005220  C502  F5D7         	movff	UART1_SetOverrunErrorHandler@interruptHandler+1,_UART1_OverrunErrorHandler+1
  7413   005224  C503  F5D8         	movff	UART1_SetOverrunErrorHandler@interruptHandler+2,_UART1_OverrunErrorHandler+2
  7414   005228  0012               	return		;funcret
  7415   00522A                     __end_of_UART1_SetOverrunErrorHandler:
  7416                           	callstack 0
  7417                           
  7418 ;; *************** function _UART1_SetFramingErrorHandler *****************
  7419 ;; Defined at:
  7420 ;;		line 208 in file "mcc_generated_files/uart1.c"
  7421 ;; Parameters:    Size  Location     Type
  7422 ;;  interruptHan    3    0[COMRAM] PTR FTN()void 
  7423 ;;		 -> UART1_DefaultFramingErrorHandler(1), 
  7424 ;; Auto vars:     Size  Location     Type
  7425 ;;		None
  7426 ;; Return value:  Size  Location     Type
  7427 ;;                  1    wreg      void 
  7428 ;; Registers used:
  7429 ;;		wreg, status,2, status,0
  7430 ;; Tracked objects:
  7431 ;;		On entry : 0/0
  7432 ;;		On exit  : 0/0
  7433 ;;		Unchanged: 0/0
  7434 ;; Data sizes:     COMRAM   BANK5   BANK6   BANK7   BANK8   BANK9  BANK10  BANK11  BANK12  BANK13  BANK14  BANK15  BANK1
      +6  BANK17  BANK18  BANK19  BANK20  BANK21  BANK22  BANK23  BANK24  BANK25  BANK26  BANK27  BANK28  BANK29  BANK30  BANK3
      +1  BANK32  BANK33  BANK34  BANK35  BANK36
  7435 ;;      Params:         3       0       0       0       0       0       0       0       0       0       0       0       
      +0       0       0       0       0       0       0       0       0       0       0       0       0       0       0       
      +0       0       0       0       0       0
  7436 ;;      Locals:         0       0       0       0       0       0       0       0       0       0       0       0       
      +0       0       0       0       0       0       0       0       0       0       0       0       0       0       0       
      +0       0       0       0       0       0
  7437 ;;      Temps:          0       0       0       0       0       0       0       0       0       0       0       0       
      +0       0       0       0       0       0       0       0       0       0       0       0       0       0       0       
      +0       0       0       0       0       0
  7438 ;;      Totals:         3       0       0       0       0       0       0       0       0       0       0       0       
      +0       0       0       0       0       0       0       0       0       0       0       0       0       0       0       
      +0       0       0       0       0       0
  7439 ;;Total ram usage:        3 bytes
  7440 ;; Hardware stack levels used: 1
  7441 ;; This function calls:
  7442 ;;		Nothing
  7443 ;; This function is called by:
  7444 ;;		_UART1_Initialize
  7445 ;; This function uses a non-reentrant model
  7446 ;;
  7447                           
  7448                           	psect	text32
  7449   00522A                     __ptext32:
  7450                           	callstack 0
  7451   00522A                     _UART1_SetFramingErrorHandler:
  7452                           	callstack 124
  7453   00522A                     
  7454                           ;mcc_generated_files/uart1.c: 209:     UART1_FramingErrorHandler = interruptHandler;
  7455   00522A  C501  F5D9         	movff	UART1_SetFramingErrorHandler@interruptHandler,_UART1_FramingErrorHandler
  7456   00522E  C502  F5DA         	movff	UART1_SetFramingErrorHandler@interruptHandler+1,_UART1_FramingErrorHandler+1
  7457   005232  C503  F5DB         	movff	UART1_SetFramingErrorHandler@interruptHandler+2,_UART1_FramingErrorHandler+2
  7458   005236  0012               	return		;funcret
  7459   005238                     __end_of_UART1_SetFramingErrorHandler:
  7460                           	callstack 0
  7461                           
  7462 ;; *************** function _UART1_SetErrorHandler *****************
  7463 ;; Defined at:
  7464 ;;		line 216 in file "mcc_generated_files/uart1.c"
  7465 ;; Parameters:    Size  Location     Type
  7466 ;;  interruptHan    3    0[COMRAM] PTR FTN()void 
  7467 ;;		 -> UART1_DefaultErrorHandler(1), 
  7468 ;; Auto vars:     Size  Location     Type
  7469 ;;		None
  7470 ;; Return value:  Size  Location     Type
  7471 ;;                  1    wreg      void 
  7472 ;; Registers used:
  7473 ;;		wreg, status,2, status,0
  7474 ;; Tracked objects:
  7475 ;;		On entry : 0/0
  7476 ;;		On exit  : 0/0
  7477 ;;		Unchanged: 0/0
  7478 ;; Data sizes:     COMRAM   BANK5   BANK6   BANK7   BANK8   BANK9  BANK10  BANK11  BANK12  BANK13  BANK14  BANK15  BANK1
      +6  BANK17  BANK18  BANK19  BANK20  BANK21  BANK22  BANK23  BANK24  BANK25  BANK26  BANK27  BANK28  BANK29  BANK30  BANK3
      +1  BANK32  BANK33  BANK34  BANK35  BANK36
  7479 ;;      Params:         3       0       0       0       0       0       0       0       0       0       0       0       
      +0       0       0       0       0       0       0       0       0       0       0       0       0       0       0       
      +0       0       0       0       0       0
  7480 ;;      Locals:         0       0       0       0       0       0       0       0       0       0       0       0       
      +0       0       0       0       0       0       0       0       0       0       0       0       0       0       0       
      +0       0       0       0       0       0
  7481 ;;      Temps:          0       0       0       0       0       0       0       0       0       0       0       0       
      +0       0       0       0       0       0       0       0       0       0       0       0       0       0       0       
      +0       0       0       0       0       0
  7482 ;;      Totals:         3       0       0       0       0       0       0       0       0       0       0       0       
      +0       0       0       0       0       0       0       0       0       0       0       0       0       0       0       
      +0       0       0       0       0       0
  7483 ;;Total ram usage:        3 bytes
  7484 ;; Hardware stack levels used: 1
  7485 ;; This function calls:
  7486 ;;		Nothing
  7487 ;; This function is called by:
  7488 ;;		_UART1_Initialize
  7489 ;; This function uses a non-reentrant model
  7490 ;;
  7491                           
  7492                           	psect	text33
  7493   005238                     __ptext33:
  7494                           	callstack 0
  7495   005238                     _UART1_SetErrorHandler:
  7496                           	callstack 124
  7497   005238                     
  7498                           ;mcc_generated_files/uart1.c: 217:     UART1_ErrorHandler = interruptHandler;
  7499   005238  C501  F5D3         	movff	UART1_SetErrorHandler@interruptHandler,_UART1_ErrorHandler
  7500   00523C  C502  F5D4         	movff	UART1_SetErrorHandler@interruptHandler+1,_UART1_ErrorHandler+1
  7501   005240  C503  F5D5         	movff	UART1_SetErrorHandler@interruptHandler+2,_UART1_ErrorHandler+2
  7502   005244  0012               	return		;funcret
  7503   005246                     __end_of_UART1_SetErrorHandler:
  7504                           	callstack 0
  7505                           
  7506 ;; *************** function _SPI1_Initialize *****************
  7507 ;; Defined at:
  7508 ;;		line 64 in file "mcc_generated_files/spi1.c"
  7509 ;; Parameters:    Size  Location     Type
  7510 ;;		None
  7511 ;; Auto vars:     Size  Location     Type
  7512 ;;		None
  7513 ;; Return value:  Size  Location     Type
  7514 ;;                  1    wreg      void 
  7515 ;; Registers used:
  7516 ;;		wreg, status,2
  7517 ;; Tracked objects:
  7518 ;;		On entry : 0/0
  7519 ;;		On exit  : 0/0
  7520 ;;		Unchanged: 0/0
  7521 ;; Data sizes:     COMRAM   BANK5   BANK6   BANK7   BANK8   BANK9  BANK10  BANK11  BANK12  BANK13  BANK14  BANK15  BANK1
      +6  BANK17  BANK18  BANK19  BANK20  BANK21  BANK22  BANK23  BANK24  BANK25  BANK26  BANK27  BANK28  BANK29  BANK30  BANK3
      +1  BANK32  BANK33  BANK34  BANK35  BANK36
  7522 ;;      Params:         0       0       0       0       0       0       0       0       0       0       0       0       
      +0       0       0       0       0       0       0       0       0       0       0       0       0       0       0       
      +0       0       0       0       0       0
  7523 ;;      Locals:         0       0       0       0       0       0       0       0       0       0       0       0       
      +0       0       0       0       0       0       0       0       0       0       0       0       0       0       0       
      +0       0       0       0       0       0
  7524 ;;      Temps:          0       0       0       0       0       0       0       0       0       0       0       0       
      +0       0       0       0       0       0       0       0       0       0       0       0       0       0       0       
      +0       0       0       0       0       0
  7525 ;;      Totals:         0       0       0       0       0       0       0       0       0       0       0       0       
      +0       0       0       0       0       0       0       0       0       0       0       0       0       0       0       
      +0       0       0       0       0       0
  7526 ;;Total ram usage:        0 bytes
  7527 ;; Hardware stack levels used: 1
  7528 ;; This function calls:
  7529 ;;		Nothing
  7530 ;; This function is called by:
  7531 ;;		_SYSTEM_Initialize
  7532 ;; This function uses a non-reentrant model
  7533 ;;
  7534                           
  7535                           	psect	text34
  7536   0051D6                     __ptext34:
  7537                           	callstack 0
  7538   0051D6                     _SPI1_Initialize:
  7539                           	callstack 125
  7540   0051D6                     
  7541                           ;mcc_generated_files/spi1.c: 67:     SPI1CON0 = 0x02;
  7542   0051D6  0E02               	movlw	2
  7543   0051D8  0100               	movlb	0	; () banked
  7544   0051DA  6F84               	movwf	132,b	;volatile
  7545                           
  7546                           ;mcc_generated_files/spi1.c: 69:     SPI1CON1 = 0x40;
  7547   0051DC  0E40               	movlw	64
  7548   0051DE  6F85               	movwf	133,b	;volatile
  7549                           
  7550                           ;mcc_generated_files/spi1.c: 71:     SPI1CON2 = 0x00;
  7551   0051E0  0E00               	movlw	0
  7552   0051E2  6F86               	movwf	134,b	;volatile
  7553                           
  7554                           ;mcc_generated_files/spi1.c: 73:     SPI1CLK = 0x00;
  7555   0051E4  0E00               	movlw	0
  7556   0051E6  6F8C               	movwf	140,b	;volatile
  7557                           
  7558                           ;mcc_generated_files/spi1.c: 75:     SPI1BAUD = 0x07;
  7559   0051E8  0E07               	movlw	7
  7560   0051EA  6F89               	movwf	137,b	;volatile
  7561   0051EC                     
  7562                           ; BSR set to: 0
  7563                           ;mcc_generated_files/spi1.c: 76:     TRISCbits.TRISC6 = 0;
  7564   0051EC  9CC8               	bcf	200,6,c	;volatile
  7565   0051EE                     
  7566                           ; BSR set to: 0
  7567   0051EE  0012               	return		;funcret
  7568   0051F0                     __end_of_SPI1_Initialize:
  7569                           	callstack 0
  7570                           
  7571 ;; *************** function _PMD_Initialize *****************
  7572 ;; Defined at:
  7573 ;;		line 75 in file "mcc_generated_files/mcc.c"
  7574 ;; Parameters:    Size  Location     Type
  7575 ;;		None
  7576 ;; Auto vars:     Size  Location     Type
  7577 ;;		None
  7578 ;; Return value:  Size  Location     Type
  7579 ;;                  1    wreg      void 
  7580 ;; Registers used:
  7581 ;;		wreg, status,2
  7582 ;; Tracked objects:
  7583 ;;		On entry : 0/0
  7584 ;;		On exit  : 0/0
  7585 ;;		Unchanged: 0/0
  7586 ;; Data sizes:     COMRAM   BANK5   BANK6   BANK7   BANK8   BANK9  BANK10  BANK11  BANK12  BANK13  BANK14  BANK15  BANK1
      +6  BANK17  BANK18  BANK19  BANK20  BANK21  BANK22  BANK23  BANK24  BANK25  BANK26  BANK27  BANK28  BANK29  BANK30  BANK3
      +1  BANK32  BANK33  BANK34  BANK35  BANK36
  7587 ;;      Params:         0       0       0       0       0       0       0       0       0       0       0       0       
      +0       0       0       0       0       0       0       0       0       0       0       0       0       0       0       
      +0       0       0       0       0       0
  7588 ;;      Locals:         0       0       0       0       0       0       0       0       0       0       0       0       
      +0       0       0       0       0       0       0       0       0       0       0       0       0       0       0       
      +0       0       0       0       0       0
  7589 ;;      Temps:          0       0       0       0       0       0       0       0       0       0       0       0       
      +0       0       0       0       0       0       0       0       0       0       0       0       0       0       0       
      +0       0       0       0       0       0
  7590 ;;      Totals:         0       0       0       0       0       0       0       0       0       0       0       0       
      +0       0       0       0       0       0       0       0       0       0       0       0       0       0       0       
      +0       0       0       0       0       0
  7591 ;;Total ram usage:        0 bytes
  7592 ;; Hardware stack levels used: 1
  7593 ;; This function calls:
  7594 ;;		Nothing
  7595 ;; This function is called by:
  7596 ;;		_SYSTEM_Initialize
  7597 ;; This function uses a non-reentrant model
  7598 ;;
  7599                           
  7600                           	psect	text35
  7601   005154                     __ptext35:
  7602                           	callstack 0
  7603   005154                     _PMD_Initialize:
  7604                           	callstack 125
  7605   005154                     
  7606                           ;mcc_generated_files/mcc.c: 78:     PMD0 = 0x00;
  7607   005154  0E00               	movlw	0
  7608   005156  0100               	movlb	0	; () banked
  7609   005158  6F60               	movwf	96,b	;volatile
  7610                           
  7611                           ;mcc_generated_files/mcc.c: 80:     PMD1 = 0x00;
  7612   00515A  0E00               	movlw	0
  7613   00515C  6F61               	movwf	97,b	;volatile
  7614                           
  7615                           ;mcc_generated_files/mcc.c: 82:     PMD3 = 0x00;
  7616   00515E  0E00               	movlw	0
  7617   005160  6F63               	movwf	99,b	;volatile
  7618                           
  7619                           ;mcc_generated_files/mcc.c: 84:     PMD4 = 0x00;
  7620   005162  0E00               	movlw	0
  7621   005164  6F64               	movwf	100,b	;volatile
  7622                           
  7623                           ;mcc_generated_files/mcc.c: 86:     PMD5 = 0x00;
  7624   005166  0E00               	movlw	0
  7625   005168  6F65               	movwf	101,b	;volatile
  7626                           
  7627                           ;mcc_generated_files/mcc.c: 88:     PMD6 = 0x00;
  7628   00516A  0E00               	movlw	0
  7629   00516C  6F66               	movwf	102,b	;volatile
  7630                           
  7631                           ;mcc_generated_files/mcc.c: 90:     PMD7 = 0x00;
  7632   00516E  0E00               	movlw	0
  7633   005170  6F67               	movwf	103,b	;volatile
  7634                           
  7635                           ;mcc_generated_files/mcc.c: 92:     PMD8 = 0x00;
  7636   005172  0E00               	movlw	0
  7637   005174  6F68               	movwf	104,b	;volatile
  7638   005176                     
  7639                           ; BSR set to: 0
  7640   005176  0012               	return		;funcret
  7641   005178                     __end_of_PMD_Initialize:
  7642                           	callstack 0
  7643                           
  7644 ;; *************** function _PIN_MANAGER_Initialize *****************
  7645 ;; Defined at:
  7646 ;;		line 55 in file "mcc_generated_files/pin_manager.c"
  7647 ;; Parameters:    Size  Location     Type
  7648 ;;		None
  7649 ;; Auto vars:     Size  Location     Type
  7650 ;;		None
  7651 ;; Return value:  Size  Location     Type
  7652 ;;                  1    wreg      void 
  7653 ;; Registers used:
  7654 ;;		wreg, status,2
  7655 ;; Tracked objects:
  7656 ;;		On entry : 0/0
  7657 ;;		On exit  : 0/0
  7658 ;;		Unchanged: 0/0
  7659 ;; Data sizes:     COMRAM   BANK5   BANK6   BANK7   BANK8   BANK9  BANK10  BANK11  BANK12  BANK13  BANK14  BANK15  BANK1
      +6  BANK17  BANK18  BANK19  BANK20  BANK21  BANK22  BANK23  BANK24  BANK25  BANK26  BANK27  BANK28  BANK29  BANK30  BANK3
      +1  BANK32  BANK33  BANK34  BANK35  BANK36
  7660 ;;      Params:         0       0       0       0       0       0       0       0       0       0       0       0       
      +0       0       0       0       0       0       0       0       0       0       0       0       0       0       0       
      +0       0       0       0       0       0
  7661 ;;      Locals:         0       0       0       0       0       0       0       0       0       0       0       0       
      +0       0       0       0       0       0       0       0       0       0       0       0       0       0       0       
      +0       0       0       0       0       0
  7662 ;;      Temps:          0       0       0       0       0       0       0       0       0       0       0       0       
      +0       0       0       0       0       0       0       0       0       0       0       0       0       0       0       
      +0       0       0       0       0       0
  7663 ;;      Totals:         0       0       0       0       0       0       0       0       0       0       0       0       
      +0       0       0       0       0       0       0       0       0       0       0       0       0       0       0       
      +0       0       0       0       0       0
  7664 ;;Total ram usage:        0 bytes
  7665 ;; Hardware stack levels used: 1
  7666 ;; This function calls:
  7667 ;;		Nothing
  7668 ;; This function is called by:
  7669 ;;		_SYSTEM_Initialize
  7670 ;; This function uses a non-reentrant model
  7671 ;;
  7672                           
  7673                           	psect	text36
  7674   004B96                     __ptext36:
  7675                           	callstack 0
  7676   004B96                     _PIN_MANAGER_Initialize:
  7677                           	callstack 125
  7678   004B96                     
  7679                           ;mcc_generated_files/pin_manager.c: 60:     LATE = 0x00;
  7680   004B96  0E00               	movlw	0
  7681   004B98  6EC2               	movwf	194,c	;volatile
  7682                           
  7683                           ;mcc_generated_files/pin_manager.c: 61:     LATD = 0x10;
  7684   004B9A  0E10               	movlw	16
  7685   004B9C  6EC1               	movwf	193,c	;volatile
  7686                           
  7687                           ;mcc_generated_files/pin_manager.c: 62:     LATA = 0x00;
  7688   004B9E  0E00               	movlw	0
  7689   004BA0  6EBE               	movwf	190,c	;volatile
  7690                           
  7691                           ;mcc_generated_files/pin_manager.c: 63:     LATF = 0x00;
  7692   004BA2  0E00               	movlw	0
  7693   004BA4  6EC3               	movwf	195,c	;volatile
  7694                           
  7695                           ;mcc_generated_files/pin_manager.c: 64:     LATB = 0x00;
  7696   004BA6  0E00               	movlw	0
  7697   004BA8  6EBF               	movwf	191,c	;volatile
  7698                           
  7699                           ;mcc_generated_files/pin_manager.c: 65:     LATC = 0x00;
  7700   004BAA  0E00               	movlw	0
  7701   004BAC  6EC0               	movwf	192,c	;volatile
  7702                           
  7703                           ;mcc_generated_files/pin_manager.c: 70:     TRISE = 0x07;
  7704   004BAE  0E07               	movlw	7
  7705   004BB0  6ECA               	movwf	202,c	;volatile
  7706                           
  7707                           ;mcc_generated_files/pin_manager.c: 71:     TRISF = 0xFE;
  7708   004BB2  0EFE               	movlw	254
  7709   004BB4  6ECB               	movwf	203,c	;volatile
  7710   004BB6                     
  7711                           ;mcc_generated_files/pin_manager.c: 72:     TRISA = 0xFF;
  7712   004BB6  68C6               	setf	198,c	;volatile
  7713   004BB8                     
  7714                           ;mcc_generated_files/pin_manager.c: 73:     TRISB = 0xFF;
  7715   004BB8  68C7               	setf	199,c	;volatile
  7716                           
  7717                           ;mcc_generated_files/pin_manager.c: 74:     TRISC = 0xAF;
  7718   004BBA  0EAF               	movlw	175
  7719   004BBC  6EC8               	movwf	200,c	;volatile
  7720                           
  7721                           ;mcc_generated_files/pin_manager.c: 75:     TRISD = 0xEF;
  7722   004BBE  0EEF               	movlw	239
  7723   004BC0  6EC9               	movwf	201,c	;volatile
  7724                           
  7725                           ;mcc_generated_files/pin_manager.c: 80:     ANSELD = 0xEF;
  7726   004BC2  0EEF               	movlw	239
  7727   004BC4  0104               	movlb	4	; () banked
  7728   004BC6  6F18               	movwf	24,b	;volatile
  7729                           
  7730                           ;mcc_generated_files/pin_manager.c: 81:     ANSELC = 0x8F;
  7731   004BC8  0E8F               	movlw	143
  7732   004BCA  6F10               	movwf	16,b	;volatile
  7733   004BCC                     
  7734                           ; BSR set to: 4
  7735                           ;mcc_generated_files/pin_manager.c: 82:     ANSELB = 0xFF;
  7736   004BCC  6908               	setf	8,b	;volatile
  7737                           
  7738                           ;mcc_generated_files/pin_manager.c: 83:     ANSELE = 0x07;
  7739   004BCE  0E07               	movlw	7
  7740   004BD0  6F20               	movwf	32,b	;volatile
  7741                           
  7742                           ;mcc_generated_files/pin_manager.c: 84:     ANSELF = 0xFD;
  7743   004BD2  0EFD               	movlw	253
  7744   004BD4  6F28               	movwf	40,b	;volatile
  7745   004BD6                     
  7746                           ; BSR set to: 4
  7747                           ;mcc_generated_files/pin_manager.c: 85:     ANSELA = 0xFF;
  7748   004BD6  6900               	setf	0,b	;volatile
  7749                           
  7750                           ;mcc_generated_files/pin_manager.c: 90:     WPUD = 0x00;
  7751   004BD8  0E00               	movlw	0
  7752   004BDA  6F19               	movwf	25,b	;volatile
  7753                           
  7754                           ;mcc_generated_files/pin_manager.c: 91:     WPUF = 0x00;
  7755   004BDC  0E00               	movlw	0
  7756   004BDE  6F29               	movwf	41,b	;volatile
  7757                           
  7758                           ;mcc_generated_files/pin_manager.c: 92:     WPUE = 0x00;
  7759   004BE0  0E00               	movlw	0
  7760   004BE2  6F21               	movwf	33,b	;volatile
  7761                           
  7762                           ;mcc_generated_files/pin_manager.c: 93:     WPUB = 0x00;
  7763   004BE4  0E00               	movlw	0
  7764   004BE6  6F09               	movwf	9,b	;volatile
  7765                           
  7766                           ;mcc_generated_files/pin_manager.c: 94:     WPUA = 0x00;
  7767   004BE8  0E00               	movlw	0
  7768   004BEA  6F01               	movwf	1,b	;volatile
  7769                           
  7770                           ;mcc_generated_files/pin_manager.c: 95:     WPUC = 0x00;
  7771   004BEC  0E00               	movlw	0
  7772   004BEE  6F11               	movwf	17,b	;volatile
  7773                           
  7774                           ;mcc_generated_files/pin_manager.c: 100:     RB1I2C = 0x00;
  7775   004BF0  0E00               	movlw	0
  7776   004BF2  0102               	movlb	2	; () banked
  7777   004BF4  6F89               	movwf	137,b	;volatile
  7778                           
  7779                           ;mcc_generated_files/pin_manager.c: 101:     RB2I2C = 0x00;
  7780   004BF6  0E00               	movlw	0
  7781   004BF8  6F88               	movwf	136,b	;volatile
  7782                           
  7783                           ;mcc_generated_files/pin_manager.c: 102:     RC3I2C = 0x00;
  7784   004BFA  0E00               	movlw	0
  7785   004BFC  6F87               	movwf	135,b	;volatile
  7786                           
  7787                           ;mcc_generated_files/pin_manager.c: 103:     RC4I2C = 0x00;
  7788   004BFE  0E00               	movlw	0
  7789   004C00  6F86               	movwf	134,b	;volatile
  7790                           
  7791                           ;mcc_generated_files/pin_manager.c: 108:     ODCONE = 0x00;
  7792   004C02  0E00               	movlw	0
  7793   004C04  0104               	movlb	4	; () banked
  7794   004C06  6F22               	movwf	34,b	;volatile
  7795                           
  7796                           ;mcc_generated_files/pin_manager.c: 109:     ODCONF = 0x00;
  7797   004C08  0E00               	movlw	0
  7798   004C0A  6F2A               	movwf	42,b	;volatile
  7799                           
  7800                           ;mcc_generated_files/pin_manager.c: 110:     ODCONA = 0x00;
  7801   004C0C  0E00               	movlw	0
  7802   004C0E  6F02               	movwf	2,b	;volatile
  7803                           
  7804                           ;mcc_generated_files/pin_manager.c: 111:     ODCONB = 0x00;
  7805   004C10  0E00               	movlw	0
  7806   004C12  6F0A               	movwf	10,b	;volatile
  7807                           
  7808                           ;mcc_generated_files/pin_manager.c: 112:     ODCONC = 0x00;
  7809   004C14  0E00               	movlw	0
  7810   004C16  6F12               	movwf	18,b	;volatile
  7811                           
  7812                           ;mcc_generated_files/pin_manager.c: 113:     ODCOND = 0x00;
  7813   004C18  0E00               	movlw	0
  7814   004C1A  6F1A               	movwf	26,b	;volatile
  7815   004C1C                     
  7816                           ; BSR set to: 4
  7817                           ;mcc_generated_files/pin_manager.c: 118:     SLRCONA = 0xFF;
  7818   004C1C  6903               	setf	3,b	;volatile
  7819   004C1E                     
  7820                           ; BSR set to: 4
  7821                           ;mcc_generated_files/pin_manager.c: 119:     SLRCONB = 0xFF;
  7822   004C1E  690B               	setf	11,b	;volatile
  7823   004C20                     
  7824                           ; BSR set to: 4
  7825                           ;mcc_generated_files/pin_manager.c: 120:     SLRCONC = 0xFF;
  7826   004C20  6913               	setf	19,b	;volatile
  7827   004C22                     
  7828                           ; BSR set to: 4
  7829                           ;mcc_generated_files/pin_manager.c: 121:     SLRCOND = 0xFF;
  7830   004C22  691B               	setf	27,b	;volatile
  7831                           
  7832                           ;mcc_generated_files/pin_manager.c: 122:     SLRCONE = 0x07;
  7833   004C24  0E07               	movlw	7
  7834   004C26  6F23               	movwf	35,b	;volatile
  7835   004C28                     
  7836                           ; BSR set to: 4
  7837                           ;mcc_generated_files/pin_manager.c: 123:     SLRCONF = 0xFF;
  7838   004C28  692B               	setf	43,b	;volatile
  7839   004C2A                     
  7840                           ; BSR set to: 4
  7841                           ;mcc_generated_files/pin_manager.c: 128:     INLVLA = 0xFF;
  7842   004C2A  6904               	setf	4,b	;volatile
  7843   004C2C                     
  7844                           ; BSR set to: 4
  7845                           ;mcc_generated_files/pin_manager.c: 129:     INLVLB = 0xFF;
  7846   004C2C  690C               	setf	12,b	;volatile
  7847   004C2E                     
  7848                           ; BSR set to: 4
  7849                           ;mcc_generated_files/pin_manager.c: 130:     INLVLC = 0xFF;
  7850   004C2E  6914               	setf	20,b	;volatile
  7851   004C30                     
  7852                           ; BSR set to: 4
  7853                           ;mcc_generated_files/pin_manager.c: 131:     INLVLD = 0xFF;
  7854   004C30  691C               	setf	28,b	;volatile
  7855                           
  7856                           ;mcc_generated_files/pin_manager.c: 132:     INLVLE = 0x0F;
  7857   004C32  0E0F               	movlw	15
  7858   004C34  6F24               	movwf	36,b	;volatile
  7859   004C36                     
  7860                           ; BSR set to: 4
  7861                           ;mcc_generated_files/pin_manager.c: 133:     INLVLF = 0xFF;
  7862   004C36  692C               	setf	44,b	;volatile
  7863                           
  7864                           ;mcc_generated_files/pin_manager.c: 142:     SPI1SCKPPS = 0x16;
  7865   004C38  0E16               	movlw	22
  7866   004C3A  0102               	movlb	2	; () banked
  7867   004C3C  6F6A               	movwf	106,b	;volatile
  7868                           
  7869                           ;mcc_generated_files/pin_manager.c: 143:     RC4PPS = 0x32;
  7870   004C3E  0E32               	movlw	50
  7871   004C40  6F15               	movwf	21,b	;volatile
  7872                           
  7873                           ;mcc_generated_files/pin_manager.c: 144:     RC6PPS = 0x31;
  7874   004C42  0E31               	movlw	49
  7875   004C44  6F17               	movwf	23,b	;volatile
  7876                           
  7877                           ;mcc_generated_files/pin_manager.c: 145:     RF0PPS = 0x20;
  7878   004C46  0E20               	movlw	32
  7879   004C48  6F29               	movwf	41,b	;volatile
  7880                           
  7881                           ;mcc_generated_files/pin_manager.c: 146:     U1RXPPS = 0x29;
  7882   004C4A  0E29               	movlw	41
  7883   004C4C  6F72               	movwf	114,b	;volatile
  7884                           
  7885                           ;mcc_generated_files/pin_manager.c: 147:     SPI1SDIPPS = 0x15;
  7886   004C4E  0E15               	movlw	21
  7887   004C50  6F6B               	movwf	107,b	;volatile
  7888   004C52                     
  7889                           ; BSR set to: 2
  7890   004C52  0012               	return		;funcret
  7891   004C54                     __end_of_PIN_MANAGER_Initialize:
  7892                           	callstack 0
  7893                           
  7894 ;; *************** function _OSCILLATOR_Initialize *****************
  7895 ;; Defined at:
  7896 ;;		line 59 in file "mcc_generated_files/mcc.c"
  7897 ;; Parameters:    Size  Location     Type
  7898 ;;		None
  7899 ;; Auto vars:     Size  Location     Type
  7900 ;;		None
  7901 ;; Return value:  Size  Location     Type
  7902 ;;                  1    wreg      void 
  7903 ;; Registers used:
  7904 ;;		wreg, status,2
  7905 ;; Tracked objects:
  7906 ;;		On entry : 0/0
  7907 ;;		On exit  : 0/0
  7908 ;;		Unchanged: 0/0
  7909 ;; Data sizes:     COMRAM   BANK5   BANK6   BANK7   BANK8   BANK9  BANK10  BANK11  BANK12  BANK13  BANK14  BANK15  BANK1
      +6  BANK17  BANK18  BANK19  BANK20  BANK21  BANK22  BANK23  BANK24  BANK25  BANK26  BANK27  BANK28  BANK29  BANK30  BANK3
      +1  BANK32  BANK33  BANK34  BANK35  BANK36
  7910 ;;      Params:         0       0       0       0       0       0       0       0       0       0       0       0       
      +0       0       0       0       0       0       0       0       0       0       0       0       0       0       0       
      +0       0       0       0       0       0
  7911 ;;      Locals:         0       0       0       0       0       0       0       0       0       0       0       0       
      +0       0       0       0       0       0       0       0       0       0       0       0       0       0       0       
      +0       0       0       0       0       0
  7912 ;;      Temps:          0       0       0       0       0       0       0       0       0       0       0       0       
      +0       0       0       0       0       0       0       0       0       0       0       0       0       0       0       
      +0       0       0       0       0       0
  7913 ;;      Totals:         0       0       0       0       0       0       0       0       0       0       0       0       
      +0       0       0       0       0       0       0       0       0       0       0       0       0       0       0       
      +0       0       0       0       0       0
  7914 ;;Total ram usage:        0 bytes
  7915 ;; Hardware stack levels used: 1
  7916 ;; This function calls:
  7917 ;;		Nothing
  7918 ;; This function is called by:
  7919 ;;		_SYSTEM_Initialize
  7920 ;; This function uses a non-reentrant model
  7921 ;;
  7922                           
  7923                           	psect	text37
  7924   0051BA                     __ptext37:
  7925                           	callstack 0
  7926   0051BA                     _OSCILLATOR_Initialize:
  7927                           	callstack 125
  7928   0051BA                     
  7929                           ;mcc_generated_files/mcc.c: 62:     OSCCON1 = 0x60;
  7930   0051BA  0E60               	movlw	96
  7931   0051BC  0100               	movlb	0	; () banked
  7932   0051BE  6FAD               	movwf	173,b	;volatile
  7933                           
  7934                           ;mcc_generated_files/mcc.c: 64:     OSCCON3 = 0x00;
  7935   0051C0  0E00               	movlw	0
  7936   0051C2  6FAF               	movwf	175,b	;volatile
  7937                           
  7938                           ;mcc_generated_files/mcc.c: 66:     OSCEN = 0x00;
  7939   0051C4  0E00               	movlw	0
  7940   0051C6  6FB3               	movwf	179,b	;volatile
  7941                           
  7942                           ;mcc_generated_files/mcc.c: 68:     OSCFRQ = 0x08;
  7943   0051C8  0E08               	movlw	8
  7944   0051CA  6FB1               	movwf	177,b	;volatile
  7945                           
  7946                           ;mcc_generated_files/mcc.c: 70:     OSCTUNE = 0x00;
  7947   0051CC  0E00               	movlw	0
  7948   0051CE  6FB0               	movwf	176,b	;volatile
  7949                           
  7950                           ;mcc_generated_files/mcc.c: 72:     ACTCON = 0x00;
  7951   0051D0  0E00               	movlw	0
  7952   0051D2  6FAC               	movwf	172,b	;volatile
  7953   0051D4                     
  7954                           ; BSR set to: 0
  7955   0051D4  0012               	return		;funcret
  7956   0051D6                     __end_of_OSCILLATOR_Initialize:
  7957                           	callstack 0
  7958                           
  7959 ;; *************** function _SPI1_ReadBlock *****************
  7960 ;; Defined at:
  7961 ;;		line 129 in file "mcc_generated_files/spi1.c"
  7962 ;; Parameters:    Size  Location     Type
  7963 ;;  block           2    1[COMRAM] PTR void 
  7964 ;;		 -> main@buffer(2), 
  7965 ;;  blockSize       2    3[COMRAM] unsigned int 
  7966 ;; Auto vars:     Size  Location     Type
  7967 ;;  data            2    5[COMRAM] PTR unsigned char 
  7968 ;;		 -> main@buffer(2), 
  7969 ;; Return value:  Size  Location     Type
  7970 ;;                  1    wreg      void 
  7971 ;; Registers used:
  7972 ;;		wreg, fsr2l, fsr2h, status,2, status,0, cstack
  7973 ;; Tracked objects:
  7974 ;;		On entry : 0/0
  7975 ;;		On exit  : 0/0
  7976 ;;		Unchanged: 0/0
  7977 ;; Data sizes:     COMRAM   BANK5   BANK6   BANK7   BANK8   BANK9  BANK10  BANK11  BANK12  BANK13  BANK14  BANK15  BANK1
      +6  BANK17  BANK18  BANK19  BANK20  BANK21  BANK22  BANK23  BANK24  BANK25  BANK26  BANK27  BANK28  BANK29  BANK30  BANK3
      +1  BANK32  BANK33  BANK34  BANK35  BANK36
  7978 ;;      Params:         4       0       0       0       0       0       0       0       0       0       0       0       
      +0       0       0       0       0       0       0       0       0       0       0       0       0       0       0       
      +0       0       0       0       0       0
  7979 ;;      Locals:         2       0       0       0       0       0       0       0       0       0       0       0       
      +0       0       0       0       0       0       0       0       0       0       0       0       0       0       0       
      +0       0       0       0       0       0
  7980 ;;      Temps:          0       0       0       0       0       0       0       0       0       0       0       0       
      +0       0       0       0       0       0       0       0       0       0       0       0       0       0       0       
      +0       0       0       0       0       0
  7981 ;;      Totals:         6       0       0       0       0       0       0       0       0       0       0       0       
      +0       0       0       0       0       0       0       0       0       0       0       0       0       0       0       
      +0       0       0       0       0       0
  7982 ;;Total ram usage:        6 bytes
  7983 ;; Hardware stack levels used: 1
  7984 ;; Hardware stack levels required when called: 1
  7985 ;; This function calls:
  7986 ;;		_SPI1_ExchangeByte
  7987 ;; This function is called by:
  7988 ;;		_main
  7989 ;; This function uses a non-reentrant model
  7990 ;;
  7991                           
  7992                           	psect	text38
  7993   00505E                     __ptext38:
  7994                           	callstack 0
  7995   00505E                     _SPI1_ReadBlock:
  7996                           	callstack 125
  7997   00505E                     
  7998                           ;mcc_generated_files/spi1.c: 129: void SPI1_ReadBlock(void *block, size_t blockSize);mcc
      +                          _generated_files/spi1.c: 130: {;mcc_generated_files/spi1.c: 131:     uint8_t *data = blo
      +                          ck;
  7999   00505E  C502  F506         	movff	SPI1_ReadBlock@block,SPI1_ReadBlock@data
  8000   005062  C503  F507         	movff	SPI1_ReadBlock@block+1,SPI1_ReadBlock@data+1
  8001                           
  8002                           ;mcc_generated_files/spi1.c: 132:     while(blockSize--)
  8003   005066  EF3F  F028         	goto	l3992
  8004   00506A                     l3988:
  8005                           
  8006                           ;mcc_generated_files/spi1.c: 133:     {;mcc_generated_files/spi1.c: 134:         *data++
      +                           = SPI1_ExchangeByte(0);
  8007   00506A  0E00               	movlw	0
  8008   00506C  ECCD  F028         	call	_SPI1_ExchangeByte
  8009   005070  C506  F4D9         	movff	SPI1_ReadBlock@data,fsr2l
  8010   005074  C507  F4DA         	movff	SPI1_ReadBlock@data+1,fsr2h
  8011   005078  6EDF               	movwf	indf2,c
  8012   00507A  4A06               	infsnz	SPI1_ReadBlock@data^(0+1280),f,c
  8013   00507C  2A07               	incf	(SPI1_ReadBlock@data+1)^(0+1280),f,c
  8014   00507E                     l3992:
  8015                           
  8016                           ;mcc_generated_files/spi1.c: 132:     while(blockSize--)
  8017   00507E  0604               	decf	SPI1_ReadBlock@blockSize^(0+1280),f,c
  8018   005080  A0D8               	btfss	status,0,c
  8019   005082  0605               	decf	(SPI1_ReadBlock@blockSize+1)^(0+1280),f,c
  8020   005084  2804               	incf	SPI1_ReadBlock@blockSize^(0+1280),w,c
  8021   005086  E106               	bnz	u3791
  8022   005088  2805               	incf	(SPI1_ReadBlock@blockSize+1)^(0+1280),w,c
  8023   00508A  A4D8               	btfss	status,2,c
  8024   00508C  EF4A  F028         	goto	u3791
  8025   005090  EF4C  F028         	goto	u3790
  8026   005094                     u3791:
  8027   005094  EF35  F028         	goto	l3988
  8028   005098                     u3790:
  8029   005098  0012               	return		;funcret
  8030   00509A                     __end_of_SPI1_ReadBlock:
  8031                           	callstack 0
  8032                           
  8033 ;; *************** function _SPI1_ExchangeByte *****************
  8034 ;; Defined at:
  8035 ;;		line 99 in file "mcc_generated_files/spi1.c"
  8036 ;; Parameters:    Size  Location     Type
  8037 ;;  data            1    wreg     unsigned char 
  8038 ;; Auto vars:     Size  Location     Type
  8039 ;;  data            1    0[COMRAM] unsigned char 
  8040 ;; Return value:  Size  Location     Type
  8041 ;;                  1    wreg      unsigned char 
  8042 ;; Registers used:
  8043 ;;		wreg, status,2
  8044 ;; Tracked objects:
  8045 ;;		On entry : 0/0
  8046 ;;		On exit  : 0/0
  8047 ;;		Unchanged: 0/0
  8048 ;; Data sizes:     COMRAM   BANK5   BANK6   BANK7   BANK8   BANK9  BANK10  BANK11  BANK12  BANK13  BANK14  BANK15  BANK1
      +6  BANK17  BANK18  BANK19  BANK20  BANK21  BANK22  BANK23  BANK24  BANK25  BANK26  BANK27  BANK28  BANK29  BANK30  BANK3
      +1  BANK32  BANK33  BANK34  BANK35  BANK36
  8049 ;;      Params:         0       0       0       0       0       0       0       0       0       0       0       0       
      +0       0       0       0       0       0       0       0       0       0       0       0       0       0       0       
      +0       0       0       0       0       0
  8050 ;;      Locals:         1       0       0       0       0       0       0       0       0       0       0       0       
      +0       0       0       0       0       0       0       0       0       0       0       0       0       0       0       
      +0       0       0       0       0       0
  8051 ;;      Temps:          0       0       0       0       0       0       0       0       0       0       0       0       
      +0       0       0       0       0       0       0       0       0       0       0       0       0       0       0       
      +0       0       0       0       0       0
  8052 ;;      Totals:         1       0       0       0       0       0       0       0       0       0       0       0       
      +0       0       0       0       0       0       0       0       0       0       0       0       0       0       0       
      +0       0       0       0       0       0
  8053 ;;Total ram usage:        1 bytes
  8054 ;; Hardware stack levels used: 1
  8055 ;; This function calls:
  8056 ;;		Nothing
  8057 ;; This function is called by:
  8058 ;;		_SPI1_ReadBlock
  8059 ;;		_SPI1_WriteBlock
  8060 ;; This function uses a non-reentrant model
  8061 ;;
  8062                           
  8063                           	psect	text39
  8064   00519A                     __ptext39:
  8065                           	callstack 0
  8066   00519A                     _SPI1_ExchangeByte:
  8067                           	callstack 125
  8068                           
  8069                           ;incstack = 0
  8070                           ;SPI1_ExchangeByte@data stored from wreg
  8071   00519A  6E01               	movwf	SPI1_ExchangeByte@data^(0+1280),c
  8072   00519C                     
  8073                           ;mcc_generated_files/spi1.c: 99: uint8_t SPI1_ExchangeByte(uint8_t data);mcc_generated_f
      +                          iles/spi1.c: 100: {;mcc_generated_files/spi1.c: 101:     SPI1TCNTL = 1;
  8074   00519C  0E01               	movlw	1
  8075   00519E  0100               	movlb	0	; () banked
  8076   0051A0  6F82               	movwf	130,b	;volatile
  8077   0051A2                     
  8078                           ; BSR set to: 0
  8079                           ;mcc_generated_files/spi1.c: 102:     SPI1TXB = data;
  8080   0051A2  C501  F081         	movff	SPI1_ExchangeByte@data,129	;volatile
  8081   0051A6                     l65:
  8082   0051A6  A0B1               	btfss	177,0,c	;volatile
  8083   0051A8  EFD8  F028         	goto	u3761
  8084   0051AC  EFDA  F028         	goto	u3760
  8085   0051B0                     u3761:
  8086   0051B0  EFD3  F028         	goto	l65
  8087   0051B4                     u3760:
  8088   0051B4                     
  8089                           ;mcc_generated_files/spi1.c: 104:     return SPI1RXB;
  8090   0051B4  0100               	movlb	0	; () banked
  8091   0051B6  5180               	movf	128,w,b	;volatile
  8092   0051B8                     
  8093                           ; BSR set to: 0
  8094   0051B8  0012               	return		;funcret
  8095   0051BA                     __end_of_SPI1_ExchangeByte:
  8096                           	callstack 0
  8097                           
  8098 ;; *************** function _SPI1_Open *****************
  8099 ;; Defined at:
  8100 ;;		line 79 in file "mcc_generated_files/spi1.c"
  8101 ;; Parameters:    Size  Location     Type
  8102 ;;  spi1UniqueCo    1    wreg     enum E355
  8103 ;; Auto vars:     Size  Location     Type
  8104 ;;  spi1UniqueCo    1    1[COMRAM] enum E355
  8105 ;; Return value:  Size  Location     Type
  8106 ;;                  1    wreg      _Bool 
  8107 ;; Registers used:
  8108 ;;		wreg, status,2, status,0, tblptrl, tblptrh, tblptru, prodl, prodh
  8109 ;; Tracked objects:
  8110 ;;		On entry : 0/0
  8111 ;;		On exit  : 0/0
  8112 ;;		Unchanged: 0/0
  8113 ;; Data sizes:     COMRAM   BANK5   BANK6   BANK7   BANK8   BANK9  BANK10  BANK11  BANK12  BANK13  BANK14  BANK15  BANK1
      +6  BANK17  BANK18  BANK19  BANK20  BANK21  BANK22  BANK23  BANK24  BANK25  BANK26  BANK27  BANK28  BANK29  BANK30  BANK3
      +1  BANK32  BANK33  BANK34  BANK35  BANK36
  8114 ;;      Params:         0       0       0       0       0       0       0       0       0       0       0       0       
      +0       0       0       0       0       0       0       0       0       0       0       0       0       0       0       
      +0       0       0       0       0       0
  8115 ;;      Locals:         1       0       0       0       0       0       0       0       0       0       0       0       
      +0       0       0       0       0       0       0       0       0       0       0       0       0       0       0       
      +0       0       0       0       0       0
  8116 ;;      Temps:          1       0       0       0       0       0       0       0       0       0       0       0       
      +0       0       0       0       0       0       0       0       0       0       0       0       0       0       0       
      +0       0       0       0       0       0
  8117 ;;      Totals:         2       0       0       0       0       0       0       0       0       0       0       0       
      +0       0       0       0       0       0       0       0       0       0       0       0       0       0       0       
      +0       0       0       0       0       0
  8118 ;;Total ram usage:        2 bytes
  8119 ;; Hardware stack levels used: 1
  8120 ;; This function calls:
  8121 ;;		Nothing
  8122 ;; This function is called by:
  8123 ;;		_main
  8124 ;; This function uses a non-reentrant model
  8125 ;;
  8126                           
  8127                           	psect	text40
  8128   0049F8                     __ptext40:
  8129                           	callstack 0
  8130   0049F8                     _SPI1_Open:
  8131                           	callstack 126
  8132                           
  8133                           ; BSR set to: 0
  8134                           ;incstack = 0
  8135                           ;SPI1_Open@spi1UniqueConfiguration stored from wreg
  8136   0049F8  6E02               	movwf	SPI1_Open@spi1UniqueConfiguration^(0+1280),c
  8137   0049FA                     
  8138                           ;mcc_generated_files/spi1.c: 79: _Bool SPI1_Open(spi1_modes_t spi1UniqueConfiguration);m
      +                          cc_generated_files/spi1.c: 80: {;mcc_generated_files/spi1.c: 81:     if(!SPI1CON0bits.EN
      +                          )
  8139   0049FA  0100               	movlb	0	; () banked
  8140   0049FC  BF84               	btfsc	132,7,b	;volatile
  8141   0049FE  EF03  F025         	goto	u3781
  8142   004A02  EF05  F025         	goto	u3780
  8143   004A06                     u3781:
  8144   004A06  EF65  F025         	goto	l59
  8145   004A0A                     u3780:
  8146   004A0A                     
  8147                           ; BSR set to: 0
  8148                           ;mcc_generated_files/spi1.c: 82:     {;mcc_generated_files/spi1.c: 83:         SPI1CON0 
      +                          = spi1_configuration[spi1UniqueConfiguration].con0;
  8149   004A0A  5002               	movf	SPI1_Open@spi1UniqueConfiguration^(0+1280),w,c
  8150   004A0C  0D05               	mullw	5
  8151   004A0E  0E01               	movlw	low _spi1_configuration
  8152   004A10  24F3               	addwf	243,w,c
  8153   004A12  6EF6               	movwf	tblptrl,c
  8154   004A14  0E26               	movlw	high _spi1_configuration
  8155   004A16  20F4               	addwfc	244,w,c
  8156   004A18  6EF7               	movwf	tblptrh,c
  8157   004A1A                     	if	1	;There are 3 active tblptr bytes
  8158   004A1A  6AF8               	clrf	tblptru,c
  8159   004A1C  0E00               	movlw	low (__mediumconst shr (0+16))
  8160   004A1E  22F8               	addwfc	tblptru,f,c
  8161   004A20                     	endif
  8162   004A20  0008               	tblrd		*
  8163   004A22  C4F5 F084          	movff	tablat,132	;volatile
  8164                           
  8165                           ;mcc_generated_files/spi1.c: 84:         SPI1CON1 = spi1_configuration[spi1UniqueConfigu
      +                          ration].con1;
  8166   004A26  5002               	movf	SPI1_Open@spi1UniqueConfiguration^(0+1280),w,c
  8167   004A28  0D05               	mullw	5
  8168   004A2A  0E01               	movlw	1
  8169   004A2C  26F3               	addwf	243,f,c
  8170   004A2E  0E00               	movlw	0
  8171   004A30  22F4               	addwfc	244,f,c
  8172   004A32  0E01               	movlw	low _spi1_configuration
  8173   004A34  24F3               	addwf	243,w,c
  8174   004A36  6EF6               	movwf	tblptrl,c
  8175   004A38  0E26               	movlw	high _spi1_configuration
  8176   004A3A  20F4               	addwfc	244,w,c
  8177   004A3C  6EF7               	movwf	tblptrh,c
  8178   004A3E                     	if	1	;There are 3 active tblptr bytes
  8179   004A3E  6AF8               	clrf	tblptru,c
  8180   004A40  0E00               	movlw	low (__mediumconst shr (0+16))
  8181   004A42  22F8               	addwfc	tblptru,f,c
  8182   004A44                     	endif
  8183   004A44  0008               	tblrd		*
  8184   004A46  C4F5 F085          	movff	tablat,133	;volatile
  8185                           
  8186                           ;mcc_generated_files/spi1.c: 85:         SPI1CON2 = spi1_configuration[spi1UniqueConfigu
      +                          ration].con2 | (0x1 | 0x2);
  8187   004A4A  5002               	movf	SPI1_Open@spi1UniqueConfiguration^(0+1280),w,c
  8188   004A4C  0D05               	mullw	5
  8189   004A4E  0E02               	movlw	2
  8190   004A50  26F3               	addwf	243,f,c
  8191   004A52  0E00               	movlw	0
  8192   004A54  22F4               	addwfc	244,f,c
  8193   004A56  0E01               	movlw	low _spi1_configuration
  8194   004A58  24F3               	addwf	243,w,c
  8195   004A5A  6EF6               	movwf	tblptrl,c
  8196   004A5C  0E26               	movlw	high _spi1_configuration
  8197   004A5E  20F4               	addwfc	244,w,c
  8198   004A60  6EF7               	movwf	tblptrh,c
  8199   004A62                     	if	1	;There are 3 active tblptr bytes
  8200   004A62  6AF8               	clrf	tblptru,c
  8201   004A64  0E00               	movlw	low (__mediumconst shr (0+16))
  8202   004A66  22F8               	addwfc	tblptru,f,c
  8203   004A68                     	endif
  8204   004A68  0008               	tblrd		*
  8205   004A6A  50F5               	movf	tablat,w,c
  8206   004A6C  0903               	iorlw	3
  8207   004A6E  6F86               	movwf	134,b	;volatile
  8208                           
  8209                           ;mcc_generated_files/spi1.c: 86:         SPI1BAUD = spi1_configuration[spi1UniqueConfigu
      +                          ration].baud;
  8210   004A70  5002               	movf	SPI1_Open@spi1UniqueConfiguration^(0+1280),w,c
  8211   004A72  0D05               	mullw	5
  8212   004A74  0E03               	movlw	3
  8213   004A76  26F3               	addwf	243,f,c
  8214   004A78  0E00               	movlw	0
  8215   004A7A  22F4               	addwfc	244,f,c
  8216   004A7C  0E01               	movlw	low _spi1_configuration
  8217   004A7E  24F3               	addwf	243,w,c
  8218   004A80  6EF6               	movwf	tblptrl,c
  8219   004A82  0E26               	movlw	high _spi1_configuration
  8220   004A84  20F4               	addwfc	244,w,c
  8221   004A86  6EF7               	movwf	tblptrh,c
  8222   004A88                     	if	1	;There are 3 active tblptr bytes
  8223   004A88  6AF8               	clrf	tblptru,c
  8224   004A8A  0E00               	movlw	low (__mediumconst shr (0+16))
  8225   004A8C  22F8               	addwfc	tblptru,f,c
  8226   004A8E                     	endif
  8227   004A8E  0008               	tblrd		*
  8228   004A90  C4F5 F089          	movff	tablat,137	;volatile
  8229                           
  8230                           ;mcc_generated_files/spi1.c: 87:         TRISCbits.TRISC6 = spi1_configuration[spi1Uniqu
      +                          eConfiguration].operation;
  8231   004A94  5002               	movf	SPI1_Open@spi1UniqueConfiguration^(0+1280),w,c
  8232   004A96  0D05               	mullw	5
  8233   004A98  0E04               	movlw	4
  8234   004A9A  26F3               	addwf	243,f,c
  8235   004A9C  0E00               	movlw	0
  8236   004A9E  22F4               	addwfc	244,f,c
  8237   004AA0  0E01               	movlw	low _spi1_configuration
  8238   004AA2  24F3               	addwf	243,w,c
  8239   004AA4  6EF6               	movwf	tblptrl,c
  8240   004AA6  0E26               	movlw	high _spi1_configuration
  8241   004AA8  20F4               	addwfc	244,w,c
  8242   004AAA  6EF7               	movwf	tblptrh,c
  8243   004AAC                     	if	1	;There are 3 active tblptr bytes
  8244   004AAC  6AF8               	clrf	tblptru,c
  8245   004AAE  0E00               	movlw	low (__mediumconst shr (0+16))
  8246   004AB0  22F8               	addwfc	tblptru,f,c
  8247   004AB2                     	endif
  8248   004AB2  0008               	tblrd		*
  8249   004AB4  C4F5 F501          	movff	tablat,??_SPI1_Open
  8250   004AB8  3A01               	swapf	??_SPI1_Open^(0+1280),f,c
  8251   004ABA  4601               	rlncf	??_SPI1_Open^(0+1280),f,c
  8252   004ABC  4601               	rlncf	??_SPI1_Open^(0+1280),f,c
  8253   004ABE  50C8               	movf	200,w,c	;volatile
  8254   004AC0  1801               	xorwf	??_SPI1_Open^(0+1280),w,c
  8255   004AC2  0BBF               	andlw	-65
  8256   004AC4  1801               	xorwf	??_SPI1_Open^(0+1280),w,c
  8257   004AC6  6EC8               	movwf	200,c	;volatile
  8258   004AC8                     
  8259                           ; BSR set to: 0
  8260                           ;mcc_generated_files/spi1.c: 88:         SPI1CON0bits.EN = 1;
  8261   004AC8  8F84               	bsf	132,7,b	;volatile
  8262   004ACA                     l59:
  8263                           
  8264                           ; BSR set to: 0
  8265   004ACA  0012               	return		;funcret
  8266   004ACC                     __end_of_SPI1_Open:
  8267                           	callstack 0
  8268                           
  8269 ;; *************** function _SPI1_Close *****************
  8270 ;; Defined at:
  8271 ;;		line 94 in file "mcc_generated_files/spi1.c"
  8272 ;; Parameters:    Size  Location     Type
  8273 ;;		None
  8274 ;; Auto vars:     Size  Location     Type
  8275 ;;		None
  8276 ;; Return value:  Size  Location     Type
  8277 ;;                  1    wreg      void 
  8278 ;; Registers used:
  8279 ;;		None
  8280 ;; Tracked objects:
  8281 ;;		On entry : 0/0
  8282 ;;		On exit  : 0/0
  8283 ;;		Unchanged: 0/0
  8284 ;; Data sizes:     COMRAM   BANK5   BANK6   BANK7   BANK8   BANK9  BANK10  BANK11  BANK12  BANK13  BANK14  BANK15  BANK1
      +6  BANK17  BANK18  BANK19  BANK20  BANK21  BANK22  BANK23  BANK24  BANK25  BANK26  BANK27  BANK28  BANK29  BANK30  BANK3
      +1  BANK32  BANK33  BANK34  BANK35  BANK36
  8285 ;;      Params:         0       0       0       0       0       0       0       0       0       0       0       0       
      +0       0       0       0       0       0       0       0       0       0       0       0       0       0       0       
      +0       0       0       0       0       0
  8286 ;;      Locals:         0       0       0       0       0       0       0       0       0       0       0       0       
      +0       0       0       0       0       0       0       0       0       0       0       0       0       0       0       
      +0       0       0       0       0       0
  8287 ;;      Temps:          0       0       0       0       0       0       0       0       0       0       0       0       
      +0       0       0       0       0       0       0       0       0       0       0       0       0       0       0       
      +0       0       0       0       0       0
  8288 ;;      Totals:         0       0       0       0       0       0       0       0       0       0       0       0       
      +0       0       0       0       0       0       0       0       0       0       0       0       0       0       0       
      +0       0       0       0       0       0
  8289 ;;Total ram usage:        0 bytes
  8290 ;; Hardware stack levels used: 1
  8291 ;; This function calls:
  8292 ;;		Nothing
  8293 ;; This function is called by:
  8294 ;;		_main
  8295 ;; This function uses a non-reentrant model
  8296 ;;
  8297                           
  8298                           	psect	text41
  8299   005250                     __ptext41:
  8300                           	callstack 0
  8301   005250                     _SPI1_Close:
  8302                           	callstack 126
  8303   005250                     
  8304                           ;mcc_generated_files/spi1.c: 96:     SPI1CON0bits.EN = 0;
  8305   005250  0100               	movlb	0	; () banked
  8306   005252  9F84               	bcf	132,7,b	;volatile
  8307   005254                     
  8308                           ; BSR set to: 0
  8309   005254  0012               	return		;funcret
  8310   005256                     __end_of_SPI1_Close:
  8311                           	callstack 0
  8312                           
  8313                           	psect	rparam
  8314   000000                     
  8315                           	psect	idloc
  8316                           
  8317                           ;Config register IDLOC0 @ 0x200000
  8318                           ;	unspecified, using default values
  8319   200000                     	org	2097152
  8320   200000  0FFF               	dw	4095
  8321                           
  8322                           ;Config register IDLOC1 @ 0x200002
  8323                           ;	unspecified, using default values
  8324   200002                     	org	2097154
  8325   200002  0FFF               	dw	4095
  8326                           
  8327                           ;Config register IDLOC2 @ 0x200004
  8328                           ;	unspecified, using default values
  8329   200004                     	org	2097156
  8330   200004  0FFF               	dw	4095
  8331                           
  8332                           ;Config register IDLOC3 @ 0x200006
  8333                           ;	unspecified, using default values
  8334   200006                     	org	2097158
  8335   200006  0FFF               	dw	4095
  8336                           
  8337                           ;Config register IDLOC4 @ 0x200008
  8338                           ;	unspecified, using default values
  8339   200008                     	org	2097160
  8340   200008  0FFF               	dw	4095
  8341                           
  8342                           ;Config register IDLOC5 @ 0x20000A
  8343                           ;	unspecified, using default values
  8344   20000A                     	org	2097162
  8345   20000A  0FFF               	dw	4095
  8346                           
  8347                           ;Config register IDLOC6 @ 0x20000C
  8348                           ;	unspecified, using default values
  8349   20000C                     	org	2097164
  8350   20000C  0FFF               	dw	4095
  8351                           
  8352                           ;Config register IDLOC7 @ 0x20000E
  8353                           ;	unspecified, using default values
  8354   20000E                     	org	2097166
  8355   20000E  0FFF               	dw	4095
  8356                           
  8357                           ;Config register IDLOC8 @ 0x200010
  8358                           ;	unspecified, using default values
  8359   200010                     	org	2097168
  8360   200010  0FFF               	dw	4095
  8361                           
  8362                           ;Config register IDLOC9 @ 0x200012
  8363                           ;	unspecified, using default values
  8364   200012                     	org	2097170
  8365   200012  0FFF               	dw	4095
  8366                           
  8367                           ;Config register IDLOC10 @ 0x200014
  8368                           ;	unspecified, using default values
  8369   200014                     	org	2097172
  8370   200014  0FFF               	dw	4095
  8371                           
  8372                           ;Config register IDLOC11 @ 0x200016
  8373                           ;	unspecified, using default values
  8374   200016                     	org	2097174
  8375   200016  0FFF               	dw	4095
  8376                           
  8377                           ;Config register IDLOC12 @ 0x200018
  8378                           ;	unspecified, using default values
  8379   200018                     	org	2097176
  8380   200018  0FFF               	dw	4095
  8381                           
  8382                           ;Config register IDLOC13 @ 0x20001A
  8383                           ;	unspecified, using default values
  8384   20001A                     	org	2097178
  8385   20001A  0FFF               	dw	4095
  8386                           
  8387                           ;Config register IDLOC14 @ 0x20001C
  8388                           ;	unspecified, using default values
  8389   20001C                     	org	2097180
  8390   20001C  0FFF               	dw	4095
  8391                           
  8392                           ;Config register IDLOC15 @ 0x20001E
  8393                           ;	unspecified, using default values
  8394   20001E                     	org	2097182
  8395   20001E  0FFF               	dw	4095
  8396                           
  8397                           ;Config register IDLOC16 @ 0x200020
  8398                           ;	unspecified, using default values
  8399   200020                     	org	2097184
  8400   200020  0FFF               	dw	4095
  8401                           
  8402                           ;Config register IDLOC17 @ 0x200022
  8403                           ;	unspecified, using default values
  8404   200022                     	org	2097186
  8405   200022  0FFF               	dw	4095
  8406                           
  8407                           ;Config register IDLOC18 @ 0x200024
  8408                           ;	unspecified, using default values
  8409   200024                     	org	2097188
  8410   200024  0FFF               	dw	4095
  8411                           
  8412                           ;Config register IDLOC19 @ 0x200026
  8413                           ;	unspecified, using default values
  8414   200026                     	org	2097190
  8415   200026  0FFF               	dw	4095
  8416                           
  8417                           ;Config register IDLOC20 @ 0x200028
  8418                           ;	unspecified, using default values
  8419   200028                     	org	2097192
  8420   200028  0FFF               	dw	4095
  8421                           
  8422                           ;Config register IDLOC21 @ 0x20002A
  8423                           ;	unspecified, using default values
  8424   20002A                     	org	2097194
  8425   20002A  0FFF               	dw	4095
  8426                           
  8427                           ;Config register IDLOC22 @ 0x20002C
  8428                           ;	unspecified, using default values
  8429   20002C                     	org	2097196
  8430   20002C  0FFF               	dw	4095
  8431                           
  8432                           ;Config register IDLOC23 @ 0x20002E
  8433                           ;	unspecified, using default values
  8434   20002E                     	org	2097198
  8435   20002E  0FFF               	dw	4095
  8436                           
  8437                           ;Config register IDLOC24 @ 0x200030
  8438                           ;	unspecified, using default values
  8439   200030                     	org	2097200
  8440   200030  0FFF               	dw	4095
  8441                           
  8442                           ;Config register IDLOC25 @ 0x200032
  8443                           ;	unspecified, using default values
  8444   200032                     	org	2097202
  8445   200032  0FFF               	dw	4095
  8446                           
  8447                           ;Config register IDLOC26 @ 0x200034
  8448                           ;	unspecified, using default values
  8449   200034                     	org	2097204
  8450   200034  0FFF               	dw	4095
  8451                           
  8452                           ;Config register IDLOC27 @ 0x200036
  8453                           ;	unspecified, using default values
  8454   200036                     	org	2097206
  8455   200036  0FFF               	dw	4095
  8456                           
  8457                           ;Config register IDLOC28 @ 0x200038
  8458                           ;	unspecified, using default values
  8459   200038                     	org	2097208
  8460   200038  0FFF               	dw	4095
  8461                           
  8462                           ;Config register IDLOC29 @ 0x20003A
  8463                           ;	unspecified, using default values
  8464   20003A                     	org	2097210
  8465   20003A  0FFF               	dw	4095
  8466                           
  8467                           ;Config register IDLOC30 @ 0x20003C
  8468                           ;	unspecified, using default values
  8469   20003C                     	org	2097212
  8470   20003C  0FFF               	dw	4095
  8471                           
  8472                           ;Config register IDLOC31 @ 0x20003E
  8473                           ;	unspecified, using default values
  8474   20003E                     	org	2097214
  8475   20003E  0FFF               	dw	4095
  8476                           
  8477                           	psect	config
  8478                           
  8479                           ;Config register CONFIG1 @ 0x300000
  8480                           ;	External Oscillator Selection
  8481                           ;	FEXTOSC = OFF, Oscillator not enabled
  8482                           ;	Reset Oscillator Selection
  8483                           ;	RSTOSC = HFINTOSC_64MHZ, HFINTOSC with HFFRQ = 64 MHz and CDIV = 1:1
  8484   300000                     	org	3145728
  8485   300000  8C                 	db	140
  8486                           
  8487                           ;Config register CONFIG2 @ 0x300001
  8488                           ;	Clock out Enable bit
  8489                           ;	CLKOUTEN = OFF, CLKOUT function is disabled
  8490                           ;	PRLOCKED One-Way Set Enable bit
  8491                           ;	PR1WAY = ON, PRLOCKED bit can be cleared and set only once
  8492                           ;	Clock Switch Enable bit
  8493                           ;	CSWEN = ON, Writing to NOSC and NDIV is allowed
  8494                           ;	Fail-Safe Clock Monitor Enable bit
  8495                           ;	FCMEN = ON, Fail-Safe Clock Monitor enabled
  8496   300001                     	org	3145729
  8497   300001  FF                 	db	255
  8498                           
  8499                           ;Config register CONFIG3 @ 0x300002
  8500                           ;	MCLR Enable bit
  8501                           ;	MCLRE = EXTMCLR, If LVP = 0, MCLR pin is MCLR; If LVP = 1, RE3 pin function is MCLR
  8502                           ;	Power-up timer selection bits
  8503                           ;	PWRTS = PWRT_OFF, PWRT is disabled
  8504                           ;	Multi-vector enable bit
  8505                           ;	MVECEN = OFF, Interrupt contoller does not use vector table to prioritze interrupts
  8506                           ;	IVTLOCK bit One-way set enable bit
  8507                           ;	IVT1WAY = ON, IVTLOCKED bit can be cleared and set only once
  8508                           ;	Low Power BOR Enable bit
  8509                           ;	LPBOREN = OFF, Low-Power BOR disabled
  8510                           ;	Brown-out Reset Enable bits
  8511                           ;	BOREN = SBORDIS, Brown-out Reset enabled , SBOREN bit is ignored
  8512   300002                     	org	3145730
  8513   300002  F7                 	db	247
  8514                           
  8515                           ;Config register CONFIG4 @ 0x300003
  8516                           ;	Brown-out Reset Voltage Selection bits
  8517                           ;	BORV = VBOR_1P9, Brown-out Reset Voltage (VBOR) set to 1.9V
  8518                           ;	ZCD Disable bit
  8519                           ;	ZCD = OFF, ZCD module is disabled. ZCD can be enabled by setting the ZCDSEN bit of ZCD
      +                          CON
  8520                           ;	PPSLOCK bit One-Way Set Enable bit
  8521                           ;	PPS1WAY = ON, PPSLOCKED bit can be cleared and set only once; PPS registers remain loc
      +                          ked after one clear/set cycle
  8522                           ;	Stack Full/Underflow Reset Enable bit
  8523                           ;	STVREN = ON, Stack full/underflow will cause Reset
  8524                           ;	Low Voltage Programming Enable bit
  8525                           ;	LVP = ON, Low voltage programming enabled. MCLR/VPP pin function is MCLR. MCLRE config
      +                          uration bit is ignored
  8526                           ;	Extended Instruction Set Enable bit
  8527                           ;	XINST = OFF, Extended Instruction Set and Indexed Addressing Mode disabled
  8528   300003                     	org	3145731
  8529   300003  FF                 	db	255
  8530                           
  8531                           ;Config register CONFIG5 @ 0x300004
  8532                           ;	WDT Period selection bits
  8533                           ;	WDTCPS = WDTCPS_31, Divider ratio 1:65536; software control of WDTPS
  8534                           ;	WDT operating mode
  8535                           ;	WDTE = OFF, WDT Disabled; SWDTEN is ignored
  8536   300004                     	org	3145732
  8537   300004  9F                 	db	159
  8538                           
  8539                           ;Config register CONFIG6 @ 0x300005
  8540                           ;	WDT Window Select bits
  8541                           ;	WDTCWS = WDTCWS_7, window always open (100%); software control; keyed access not requi
      +                          red
  8542                           ;	WDT input clock selector
  8543                           ;	WDTCCS = SC, Software Control
  8544   300005                     	org	3145733
  8545   300005  FF                 	db	255
  8546                           
  8547                           ;Config register CONFIG7 @ 0x300006
  8548                           ;	Boot Block Size selection bits
  8549                           ;	BBSIZE = BBSIZE_512, Boot Block size is 512 words
  8550                           ;	Boot Block enable bit
  8551                           ;	BBEN = OFF, Boot block disabled
  8552                           ;	Storage Area Flash enable bit
  8553                           ;	SAFEN = OFF, SAF disabled
  8554                           ;	Background Debugger
  8555                           ;	DEBUG = OFF, Background Debugger disabled
  8556   300006                     	org	3145734
  8557   300006  FF                 	db	255
  8558                           
  8559                           ;Config register CONFIG8 @ 0x300007
  8560                           ;	Boot Block Write Protection bit
  8561                           ;	WRTB = OFF, Boot Block not Write protected
  8562                           ;	Configuration Register Write Protection bit
  8563                           ;	WRTC = OFF, Configuration registers not Write protected
  8564                           ;	Data EEPROM Write Protection bit
  8565                           ;	WRTD = OFF, Data EEPROM not Write protected
  8566                           ;	SAF Write protection bit
  8567                           ;	WRTSAF = OFF, SAF not Write Protected
  8568                           ;	Application Block write protection bit
  8569                           ;	WRTAPP = OFF, Application Block not write protected
  8570   300007                     	org	3145735
  8571   300007  FF                 	db	255
  8572                           
  8573                           ; Padding undefined space
  8574   300008                     	org	3145736
  8575   300008  FF                 	db	255
  8576                           
  8577                           ;Config register CONFIG10 @ 0x300009
  8578                           ;	PFM and Data EEPROM Code Protection bit
  8579                           ;	CP = OFF, PFM and Data EEPROM code protection disabled
  8580   300009                     	org	3145737
  8581   300009  FF                 	db	255
  8582                           tosu	equ	0x4FF
  8583                           tosh	equ	0x4FE
  8584                           tosl	equ	0x4FD
  8585                           stkptr	equ	0x4FC
  8586                           pclatu	equ	0x4FB
  8587                           pclath	equ	0x4FA
  8588                           pcl	equ	0x4F9
  8589                           tblptru	equ	0x4F8
  8590                           tblptrh	equ	0x4F7
  8591                           tblptrl	equ	0x4F6
  8592                           tablat	equ	0x4F5
  8593                           prodh	equ	0x4F4
  8594                           prodl	equ	0x4F3
  8595                           indf0	equ	0x4EF
  8596                           postinc0	equ	0x4EE
  8597                           postdec0	equ	0x4ED
  8598                           preinc0	equ	0x4EC
  8599                           plusw0	equ	0x4EB
  8600                           fsr0h	equ	0x4EA
  8601                           fsr0l	equ	0x4E9
  8602                           wreg	equ	0x4E8
  8603                           indf1	equ	0x4E7
  8604                           postinc1	equ	0x4E6
  8605                           postdec1	equ	0x4E5
  8606                           preinc1	equ	0x4E4
  8607                           plusw1	equ	0x4E3
  8608                           fsr1h	equ	0x4E2
  8609                           fsr1l	equ	0x4E1
  8610                           bsr	equ	0x4E0
  8611                           indf2	equ	0x4DF
  8612                           postinc2	equ	0x4DE
  8613                           postdec2	equ	0x4DD
  8614                           preinc2	equ	0x4DC
  8615                           plusw2	equ	0x4DB
  8616                           fsr2h	equ	0x4DA
  8617                           fsr2l	equ	0x4D9
  8618                           status	equ	0x4D8

Data Sizes:
    Strings     29
    Constant    5
    Data        0
    BSS         94
    Persistent  9
    Stack       0

Auto Spaces:
    Space          Size  Autos    Used
    COMRAM           95     93      95
    BANK5           160    103     124
    BANK6           256      0      80
    BANK7           256      0       0
    BANK8           256      0       0
    BANK9           256      0       0
    BANK10          256      0       0
    BANK11          256      0       0
    BANK12          256      0       0
    BANK13          256      0       0
    BANK14          256      0       0
    BANK15          256      0       0
    BANK16          256      0       0
    BANK17          256      0       0
    BANK18          256      0       0
    BANK19          256      0       0
    BANK20          256      0       0
    BANK21          256      0       0
    BANK22          256      0       0
    BANK23          256      0       0
    BANK24          256      0       0
    BANK25          256      0       0
    BANK26          256      0       0
    BANK27          256      0       0
    BANK28          256      0       0
    BANK29          256      0       0
    BANK30          256      0       0
    BANK31          256      0       0
    BANK32          256      0       0
    BANK33          256      0       0
    BANK34          256      0       0
    BANK35          256      0       0
    BANK36          256      0       0

Pointer List with Targets:

    strcpy@dest	PTR unsigned char  size(2) Largest target is 80
		 -> dbuf(BANK6[80]), 

    strcpy@d	PTR unsigned char  size(2) Largest target is 80
		 -> dbuf(BANK6[80]), 

    strcpy@src	PTR const unsigned char  size(2) Largest target is 4
		 -> STR_5(CODE[4]), STR_2(CODE[4]), 

    strcpy@s	PTR const unsigned char  size(2) Largest target is 4
		 -> STR_5(CODE[4]), STR_2(CODE[4]), 

    fputs@s	PTR const unsigned char  size(2) Largest target is 80
		 -> dbuf(BANK6[80]), 

    fputs@fp	PTR struct _IO_FILE size(2) Largest target is 11
		 -> sprintf@f(COMRAM[11]), 

    fputc@fp...source	PTR const unsigned char  size(2) Largest target is 0

    fputc@fp...buffer	PTR unsigned char  size(2) Largest target is 0

    fputc@fp	PTR struct _IO_FILE size(2) Largest target is 11
		 -> sprintf@f(COMRAM[11]), 

    memcpy@d1	PTR void  size(2) Largest target is 80
		 -> dbuf(BANK6[80]), 

    memcpy@d	PTR unsigned char  size(2) Largest target is 80
		 -> dbuf(BANK6[80]), 

    memcpy@s1	PTR const void  size(2) Largest target is 80
		 -> dbuf(BANK6[80]), 

    memcpy@s	PTR const unsigned char  size(2) Largest target is 80
		 -> dbuf(BANK6[80]), 

    atoi@s	PTR const unsigned char  size(2) Largest target is 21
		 -> STR_1(CODE[21]), 

    vfprintf@ap	PTR PTR void  size(2) Largest target is 2
		 -> sprintf@ap(COMRAM[2]), 

    vfprintf@fp	PTR struct _IO_FILE size(2) Largest target is 11
		 -> sprintf@f(COMRAM[11]), 

    vfprintf@fmt	PTR const unsigned char  size(2) Largest target is 21
		 -> STR_1(CODE[21]), 

    vfprintf@cfmt	PTR unsigned char  size(2) Largest target is 21
		 -> STR_1(CODE[21]), 

    vfpfcnvrt@fp	PTR struct _IO_FILE size(2) Largest target is 11
		 -> sprintf@f(COMRAM[11]), 

    vfpfcnvrt@cp	PTR unsigned char  size(2) Largest target is 21
		 -> STR_1(CODE[21]), 

    vfpfcnvrt@ap	PTR PTR void  size(2) Largest target is 2
		 -> sprintf@ap(COMRAM[2]), 

    vfpfcnvrt@fmt	PTR PTR unsigned char  size(2) Largest target is 2
		 -> vfprintf@cfmt(COMRAM[2]), 

    S1076$vp	PTR void  size(2) Largest target is 0

    convarg.vp	PTR void  size(2) Largest target is 0

    sp__memcpy	PTR void  size(2) Largest target is 80
		 -> dbuf(BANK6[80]), 

    efgtoa@fp	PTR struct _IO_FILE size(2) Largest target is 11
		 -> sprintf@f(COMRAM[11]), 

    sp__strcpy	PTR unsigned char  size(2) Largest target is 80
		 -> dbuf(BANK6[80]), 

    pad@buf	PTR unsigned char  size(2) Largest target is 80
		 -> dbuf(BANK6[80]), 

    pad@fp	PTR struct _IO_FILE size(2) Largest target is 11
		 -> sprintf@f(COMRAM[11]), 

    sprintf@fmt	PTR const unsigned char  size(2) Largest target is 21
		 -> STR_1(CODE[21]), 

    sprintf@s	PTR unsigned char  size(2) Largest target is 25
		 -> main@cadena(BANK5[25]), 

    sprintf@ap	PTR void [1] size(2) Largest target is 2
		 -> ?_sprintf(BANK5[2]), 

    S997$source	PTR const unsigned char  size(2) Largest target is 0

    f...source	PTR const unsigned char  size(2) Largest target is 0

    S997$buffer	PTR unsigned char  size(2) Largest target is 0

    f...buffer	PTR unsigned char  size(2) Largest target is 0

    UART1_SetErrorHandler@interruptHandler	PTR FTN()void  size(3) Largest target is 1
		 -> UART1_DefaultErrorHandler(), 

    UART1_SetOverrunErrorHandler@interruptHandler	PTR FTN()void  size(3) Largest target is 1
		 -> UART1_DefaultOverrunErrorHandler(), 

    UART1_SetFramingErrorHandler@interruptHandler	PTR FTN()void  size(3) Largest target is 1
		 -> UART1_DefaultFramingErrorHandler(), 

    UART1_PutS@s	PTR unsigned char  size(2) Largest target is 25
		 -> main@cadena(BANK5[25]), 

    UART1_ErrorHandler	PTR FTN()void  size(3) Largest target is 1
		 -> Absolute function(), UART1_DefaultErrorHandler(), 

    UART1_OverrunErrorHandler	PTR FTN()void  size(3) Largest target is 1
		 -> Absolute function(), UART1_DefaultOverrunErrorHandler(), 

    UART1_FramingErrorHandler	PTR FTN()void  size(3) Largest target is 1
		 -> Absolute function(), UART1_DefaultFramingErrorHandler(), 

    SPI1_ReadBlock@block	PTR void  size(2) Largest target is 2
		 -> main@buffer(BANK5[2]), 

    SPI1_ReadBlock@data	PTR unsigned char  size(2) Largest target is 2
		 -> main@buffer(BANK5[2]), 


Critical Paths under _main in COMRAM

    _main->_sprintf
    _sprintf->_vfprintf
    _vfprintf->_vfpfcnvrt
    _vfpfcnvrt->_efgtoa
    _efgtoa->___flge
    _pad->_fputs
    _fputs->_fputc
    _fputc->_putch
    _putch->_UART1_Write
    _floorf->___fldiv
    ___flsub->___flmul
    ___flmul->___xxtofl
    ___flge->___flmul
    _atoi->___wmul
    _UART1_PutS->_UART1_Write
    _UART1_Initialize->_UART1_SetErrorHandler
    _UART1_Initialize->_UART1_SetFramingErrorHandler
    _UART1_Initialize->_UART1_SetOverrunErrorHandler
    _SPI1_ReadBlock->_SPI1_ExchangeByte

Critical Paths under _main in BANK5

    _main->_sprintf
    _sprintf->_vfprintf
    _vfprintf->_vfpfcnvrt
    _vfpfcnvrt->_efgtoa

Critical Paths under _main in BANK6

    None.

Critical Paths under _main in BANK7

    None.

Critical Paths under _main in BANK8

    None.

Critical Paths under _main in BANK9

    None.

Critical Paths under _main in BANK10

    None.

Critical Paths under _main in BANK11

    None.

Critical Paths under _main in BANK12

    None.

Critical Paths under _main in BANK13

    None.

Critical Paths under _main in BANK14

    None.

Critical Paths under _main in BANK15

    None.

Critical Paths under _main in BANK16

    None.

Critical Paths under _main in BANK17

    None.

Critical Paths under _main in BANK18

    None.

Critical Paths under _main in BANK19

    None.

Critical Paths under _main in BANK20

    None.

Critical Paths under _main in BANK21

    None.

Critical Paths under _main in BANK22

    None.

Critical Paths under _main in BANK23

    None.

Critical Paths under _main in BANK24

    None.

Critical Paths under _main in BANK25

    None.

Critical Paths under _main in BANK26

    None.

Critical Paths under _main in BANK27

    None.

Critical Paths under _main in BANK28

    None.

Critical Paths under _main in BANK29

    None.

Critical Paths under _main in BANK30

    None.

Critical Paths under _main in BANK31

    None.

Critical Paths under _main in BANK32

    None.

Critical Paths under _main in BANK33

    None.

Critical Paths under _main in BANK34

    None.

Critical Paths under _main in BANK35

    None.

Critical Paths under _main in BANK36

    None.

Call Graph Tables:

 ---------------------------------------------------------------------------------
 (Depth) Function   	        Calls       Base Space   Used Autos Params    Refs
 ---------------------------------------------------------------------------------
 (0) _main                                                41    41      0   29001
                                             91 COMRAM     2     2      0
                                             64 BANK5     39    39      0
                         _SPI1_Close
                          _SPI1_Open
                     _SPI1_ReadBlock
                  _SYSTEM_Initialize
                         _UART1_PutS
                            ___fldiv
                            ___flmul
                           ___xxtofl
                            _sprintf
 ---------------------------------------------------------------------------------
 (1) _sprintf                                             23    15      8   22765
                                             78 COMRAM    13    13      0
                                             56 BANK5      8     0      8
                           _vfprintf
 ---------------------------------------------------------------------------------
 (2) _vfprintf                                             8     2      6   22410
                                             76 COMRAM     2     2      0
                                             50 BANK5      6     0      6
                          _vfpfcnvrt
 ---------------------------------------------------------------------------------
 (3) _vfpfcnvrt                                           24    18      6   22046
                                             60 COMRAM    16    16      0
                                             44 BANK5      6     0      6
                               _atoi
                             _efgtoa
                              _fputc
                            _isdigit
 ---------------------------------------------------------------------------------
 (4) _efgtoa                                              54    47      7   19084
                                             51 COMRAM     9     2      7
                                              0 BANK5     44    44      0
                            ___fladd
                            ___fldiv
                             ___fleq
                             ___flge
                            ___flmul
                            ___flneg
                            ___flsub
                            ___fltol
                      ___fpclassifyf
                             _floorf
                               _labs
                             _memcpy
                                _pad
                             _strcpy
 ---------------------------------------------------------------------------------
 (5) _strcpy                                               8     4      4     400
                                              0 COMRAM     8     4      4
 ---------------------------------------------------------------------------------
 (5) _pad                                                 11     5      6    2543
                                             18 COMRAM    11     5      6
                              _fputc
                              _fputs
 ---------------------------------------------------------------------------------
 (6) _fputs                                                7     3      4     975
                                             11 COMRAM     7     3      4
                              _fputc
 ---------------------------------------------------------------------------------
 (4) _fputc                                                9     5      4     726
                                              2 COMRAM     9     5      4
                              _putch
 ---------------------------------------------------------------------------------
 (5) _putch                                                1     1      0      44
                                              1 COMRAM     1     1      0
                        _UART1_Write
 ---------------------------------------------------------------------------------
 (5) _memcpy                                              11     5      6     371
                                              0 COMRAM    11     5      6
 ---------------------------------------------------------------------------------
 (5) _labs                                                 8     4      4     294
                                              0 COMRAM     8     4      4
 ---------------------------------------------------------------------------------
 (5) _floorf                                              20    16      4     490
                                             25 COMRAM    20    16      4
                            ___fldiv (ARG)
 ---------------------------------------------------------------------------------
 (5) ___fpclassifyf                                       14    10      4     287
                                              0 COMRAM    14    10      4
 ---------------------------------------------------------------------------------
 (5) ___fltol                                             10     6      4     457
                                              0 COMRAM    10     6      4
 ---------------------------------------------------------------------------------
 (5) ___flsub                                              8     0      8    2889
                                             39 COMRAM     8     0      8
                            ___fladd
                            ___flmul (ARG)
 ---------------------------------------------------------------------------------
 (6) ___fladd                                             16     8      8    2414
                                              0 COMRAM    16     8      8
 ---------------------------------------------------------------------------------
 (5) ___flneg                                              4     0      4     121
                                              0 COMRAM     4     0      4
 ---------------------------------------------------------------------------------
 (5) ___flmul                                             25    17      8    2656
                                             14 COMRAM    25    17      8
                           ___xxtofl (ARG)
 ---------------------------------------------------------------------------------
 (5) ___flge                                              12     4      8     790
                                             39 COMRAM    12     4      8
                            ___flmul (ARG)
 ---------------------------------------------------------------------------------
 (5) ___fleq                                              12     4      8     646
                                              0 COMRAM    12     4      8
 ---------------------------------------------------------------------------------
 (5) ___fldiv                                             25    17      8    2159
                                              0 COMRAM    25    17      8
 ---------------------------------------------------------------------------------
 (4) _atoi                                                 9     7      2    1080
                                              6 COMRAM     9     7      2
                             ___wmul
                            _isdigit
                            _isspace
 ---------------------------------------------------------------------------------
 (5) _isspace                                              5     3      2     207
                                              0 COMRAM     5     3      2
 ---------------------------------------------------------------------------------
 (4) _isdigit                                              4     2      2     237
                                              0 COMRAM     4     2      2
 ---------------------------------------------------------------------------------
 (5) ___wmul                                               6     2      4     311
                                              0 COMRAM     6     2      4
 ---------------------------------------------------------------------------------
 (1) ___xxtofl                                            14    10      4     398
                                              0 COMRAM    14    10      4
 ---------------------------------------------------------------------------------
 (1) _UART1_PutS                                           2     0      2     143
                                              1 COMRAM     2     0      2
                        _UART1_Write
 ---------------------------------------------------------------------------------
 (6) _UART1_Write                                          1     1      0      22
                                              0 COMRAM     1     1      0
 ---------------------------------------------------------------------------------
 (1) _SYSTEM_Initialize                                    0     0      0     294
              _OSCILLATOR_Initialize
             _PIN_MANAGER_Initialize
                     _PMD_Initialize
                    _SPI1_Initialize
                   _UART1_Initialize
 ---------------------------------------------------------------------------------
 (2) _UART1_Initialize                                     0     0      0     294
              _UART1_SetErrorHandler
       _UART1_SetFramingErrorHandler
       _UART1_SetOverrunErrorHandler
 ---------------------------------------------------------------------------------
 (3) _UART1_SetOverrunErrorHandler                         3     0      3      98
                                              0 COMRAM     3     0      3
 ---------------------------------------------------------------------------------
 (3) _UART1_SetFramingErrorHandler                         3     0      3      98
                                              0 COMRAM     3     0      3
 ---------------------------------------------------------------------------------
 (3) _UART1_SetErrorHandler                                3     0      3      98
                                              0 COMRAM     3     0      3
 ---------------------------------------------------------------------------------
 (2) _SPI1_Initialize                                      0     0      0       0
 ---------------------------------------------------------------------------------
 (2) _PMD_Initialize                                       0     0      0       0
 ---------------------------------------------------------------------------------
 (2) _PIN_MANAGER_Initialize                               0     0      0       0
 ---------------------------------------------------------------------------------
 (2) _OSCILLATOR_Initialize                                0     0      0       0
 ---------------------------------------------------------------------------------
 (1) _SPI1_ReadBlock                                       6     2      4     242
                                              1 COMRAM     6     2      4
                  _SPI1_ExchangeByte
 ---------------------------------------------------------------------------------
 (2) _SPI1_ExchangeByte                                    1     1      0      22
                                              0 COMRAM     1     1      0
 ---------------------------------------------------------------------------------
 (1) _SPI1_Open                                            2     2      0     110
                                              0 COMRAM     2     2      0
 ---------------------------------------------------------------------------------
 (1) _SPI1_Close                                           0     0      0       0
 ---------------------------------------------------------------------------------
 Estimated maximum stack depth 6
 ---------------------------------------------------------------------------------

 Call Graph Graphs:

 _main (ROOT)
   _SPI1_Close
   _SPI1_Open
   _SPI1_ReadBlock
     _SPI1_ExchangeByte
   _SYSTEM_Initialize
     _OSCILLATOR_Initialize
     _PIN_MANAGER_Initialize
     _PMD_Initialize
     _SPI1_Initialize
     _UART1_Initialize
       _UART1_SetErrorHandler
       _UART1_SetFramingErrorHandler
       _UART1_SetOverrunErrorHandler
   _UART1_PutS
     _UART1_Write
   ___fldiv
   ___flmul
     ___xxtofl (ARG)
   ___xxtofl
   _sprintf
     _vfprintf
       _vfpfcnvrt
         _atoi
           ___wmul
           _isdigit
           _isspace
         _efgtoa
           ___fladd
           ___fldiv
           ___fleq
           ___flge
             ___flmul (ARG)
           ___flmul
           ___flneg
           ___flsub
             ___fladd
             ___flmul (ARG)
           ___fltol
           ___fpclassifyf
           _floorf
             ___fldiv (ARG)
           _labs
           _memcpy
           _pad
             _fputc
               _putch
                 _UART1_Write
             _fputs
               _fputc
           _strcpy
         _fputc
         _isdigit

 Address spaces:
Name               Size   Autos  Total    Cost      Usage
BIGRAM            1FFF      0       0      70        0.0%
EEDATA             400      0       0       0        0.0%
BITBIGSFRlhhlll    161      0       0      89        0.0%
BITBIGSFRlhhlll    14C      0       0      80        0.0%
BITBIGSFR_1        100      0       0      69        0.0%
BITBANK36          100      0       0      67        0.0%
BANK36             100      0       0      68        0.0%
BITBANK35          100      0       0      65        0.0%
BANK35             100      0       0      66        0.0%
BITBANK34          100      0       0      63        0.0%
BANK34             100      0       0      64        0.0%
BITBANK33          100      0       0      61        0.0%
BANK33             100      0       0      62        0.0%
BITBANK32          100      0       0      59        0.0%
BANK32             100      0       0      60        0.0%
BITBANK31          100      0       0      57        0.0%
BANK31             100      0       0      58        0.0%
BITBANK30          100      0       0      55        0.0%
BANK30             100      0       0      56        0.0%
BITBANK29          100      0       0      52        0.0%
BANK29             100      0       0      53        0.0%
BITBANK28          100      0       0      50        0.0%
BANK28             100      0       0      51        0.0%
BITBANK27          100      0       0      48        0.0%
BANK27             100      0       0      49        0.0%
BITBANK26          100      0       0      46        0.0%
BANK26             100      0       0      47        0.0%
BITBANK25          100      0       0      44        0.0%
BANK25             100      0       0      45        0.0%
BITBANK24          100      0       0      42        0.0%
BANK24             100      0       0      43        0.0%
BITBANK23          100      0       0      40        0.0%
BANK23             100      0       0      41        0.0%
BITBANK22          100      0       0      38        0.0%
BANK22             100      0       0      39        0.0%
BITBANK21          100      0       0      36        0.0%
BANK21             100      0       0      37        0.0%
BITBANK20          100      0       0      34        0.0%
BANK20             100      0       0      35        0.0%
BITBANK19          100      0       0      32        0.0%
BANK19             100      0       0      33        0.0%
BITBANK18          100      0       0      30        0.0%
BANK18             100      0       0      31        0.0%
BITBANK17          100      0       0      28        0.0%
BANK17             100      0       0      29        0.0%
BITBANK16          100      0       0      26        0.0%
BANK16             100      0       0      27        0.0%
BITBANK15          100      0       0      24        0.0%
BANK15             100      0       0      25        0.0%
BITBANK14          100      0       0      22        0.0%
BANK14             100      0       0      23        0.0%
BITBANK13          100      0       0      20        0.0%
BANK13             100      0       0      21        0.0%
BITBANK12          100      0       0      18        0.0%
BANK12             100      0       0      19        0.0%
BITBANK11          100      0       0      16        0.0%
BANK11             100      0       0      17        0.0%
BITBANK10          100      0       0      14        0.0%
BANK10             100      0       0      15        0.0%
BITBANK9           100      0       0      12        0.0%
BANK9              100      0       0      13        0.0%
BITBANK8           100      0       0      10        0.0%
BANK8              100      0       0      11        0.0%
BITBANK7           100      0       0       8        0.0%
BANK7              100      0       0       9        0.0%
BITBANK6           100      0       0       6        0.0%
BANK6              100      0      50       7       31.2%
BITBANK5            A0      0       0       4        0.0%
BANK5               A0     67      7C       5       77.5%
BITBIGSFRlhhlhh     84      0       0      74        0.0%
BITBIGSFRllll       60      0       0      98        0.0%
BITCOMRAM           5F      0       0       0        0.0%
COMRAM              5F     5D      5F       1      100.0%
BITBIGSFRlhhlll     40      0       0      86        0.0%
BITBIGSFRhhh        34      0       0      71        0.0%
BITBIGSFRlhhlll     1F      0       0      92        0.0%
BITBIGSFRlllhh      17      0       0      96        0.0%
BITBIGSFRlhhlll     17      0       0      83        0.0%
BITBIGSFRlhhlll     13      0       0      84        0.0%
BITBIGSFRlhhlll     11      0       0      87        0.0%
BITBIGSFRlhhhl       B      0       0      73        0.0%
BITBIGSFRlhhlll      6      0       0      85        0.0%
BITBIGSFRlhhlll      3      0       0      79        0.0%
BITBIGSFRlhhlhh      3      0       0      75        0.0%
BITBIGSFRlhhlll      3      0       0      78        0.0%
BITBIGSFRlhhllh      3      0       0      77        0.0%
BITBIGSFRlhhlhl      3      0       0      76        0.0%
BITBIGSFRlhlh        2      0       0      93        0.0%
BITBIGSFRlhll        2      0       0      94        0.0%
BITBIGSFRhll         2      0       0      72        0.0%
BITBIGSFRlhhlll      1      0       0      81        0.0%
BITBIGSFRlhhlll      1      0       0      82        0.0%
BITBIGSFRlllhl       1      0       0      97        0.0%
BITBIGSFRlhhlll      1      0       0      90        0.0%
BITBIGSFRlhhlll      1      0       0      91        0.0%
BITBIGSFRlhhlll      1      0       0      88        0.0%
BITBIGSFRllh         1      0       0      95        0.0%
BIGSFR_1             0      0       0     200        0.0%
BIGSFR               0      0       0     200        0.0%
BITSFR_6             0      0       0     200        0.0%
SFR_6                0      0       0     200        0.0%
BITSFR_5             0      0       0     200        0.0%
SFR_5                0      0       0     200        0.0%
BITSFR_4             0      0       0     200        0.0%
SFR_4                0      0       0     200        0.0%
BITSFR_3             0      0       0     200        0.0%
SFR_3                0      0       0     200        0.0%
BITSFR_2             0      0       0     200        0.0%
SFR_2                0      0       0     200        0.0%
BITSFR_1             0      0       0     200        0.0%
SFR_1                0      0       0     200        0.0%
BITSFR               0      0       0     200        0.0%
SFR                  0      0       0     200        0.0%
STACK                0      0       0       2        0.0%
NULL                 0      0       0       0        0.0%
ABS                  0      0     12B      54        0.0%
DATA                 0      0     12B       3        0.0%
CODE                 0      0       0       0        0.0%


Microchip Technology PIC18 Macro Assembler V2.40 build 20220703182018 
Symbol Table                                                                                   Sat Mar 04 16:30:18 2023

                           _SPI1_ExchangeByte 519A                                  ___fldiv@aexp 0519  
                                ___fldiv@bexp 0518                                  ___fldiv@sign 0511  
                                          l62 5254                                            l55 51EE  
                                          l65 51A6                                            l59 4ACA  
                                          l67 51B4                                            l68 51B8  
                                          l89 5098                            ?_SPI1_ExchangeByte 0501  
                         ___wmul@multiplicand 0503                                           l202 4C52  
                                         l315 4DEA                                           l252 5176  
                                         l341 51F2                                           l246 521A  
                                         l350 5100                                           l344 5204  
                                         l249 51D4                                           l371 5228  
                                         l356 524E                                           l374 5244  
                                         l368 5236                                           l377 5152  
                                         l642 48B2                                           l651 50D0  
                                         l636 4CFC                                           l647 48F8  
                                         l905 3276                                           l922 3390  
                                         l914 3546                                           l906 3264  
                                         l674 47F4                                           l931 3460  
                                         l907 322A                                           l932 344E  
                                         l961 3F1C                                           l970 3F62  
                                         l947 4F8E                                           l972 3FDA  
                                         l964 3EE0                                           l973 3FC8  
                                         l959 40BC                                           l991 360C  
                                         l995 3970                                           l998 3802  
                                         _pad 4CFE                           ??_SPI1_ExchangeByte 0501  
                                         wreg 0004E8                                  ___flmul@aexp 0520  
                                ___flmul@bexp 0521                                  ___flmul@sign 051B  
                                ___flmul@temp 0526                                  ___flmul@prod 0522  
                                ___fltol@exp1 050A                                          l1000 387A  
                                        l1001 3868                                          l1032 4326  
                                        l1008 3932                                          l1104 3086  
                                        l1202 49F6                                          l1035 4482  
                                        l1107 29B6                                          l1109 27FC  
                                        l1046 441A                                          l1039 43BE  
                                        l1055 4EF8                                          l3000 3446  
                                        l1225 45D8                                          l1137 2DFE  
                                        l3010 34C4                                          l1234 42CE  
                                        l1244 512C                                          l1252 4FD4  
                                        l1228 45E0                                          l3100 3E36  
                                        l3020 350A                                          l3004 3470  
                                        l3012 34C6                                          l1237 4212  
                                        l1093 4D76                                          l3110 3E74  
                                        l3102 3E46                                          l3030 3534  
                                        l3022 3518                                          l3014 34D6  
                                        l3006 347C                                          l1262 4E50  
                                        l3120 3EBC                                          l3112 3E84  
                                        l3104 3E46                                          l3200 3594  
                                        l3032 3536                                          l3024 351E  
                                        l3016 34E6                                          l3008 348A  
                                        l1280 4B94                                          l3040 5038  
                                        l1192 4EA6                                          l4000 4EC0  
                                        l1089 4D20                                          l1185 3D22  
                                        l4010 50D6                                          l3130 3F0A  
                                        l3122 3ED0                                          l3114 3E94  
                                        l3050 3D24                                          l3210 35C4  
                                        l3202 359A                                          l3026 3520  
                                        l3018 3506                                          l3042 503C  
                                        l4002 4EC8                                          l1259 4E40  
                                        l4012 50E4                                          l3044 512E  
                                        l3140 3F52                                          l3132 3F1A  
                                        l3124 3EDE                                          l3116 3EA4  
                                        l3108 3E5A                                          l3060 3D60  
                                        l3052 3D30                                          l3300 3900  
                                        l3220 35FC                                          l3212 35C6  
                                        l3204 35AA                                          l3028 3526  
                                        l1268 4F48                                          l3036 501A  
                                        l4004 4EE6                                          l4100 460C  
                                        l4014 50E8                                          l3046 514A  
                                        l3150 3F92                                          l3142 3F60  
                                        l3134 3F2C                                          l3126 3EEA  
                                        l3118 3EAC                                          l3070 3D90  
                                        l3062 3D70                                          l3054 3D3E  
                                        l3310 3956                                          l3302 391A  
                                        l3230 364C                                          l3222 361C  
                                        l3214 35D6                                          l3206 35B0  
                                        l3038 5026                                          l1294 5018  
                                        l4110 46C4                                          l4102 4610  
                                        l4008 50D2                                          l4040 42D2  
                                        l3160 4004                                          l3152 3FC0  
                                        l3136 3F42                                          l3144 3F72  
                                        l3128 3F08                                          l3080 3DC6  
                                        l3072 3D96                                          l3064 3D72  
                                        l3056 3D40                                          l3304 3936  
                                        l3312 395C                                          l3240 369C  
                                        l3232 3656                                          l3224 362C  
                                        l3216 35E6                                          l3208 35B6  
                                        l3320 4F5A                                          l1288 505C  
                                        l4112 46D0                                          l4104 4624  
                                        l4042 42E2                                          l3170 407C  
                                        l3162 402E                                          l3146 3F80  
                                        l3138 3F48                                          l3090 3E06  
                                        l3082 3DD6                                          l3074 3DA4  
                                        l3058 3D50                                          l3066 3D7A  
                                        l3330 4CC0                                          l3314 3960  
                                        l3306 3946                                          l3250 36DE  
                                        l3242 36A8                                          l3234 366C  
                                        l3218 35F6                                          l3410 47E4  
                                        l3402 47A8                                          l4106 466A  
                                        l4060 43A8                                          l4052 4360  
                                        l4044 42F0                                          l3180 40B2  
                                        l3172 4098                                          l3156 3FEA  
                                        l3164 4032                                          l3148 3F84  
                                        l3092 3E16                                          l3084 3DD8  
                                        l3076 3DA6                                          l3068 3D8A  
                                        l3332 4CD0                                          l3324 4C54  
                                        l3340 47F6                                          l3308 3954  
                                        l3260 3740                                          l3252 36EE  
                                        l3244 36B6                                          l3236 3678  
                                        l3228 3640                                          l3404 47B4  
                                        l3420 4D2C                                          l4108 469E  
                                        l4070 4428                                          l4062 43B4  
                                        l4054 4368                                          l4046 4336  
                                        l3510 4FCE                                          l3502 4F90  
                                        l3174 409C                                          l3166 404C  
                                        l3158 3FF6                                          l3094 3E1E  
                                        l3078 3DB6                                          l3086 3DE0  
                                        l3334 4CF4                                          l3326 4C82  
                                        l3350 4880                                          l3342 4824  
                                        l3270 37E8                                          l3262 375C  
                                        l3254 3708                                          l3246 36C2  
                                        l3238 3690                                          l3190 3554  
                                        l3318 4F4A                                          l3406 47C4  
                                        l3430 491A                                          l3422 4D40  
                                        l3414 4CFE                                          l4080 4470  
                                        l4072 442A                                          l4064 43F0  
                                        l4056 4374                                          l4048 434C  
                                        l3504 4F94                                          l3176 40AA  
                                        l3168 4062                                          l3096 3E22  
                                        l3088 3DF0                                          l3336 4CFA  
                                        l3328 4C92                                          l3352 4892  
                                        l3344 4834                                          l3280 3824  
                                        l3272 37F2                                          l3264 3786  
                                        l3256 3718                                          l3248 36D2  
                                        l3192 3562                                          l3408 47D4  
                                        l3432 4958                                          l3440 4998  
                                        l3424 4D44                                          l3416 4D0C  
                                        l3600 2984                                          l3520 2648  
                                        l4082 4472                                          l4074 442E  
                                        l4066 43FC                                          l4058 43A6  
                                        l3506 4FA8                                          l3178 40B0  
                                        l3354 48A0                                          l3346 4862  
                                        l3290 3896                                          l3282 3832  
                                        l3274 3800                                          l3266 37BC  
                                        l3258 3734                                          l3194 3564  
                                        l3362 509A                                          l3370 46F0  
                                        l3442 49AA                                          l3434 4980  
                                        l3426 4D62                                          l3418 4D18  
                                        l3450 4FD6                                          l3610 29EA  
                                        l3602 29BE                                          l3530 2692  
                                        l3522 264C                                          l3514 2624  
                                        l4090 45E8                                          l4076 4452  
                                        l4068 440A                                          l3508 4FCA  
                                        l3356 48F0                                          l3348 4872  
                                        l3292 38A4                                          l3284 3860  
                                        l3276 3812                                          l3268 37CA  
                                        l3196 3574                                          l3188 3548  
                                        l3364 50B0                                          l2900 31B0  
                                        l3380 4746                                          l3372 4706  
                                        l3436 498C                                          l3428 48FA  
                                        l3460 40DE                                          l2820 4ACC  
                                        l3452 4FE6                                          l3700 2E84  
                                        l3620 2A38                                          l3612 29EE  
                                        l3604 29CE                                          l3540 26E0  
                                        l3532 26A2                                          l3524 2670  
                                        l3516 262A                                          l4092 45EE  
                                        l2814 51F2                                          l4078 4462  
                                        l3358 48F6                                          l3294 38CE  
                                        l3278 3820                                          l3198 3584  
                                        l3366 50C0                                          l2910 31C4  
                                        l2902 31B4                                          l3382 4756  
                                        l3446 49EE                                          l3470 41C6  
                                        l3462 4134                                          l3454 4DEC  
                                        l2830 4B4E                                          l2822 4ADE  
                                        l3710 2F22                                          l3702 2E88  
                                        l3630 2AD0                                          l3614 2A00  
                                        l3622 2A40                                          l3606 29DA  
                                        l3550 271C                                          l3542 26F2  
                                        l3534 26AE                                          l3526 267A  
                                        l3518 263A                                          l4350 3C4C  
                                        l4094 4602                                          l4086 45E2  
                                        l2816 5200                                          l3288 388A  
                                        l3296 38D2                                          l2920 3222  
                                        l2904 31B8                                          l2912 31C8  
                                        l2840 30A4                                          l3392 4780  
                                        l3384 475A                                          l3376 471A  
                                        l3480 42AE                                          l3472 4202  
                                        l3464 4148                                          l3456 4E0A  
                                        l2824 4AF0                                          l3720 2F78  
                                        l3704 2E8E                                          l3712 2F26  
                                        l3640 2BB4                                          l3632 2B28  
                                        l3624 2A48                                          l3616 2A0E  
                                        l3608 29E2                                          l3560 277E  
                                        l3552 2726                                          l3544 26F6  
                                        l3536 26B6                                          l3528 2682  
                                        l4352 3CD6                                          l3800 39DA  
                                        l4096 4606                                          l4088 45E6  
                                        l4354 4526                                          l3298 38EC  
                                        l2930 3258                                          l2922 3238  
                                        l2914 31CC                                          l2906 31BC  
                                        l2842 30B4                                          l2850 30DE  
                                        l2834 3088                                          l3394 478A  
                                        l3386 4768                                          l3378 4744  
                                        l3482 42BE                                          l3466 4156  
                                        l3474 4236                                          l3458 40BE  
                                        l3490 4F1A                                          l2818 5248  
                                        l2826 4AFA                                          l3730 2FE0  
                                        l3722 2FA8                                          l3714 2F44  
                                        l3706 2EE6                                          l3650 2C4E  
                                        l3642 2BE6                                          l3634 2B5C  
                                        l3626 2A58                                          l3618 2A26  
                                        l3562 2782                                          l3546 26FC  
                                        l3538 26BA                                          l3810 3A58  
                                        l4346 3A10                                          l4098 4608  
                                        l2940 32A8                                          l2932 3262  
                                        l2924 3244                                          l2916 31F6  
                                        l2908 31C0                                          l2860 310E  
                                        l2852 30EE                                          l2844 30C4  
                                        l2836 3094                                          l3396 4794  
                                        l3476 4272                                          l3492 4F1E  
                                        l2828 4B18                                          l3740 3048  
                                        l3732 2FF6                                          l3724 2FB6  
                                        l3716 2F60                                          l3708 2F1A  
                                        l3660 2D26                                          l3652 2C82  
                                        l3644 2BFC                                          l3628 2A6C  
                                        l3636 2B62                                          l3580 280C  
                                        l3564 2788                                          l3548 2704  
                                        l3556 2746                                          l4348 3B8E  
                                        l3820 3AF2                                          l3812 3A62  
                                        l3804 39E6                                          l3910 51D6  
                                        l3750 4498                                          l2950 32E4  
                                        l2942 32B8                                          l2934 3284  
                                        l2926 3248                                          l2918 3212  
                                        l2870 314E                                          l2862 311C  
                                        l2854 30F4                                          l2846 30D4  
                                        l2838 30A2                                          l3478 4286  
                                        l3494 4F2A                                          l3486 4EFA  
                                        l3742 305E                                          l3734 2FFC  
                                        l3726 2FCE                                          l3718 2F68  
                                        l3670 2D50                                          l3654 2CD8  
                                        l3662 2D2A                                          l3646 2C2E  
                                        l3638 2B80                                          l3590 28F4  
                                        l3582 2812                                          l3566 2790  
                                        l3558 276C                                          l3574 27AC  
                                        l3830 3B62                                          l3814 3A70  
                                        l3806 3A1E                                          ?_pad 0513  
                                        l3920 4BB6                                          l3912 51EC  
                                        l3760 44FC                                          l2960 332A  
                                        l2952 32F2                                          l2944 32C6  
                                        l2936 3294                                          l2928 3256  
                                        l2880 3188                                          l2872 3150  
                                        l2864 311E                                          l2856 3106  
                                        l2848 30D6                                          l3488 4F0E  
                                        l3496 4F2E                                          l3744 3066  
                                        l3736 301A                                          l3680 2E1E  
                                        l3672 2D5C                                          l3664 2D3A  
                                        l3656 2CDE                                          l3648 2C3E  
                                        l3592 2908                                          l3584 2846  
                                        l3576 27C6                                          l3832 3B6A  
                                        l3840 3BAC                                          l3824 3B00  
                                        l3816 3A98                                          l3808 3A30  
                                        l3914 519C                                          l3930 4C1E  
                                        l3922 4BB8                                          l3498 5102  
                                        l3770 4576                                          l3762 4504  
                                        l3754 449C                                          l2970 33A6  
                                        l2962 335E                                          l2954 32F4  
                                        l2946 32D4                                          l2890 319C  
                                        l2882 318C                                          l2866 312E  
                                        l2874 3158                                          l2858 3108  
                                        l3738 3038                                          l3690 2E50  
                                        l3682 2E2E                                          l3674 2DD4  
                                        l3666 2D42                                          l3658 2D12  
                                        l3594 293C                                          l3586 2884  
                                        l3850 3C62                                          l3842 3BD0  
                                        l3834 3B72                                          l3818 3AD2  
                                        l3826 3B3C                                          l3916 51A2  
                                        l3940 4C2C                                          l3932 4C20  
                                        l3924 4BCC                                          l3780 522A  
                                        l3772 45AA                                          l3764 453C  
                                        l3756 44BC                                          l3748 4484  
                                        l2980 33E2                                          l2972 33B6  
                                        l2964 3360                                          l2956 32FE  
                                        l2948 32E0                                          l2892 31A0  
                                        l2884 3190                                          l2876 3168  
                                        l2868 313E                                          l3692 2E54  
                                        l3684 2E32                                          l3676 2DF4  
                                        l3668 2D48                                          l3596 2944  
                                        l3588 28B6                                          l3852 3C82  
                                        l3844 3C04                                          l3860 3CE4  
                                        l3828 3B4C                                          l3950 51BA  
                                        l3942 4C2E                                          l3934 4C22  
                                        l3926 4BD6                                          l3918 4B96  
                                        l3782 521C                                          l3774 45BC  
                                        l3758 44F4                                          l2990 340E  
                                        l2982 33E4                                          l2966 3370  
                                        l2958 3304                                          l2894 31A4  
                                        l2886 3194                                          l2878 317A  
                                        l3694 2E5A                                          l3686 2E38  
                                        l3678 2E10                                          l3838 3B7A  
                                        l3790 39A8                                          l3944 4C30  
                                        l3936 4C28                                          l3928 4C1C  
                                        l3784 5238                                          l3960 4DE6  
                                        l3952 4D78                                          l2984 33F2  
                                        l2976 33CA                                          l2992 3410  
                                        l2968 3380                                          l2896 31A8  
                                        l2888 3198                                          l3688 2E40  
                                        l3696 2E60                                          l3848 3C38  
                                        l3792 39B6                                          l3864 3CF6  
                                        l3946 4C36                                          l3938 4C2A  
                                        l3954 4DB6                                          l2986 33FA  
                                        l2978 33D4                                          l2994 341E  
                                        l2898 31AC                                          l3698 2E72  
                                        l3858 3CB4                                          l3794 39BA  
                                        l3786 3972                                          l3962 4E52  
                                        l3980 4A0A                                          l3948 5154  
                                        l3956 4DC6                                          l3972 5206  
                                        l2996 3422                                          l2988 33FE  
                                        l3796 39C6                                          l3788 399A  
                                        l3964 4E5E                                          l3982 4AC8  
                                        l3990 507A                                          l3958 4DD6  
                                        l3974 5212                                          l2998 3430  
                                        l3798 39C8                                          l3966 4E7C  
                                        l3992 507E                                          l3976 5216  
                                        l3968 4E9C                                          l3994 5250  
                                        l3978 49FA                                          l3986 505E  
                                        l3988 506A                                          l3996 4EA8  
                                        l3998 4EB8                                          STR_1 2606  
                                        STR_2 261B                                          STR_5 261F  
                                        u2020 5200                                          u2100 3106  
                                        u2021 51FC                                          u2101 3102  
                                        u2110 311C                                          u2030 4ADE  
                                        u2111 3118                                          u2031 4ADA  
                                        u2200 3256                                          u2120 312E  
                                        u3000 4768                                          u2040 4AF0  
                                        u2201 3252                                          u2121 312A  
                                        u3001 4764                                          u2041 4AEC  
                                        u2210 3276                                          u2130 313E  
                                        u3010 477C                                          u2050 4B18  
                                        u2211 3272                                          u2131 313A  
                                        u3011 4778                                          u2051 4B14  
                                        u2300 33B6                                          u2220 3284  
                                        u2140 317A                                          u3020 47A4  
                                        u3100 49AA                                          u2060 4B4E  
                                        u2301 33B2                                          u2221 3280  
                                        u2141 3176                                          u3021 47A0  
                                        u3101 49A6                                          u2061 4B4A  
                                        _LATA 0004BE                                          u2310 33E2  
                                        u2230 3294                                          u2150 3188  
                                        u2070 30A2                                          u3030 47C4  
                                        _LATB 0004BF                                          u2311 33DE  
                                        u2231 3290                                          u2151 3184  
                                        u2071 309E                                          u3031 47C0  
                                        _LATC 0004C0                                          u2400 34C4  
                                        u2320 33F2                                          u2240 32C6  
                                        u2160 31F6                                          u2080 30B4  
                                        u3040 47D4                                          u3120 49E4  
                                        u3200 41C2                                          _LATD 0004C1  
                                        u2401 34C0                                          u2321 33EE  
                                        u2241 32C2                                          u2161 31F2  
                                        u2081 30B0                                          u3041 47D0  
                                        u3121 49DE                                          u3201 41BE  
                                        _LATE 0004C2                                          u2410 34D6  
                                        u2330 340E                                          u2250 32D4  
                                        u2170 320E                                          u2090 30C4  
                                        u3130 49E6                                          u3210 41E6  
                                        u3050 4D0C                                          _LATF 0004C3  
                                        u2411 34D2                                          u2331 340A  
                                        u2251 32D0                                          u2171 3208  
                                        u2091 30C0                                          u3115 49BC  
                                        u3051 4D08                                          u3300 4FCA  
                                        u2500 3DA4                                          u2420 34E6  
                                        u2340 341E                                          u2260 32F2  
                                        u2180 3210                                          u3220 4202  
                                        u3060 4D62                                          u3140 5018  
                                        u3301 4FC6                                          u2501 3DA0  
                                        u2421 34E2                                          u2341 341A  
                                        u2261 32EE                                          u3221 41FE  
                                        u3061 4D5E                                          u3141 5014  
                                        u2510 3DB6                                          u2430 3506  
                                        u2350 3430                                          u2270 332A  
                                        u2190 3238                                          u3070 493A  
                                        u3230 4256                                          u3150 4E0A  
                                        u3310 2648                                          u2511 3DB2  
                                        u2431 3502                                          u2351 342C  
                                        u2271 3326                                          u2191 3234  
                                        u3215 41DC                                          u3151 4E06  
                                        u3311 2644                                          u2600 3F60  
                                        u2520 3DC6                                          u2440 3518  
                                        u2360 3446                                          u2280 3370  
                                        u3080 4958                                          u3240 4272  
                                        u3160 4106                                          u3400 28B6  
                                        u3320 2692                                          u2601 3F5C  
                                        u2521 3DC2                                          u2441 3514  
                                        u2361 3442                                          u2281 336C  
                                        u3081 4954                                          u3241 426E  
                                        u3401 28B2                                          u3321 268E  
                                        u2610 3F80                                          u2530 3E06  
                                        u2450 3534                                          u2370 345C  
                                        u2290 33A6                                          u3090 4980  
                                        u3250 42AE                                          u3170 4134  
                                        u3410 28F4                                          u3330 26A2  
                                        u2611 3F7C                                          u2531 3E02  
                                        u2451 3530                                          u2371 3458  
                                        u2291 33A2                                          u3091 497C  
                                        u3075 4930                                          u3251 42AA  
                                        u3235 424C                                          u3171 4130  
                                        u3411 28F0                                          u3331 269E  
                                        u2620 3F92                                          u2540 3E46  
                                        u2700 3562                                          u2380 3470  
                                        u3180 4156                                          u3260 4F48  
                                        u2460 505C                                          u3500 2C2E  
                                        u3420 2980                                          u3340 26E0  
                                        u2621 3F8E                                          u2541 3E42  
                                        u2701 355E                                          u2381 346C  
                                        u3181 4152                                          u3165 40FC  
                                        u3261 4F44                                          u2461 5058  
                                        u3501 2C2A                                          u3421 297C  
                                        u3341 26DC                                          u3270 5126  
                                        u2630 3FC0                                          u2550 3EBC  
                                        u2470 3D3E                                          u2710 3574  
                                        u2390 348A                                          u3510 2C3E  
                                        u3430 29B6                                          u3350 26F2  
                                        u3271 5120                                          u2631 3FBC  
                                        u2551 3EB8                                          u2471 3D3A  
                                        u2711 3570                                          u2391 3486  
                                        u3511 2C3A                                          u3431 29B2  
                                        u3351 26EE                                          u3280 5128  
                                        u2640 3FD6                                          u2560 3EDE  
                                        u2480 3D50                                          u2800 3820  
                                        u2720 3584                                          u3600 2FC8  
                                        u3520 2CD8                                          u3440 29CE  
                                        u3360 276C                                          u2641 3FD2  
                                        u2561 3EDA                                          u2481 3D4C  
                                        u2801 381C                                          u2721 3580  
                                        u3601 2FC2                                          u3521 2CD4  
                                        u3441 29CA                                          u3361 2768  
                                        u3290 4FA8                                          u2650 3FEA  
                                        u2570 3F08                                          u2490 3D60  
                                        u2810 3832                                          u2730 35C4  
                                        u3610 2FCA                                          u3530 2D26  
                                        u3450 2A00                                          u3370 277E  
                                        u3291 4FA4                                          u2651 3FE6  
                                        u2571 3F04                                          u2491 3D5C  
                                        u2811 382E                                          u2731 35C0  
                                        u3195 416A                                          u3531 2D22  
                                        u3451 29FC                                          u3371 277A  
                                        u2660 4004                                          u2580 3F2C  
                                        u2900 4CC0                                          u2820 3860  
                                        u2740 35D6                                          u3196 4174  
                                        u3620 2FDC                                          u3540 2DD4  
                                        u3460 2A0E                                          u3380 27F8  
                                        u3700 399A                                          u2661 4000  
                                        u2581 3F28                                          u2901 4CBC  
                                        u2821 385C                                          u2741 35D2  
                                        u3197 4184                                          u3621 2FD8  
                                        u3541 2DD0                                          u3461 2A0A  
                                        u3381 27F4                                          u3701 3996  
                                        u2670 404C                                          u2590 3F42  
                                        u2910 4CF4                                          u2830 3876  
                                        u2750 35E6                                          u3630 301A  
                                        u3550 2E10                                          u3470 2A38  
                                        u3390 2884                                          u3710 3A30  
                                        u2671 4048                                          u2591 3F3E  
                                        u2911 4CF0                                          u2831 3872  
                                        u2751 35E2                                          u3631 3016  
                                        u3551 2E0C                                          u3471 2A34  
                                        u3391 2880                                          u3711 3A2C  
                                        u3800 5100                                          u2680 407C  
                                        u2920 4824                                          u2840 388A  
                                        u2760 361C                                          u3640 3038  
                                        u3560 2E1E                                          u3480 2B80  
                                        u3720 3A58                                          u3801 50FC  
                                        u2681 4078                                          u2921 4820  
                                        u2841 3886                                          u2761 3618  
                                        u3641 3034                                          u3561 2E1A  
                                        u3481 2B7C                                          u3721 3A54  
                                        u2690 40AA                                          u2930 4862  
                                        u2850 38A4                                          u2770 362C  
                                        u3650 3048                                          u3570 2E72  
                                        u3490 2BE6                                          u3730 3A98  
                                        u2691 40A6                                          u2931 485E  
                                        u2851 38A0                                          u2771 3628  
                                        u3651 3044                                          u3571 2E6E  
                                        u3491 2BE2                                          u3731 3A94  
                                        u3900 434C                                          u3660 44BC  
                                        u2940 4880                                          u2860 38EC  
                                        u2780 37A6                                          u3580 2F44  
                                        u3740 3B3C                                          _PMD0 000060  
                                        u3901 4348                                          u3661 44B8  
                                        u2941 487C                                          u2861 38E8  
                                        u3581 2F40                                          u3741 3B38  
                                        _PMD1 000061                                          u3910 43A2  
                                        u3670 44F0                                          u2950 48A0  
                                        u2870 391A                                          u2790 3800  
                                        u3590 2F60                                          u3750 3BCC  
                                        u3911 439E                                          u3671 44EC  
                                        u2951 489C                                          u2871 3916  
                                        u2791 37FC                                          u3591 2F5C  
                                        u3751 3BC8                                          _PMD3 000063  
                                        u3760 51B4                                          u3920 43EC  
                                        u3680 45AA                                          u2960 48F0  
                                        u2880 3954                                          _PMD4 000064  
                                        u3761 51B0                                          u3921 43E8  
                                        u3681 45A6                                          u2961 48EC  
                                        u2881 3950                                          u2785 379C  
                                        _PMD5 000065                                          u3930 440A  
                                        u3690 45BC                                          u2890 4C82  
                                        u2970 50B0                                          u3770 4E9C  
                                        _PMD6 000066                                          u3931 4406  
                                        u3691 45B8                                          u2891 4C7E  
                                        u2971 50AC                                          u3771 4E98  
                                        _PMD7 000067                                          u3780 4A0A  
                                        u3940 441A                                          u2980 4706  
                                        _PMD8 000068                                          u3781 4A06  
                                        u3941 4416                                          u2981 4702  
                                        u3790 5098                                          u3950 4428  
                                        u2990 473A                                          u3791 5094  
                                        u3951 4424                                          u3960 4462  
                                        u3880 42E2                                          u3961 445E  
                                        u3881 42DE                                          u3970 4470  
                                        u3890 42F0                                          u3971 446C  
                                        u3891 42EC                                          u2995 4730  
                                        u3997 46DA                                          _WPUA 000401  
                                        _WPUB 000409                                          _WPUC 000411  
                                        _WPUD 000419                                          _WPUE 000421  
                                        _WPUF 000429                                          _dbuf 0600  
                                        _labs 4DEC                                          _atoi 4484  
                                        _main 45E2                                          _prec 05D1  
                                        pad@i 051A                                          pad@p 0517  
                                        fsr1h 0004E2                                          fsr2h 0004DA  
                                        indf2 0004DF                                          fsr1l 0004E1  
                                        pad@w 051C                                          fsr2l 0004D9  
                               ___fpclassifyf 48FA                                          prodh 0004F4  
                                        prodl 0004F3                                          start FFFC  
                             ___fldiv@new_exp 0512                     __end_of_SPI1_ExchangeByte 51BA  
                                ___param_bank 000000                                   ?_UART1_PutS 0502  
                                       ??_pad 0519                 __end_of_OSCILLATOR_Initialize 51D6  
                                 ?_SPI1_Close 0501                                 ___fltol@sign1 0509  
                                       ?_labs 0501                                         ?_atoi 0507  
                             __end_of___fladd 3548                                         ?_main 0501  
                             __end_of___fldiv 40BE                               __end_of___flneg 50D2  
                             __end_of___flmul 3972                               __end_of___flsub 4F90  
            SPI1_Open@spi1UniqueConfiguration 0502                               __end_of___fltol 47F6  
                                       _U1P1H 0002A6                                         _U1P2H 0002A8  
                                       _U1P3H 0002AA                                         _U1P1L 0002A5  
                                       _U1P2L 0002A7                                         _U1P3L 0002A9  
                                       _U1UIR 0002B1                                         _U1RXB 0002A1  
                                       _U1TXB 0002A3                                         _OSCEN 0000B3  
                                vfpfcnvrt@fmt 058E                                         _TRISA 0004C6  
                                       _TRISB 0004C7                                         _TRISC 0004C8  
                                       _TRISD 0004C9                                         _TRISE 0004CA  
                                       _TRISF 0004CB                                         _flags 055E  
                                       _fputc 4ACC                                         _fputs 501A  
                             __end_of_isdigit 512E                                         labs@a 0501  
                                       atoi@n 050E                                         pad@fp 0513  
                                       atoi@s 0507                                         _width 05CF  
                                       _putch 5246                               __end_of_isspace 4FD6  
                                       tablat 0004F5                                         status 0004D8  
                             __end_of_sprintf 4EFA                                ?___fpclassifyf 0501  
            _UART1_DefaultFramingErrorHandler 000000                               __initialization 5178  
                                __end_of_labs 4E52                                  __end_of_atoi 45E2  
                                __end_of_main 46F0                                  ?_UART1_Write 0501  
                                      ??_labs 0505                                        ??_atoi 0509  
                                      ??_main 055C                                 __activetblptr 000003  
                            _UART1_Initialize 4D78                                        ?_fputc 0503  
                                      _ACTCON 0000AC                                        ?_fputs 050C  
                                      _ANSELA 000400                                        ?_putch 0501  
                                      _ANSELB 000408                                        _ANSELC 000410  
                                      _ANSELD 000418                                        _ANSELE 000420  
                                      _ANSELF 000428                                        _RB1I2C 000289  
                                      _RB2I2C 000288                                        _U1CON0 0002AB  
                                      _U1CON1 0002AC                                        _U1CON2 0002AD  
                                      _RC3I2C 000287                                        _RC4I2C 000286  
                                      _U1BRGH 0002AF                                        _U1FIFO 0002B0  
                                      _U1BRGL 0002AE                                        _RC4PPS 000215  
                                      _ODCONA 000402                                        _ODCONB 00040A  
                                      _RF0PPS 000229                                        _RC6PPS 000217  
                                      _ODCONC 000412                                        _ODCOND 00041A  
                                      _ODCONE 000422                                        _ODCONF 00042A  
                                      _INLVLA 000404                                        _INLVLB 00040C  
                                      _INLVLC 000414                                        _INLVLD 00041C  
                                      _INLVLE 000424                                        _INLVLF 00042C  
                                      _OSCFRQ 0000B1                                 vfpfcnvrt@done 0548  
                       _UART1_SetErrorHandler 5238                              __end_of___xxtofl 4484  
                           __end_of_SPI1_Open 4ACC                                  vfprintf@cfmt 054D  
                                      ___flge 47F6                                        ___fleq 4C54  
                                   ??___fladd 0509                                        ___wmul 512E  
                                   ??___fldiv 0509                                     ??___flneg 0505  
                                   ??___flmul 0517                                     ??___flsub 0530  
                                   ??___fltol 0505                                        _efgtoa 2624  
                                      _floorf 40BE                                        _memcpy 4EFA  
                                      clear_0 517E                                        clear_1 518A  
                                      isa$std 000001                                        pad@buf 0515  
                                      _strcpy 4FD6                                        fputc@c 0503  
                              _PMD_Initialize 5154                                        fputs@c 0510  
                                      fputs@i 0511                                        fputs@s 050C  
                                   ??_isdigit 0503                               ___fpclassifyf@e 0509  
                             ___fpclassifyf@u 050B                               ___fpclassifyf@x 0501  
                                __mediumconst 0000                                     ??_isspace 0503  
                                      tblptrh 0004F7                                        tblptrl 0004F6  
                                      tblptru 0004F8                              __end_of_vfprintf 4EA8  
        __end_of_UART1_SetOverrunErrorHandler 522A                  _UART1_SetOverrunErrorHandler 521C  
                   _UART1_DefaultErrorHandler 000000                                     ??_sprintf 054F  
                                  ___flge@ff1 0528                                    ___flge@ff2 052C  
                             ??___fpclassifyf 0505                                  ___xxtofl@arg 050B  
                                ___xxtofl@exp 050A                             _SYSTEM_Initialize 5206  
                                ___xxtofl@val 0501                                    ___fleq@ff1 0501  
                                  ___fleq@ff2 0505                                    __accesstop 0560  
                     __end_of__initialization 5194                                    ___flneg@f1 0501  
                              _SPI1_ReadBlock 505E                            ?_SYSTEM_Initialize 0501  
                               ___rparam_used 000001                                    ___fltol@f1 0501  
                              __pcstackCOMRAM 0501                           ??_SYSTEM_Initialize 0504  
                               __end_of_fputc 4B96                                 __end_of_fputs 505E  
                           ??_SPI1_Initialize 0501                                 __end_of_putch 5250  
                      __end_of_PMD_Initialize 5178                         SPI1_ExchangeByte@data 0501  
                          _spi1_configuration 2601                     _UART1_FramingErrorHandler 05D9  
                                     ??_fputc 0507                     __end_of_SYSTEM_Initialize 521C  
                                     ??_fputs 0510                                       ??_putch 0502  
                      __end_of_SPI1_ReadBlock 509A                                    __pbssBANK5 05C7  
                                  __pbssBANK6 0600                 ?_UART1_SetOverrunErrorHandler 0501  
                      ?_UART1_SetErrorHandler 0501                                   UART1_PutS@s 0502  
                                     ?___flge 0528                                       ?___fleq 0501  
                                     ?___wmul 0501                                  ??_UART1_PutS 0504  
                                     ?_efgtoa 0534                                       ?_floorf 051A  
                                     ?_memcpy 0501                               main@Temperatura 05B9  
                                ??_SPI1_Close 0501                               ?_PMD_Initialize 0501  
                                     ?_strcpy 0501                                       _U1ERRIE 0002B3  
                                     _U1ERRIR 0002B2                                       _U1RXPPS 000272  
                                   ?___xxtofl 0501                                       _OSCCON1 0000AD  
                                     _OSCCON3 0000AF                                       _SPI1CLK 00008C  
                                     _SPI1RXB 000080                                       _SPI1TXB 000081  
                                     _OSCTUNE 0000B0                                       _SLRCONA 000403  
                                     _SLRCONB 00040B                                       _SLRCONC 000413  
                                     _SLRCOND 00041B                                       _SLRCONE 000423  
                                     _SLRCONF 00042B                               ?_SPI1_ReadBlock 0502  
                          __end_of_UART1_PutS 5102                            __end_of_SPI1_Close 5256  
                                     __Hparam 0000                                       __Lparam 0000  
                    __end_of_UART1_Initialize 4DEC                                       ___fladd 3088  
                                     ___fldiv 3D24                                       ___flneg 509A  
                                     ___flmul 3548                                       ___flsub 4F4A  
                                     ___fltol 46F0                                     ?_vfprintf 0592  
                                __psmallconst 2600                                       __pcinit 5178  
                                     __ramtop 2600                                       __ptext0 45E2  
                                     __ptext1 4EA8                                       __ptext2 4E52  
                                     __ptext3 3972                                       __ptext4 2624  
                                     __ptext5 4FD6                                       __ptext6 4CFE  
                                     __ptext7 501A                                       __ptext8 4ACC  
                                     __ptext9 5246                         _OSCILLATOR_Initialize 51BA  
                                     _isdigit 5102                                    ??___xxtofl 0505  
                    ??_PIN_MANAGER_Initialize 0501                                       _isspace 4F90  
                                     efgtoa@c 053A                                       efgtoa@d 056B  
                                     efgtoa@e 056F                                       efgtoa@f 0536  
                                     efgtoa@g 0582                                       efgtoa@h 0577  
                                     efgtoa@i 057F                                       efgtoa@l 057B  
                                     efgtoa@m 056D                                       efgtoa@n 0586  
                                     efgtoa@p 0562                                       efgtoa@t 0564  
                                     efgtoa@u 0588                                       efgtoa@w 0571  
                                     atoi@neg 050C                                       _sprintf 4EA8  
                        end_of_initialization 5194                                       floorf@e 0528  
                                     floorf@m 0524                                       floorf@u 052A  
                                     floorf@x 051A                                       memcpy@d 0507  
                                     memcpy@n 0505                                       memcpy@s 0509  
                                     fputc@fp 0505                                       fputs@fp 050E  
              ??_UART1_SetOverrunErrorHandler 0504                             __end_of_vfpfcnvrt 3D24  
                                  efgtoa@mode 0569                                    efgtoa@sign 0581  
                                   _SPI1TCNTL 000082                                       postdec2 0004DD  
                                     postinc0 0004EE                                       postinc1 0004E6  
                                     postinc2 0004DE                              vfpfcnvrt@convarg 0540  
                                  ??_vfprintf 054D                                     _SPI1_Open 49F8  
                           UART1_Write@txData 0501                                       strcpy@d 0507  
                                     strcpy@s 0505                                   ___fladd@grs 0510  
                               ___xxtofl@sign 0509                           SPI1_ReadBlock@block 0502  
                                   _TRISCbits 0004C8                                   ___fldiv@grs 0514  
                                 ___fldiv@rem 050D                                    main@cadena 05A0  
                                 ___flmul@grs 051C                                    main@buffer 05C5  
                             _SPI1_Initialize 51D6                                __end_of___flge 48FA  
                              __end_of___fleq 4CFE                                    ?_SPI1_Open 0501  
                                 vfpfcnvrt@ap 0590                                   vfpfcnvrt@cp 054B  
                                 vfpfcnvrt@fp 058C                                __end_of___wmul 5154  
                              __end_of_efgtoa 3088                                __end_of_floorf 42D0  
                              __end_of_memcpy 4F4A                        ?_OSCILLATOR_Initialize 0501  
                                  floorf@F526 05C7                                __end_of_strcpy 501A  
                         start_initialization 5178                                   __end_of_pad 4D78  
                     ??_UART1_SetErrorHandler 0504                                   putch@txData 0502  
                       __end_of___fpclassifyf 49F8                                   vfprintf@fmt 0594  
                                    ??___flge 0530                                      ??___fleq 0509  
                            ??_PMD_Initialize 0501                                      ??___wmul 0505  
                                    ??_efgtoa 053B                                      ??_floorf 051E  
                                    ??_memcpy 0507                                      ??_strcpy 0505  
                                   ___fladd@a 0505                                     ___fladd@b 0501  
                                   ___fldiv@a 0505                                     ___fldiv@b 0501  
                                   ___flmul@a 0513                                     ___flmul@b 050F  
                                 __pbssCOMRAM 055E                                     ___flsub@a 052C  
                                   ___flsub@b 0528                              ??_SPI1_ReadBlock 0506  
                          _UART1_ErrorHandler 05D3                                 __pcstackBANK5 0560  
                     __end_of_SPI1_Initialize 51F0                                     __pnvBANK5 05D3  
                                 _efgtoa$1135 0566                                     _main$1497 05BD  
                      _PIN_MANAGER_Initialize 4B96                             ?_UART1_Initialize 0501  
        __end_of_UART1_SetFramingErrorHandler 5238                  _UART1_SetFramingErrorHandler 522A  
                                    ?___fladd 0501                                      ?___fldiv 0501  
                                    ?___flneg 0501                                      ?___flmul 050F  
                                    ?___flsub 0528                                      ?___fltol 0501  
                          ??_UART1_Initialize 0504                                   ??_SPI1_Open 0501  
                            _uart1RxLastError 055F                                 ??_UART1_Write 0501  
                                 __smallconst 2600              _UART1_DefaultOverrunErrorHandler 000000  
                                    ?_isdigit 0501                                      ?_isspace 0501  
                                    ?_sprintf 0598                                   _U1ERRIRbits 0002B2  
                              ___wmul@product 0505         UART1_SetErrorHandler@interruptHandler 0501  
                                    _LATDbits 0004C1                                  _SPI1CON0bits 000084  
                                    _SPI1BAUD 000089                                      _PIR3bits 0004B1  
                                    _PIR4bits 0004B2                                      _SPI1CON0 000084  
                                    _SPI1CON1 000085                                      _SPI1CON2 000086  
               ?_UART1_SetFramingErrorHandler 0501                                     _vfpfcnvrt 3972  
                          SPI1_ReadBlock@data 0506                             ___wmul@multiplier 0501  
                                   main@Trama 05C1                                     main@tramH 05C3  
                                   main@tramL 05C4                           __end_of_UART1_Write 5206  
                                _isspace$1213 0505                                    vfpfcnvrt@c 054A  
                            ?_SPI1_Initialize 0501                                      __Hrparam 0000  
                                   memcpy@tmp 050B                                    vfprintf@ap 0596  
                                    __Lrparam 0000                                    vfprintf@fp 0592  
                     ??_OSCILLATOR_Initialize 0501                                    ?_vfpfcnvrt 058C  
                          ___fpclassifyf@F465 05CB                                    sprintf@fmt 059A  
                                    ___xxtofl 42D0                                      __ptext10 4EFA  
                                    __ptext11 4DEC                                      __ptext20 4C54  
                                    __ptext12 40BE                                      __ptext21 3D24  
                                    __ptext13 48FA                                      __ptext30 4D78  
                                    __ptext22 4484                                      __ptext14 46F0  
                                    __ptext31 521C                                      __ptext23 4F90  
                                    __ptext15 4F4A                                      __ptext40 49F8  
                                    __ptext32 522A                                      __ptext24 5102  
                                    __ptext16 3088                                      __ptext41 5250  
                                    __ptext33 5238                                      __ptext25 512E  
                                    __ptext17 509A                                      __ptext34 51D6  
                                    __ptext26 42D0                                      __ptext18 3548  
                                    __ptext35 5154                                      __ptext27 50D2  
                                    __ptext19 47F6                                      __ptext36 4B96  
                                    __ptext28 51F0                                      __ptext37 51BA  
                                    __ptext29 5206                                      __ptext38 505E  
                                    __ptext39 519A                                    _U1CON0bits 0002AB  
               __end_of_UART1_SetErrorHandler 5246                                    strcpy@dest 0501  
                                    efgtoa@fp 0534                                      efgtoa@ne 0560  
                                    efgtoa@pp 0568                                      efgtoa@ou 0573  
                   _UART1_OverrunErrorHandler 05D6  UART1_SetOverrunErrorHandler@interruptHandler 0501  
                                    isa$xinst 000000                                      _vfprintf 4E52  
                                 _UART1_Write 51F0                ??_UART1_SetFramingErrorHandler 0504  
                                    memcpy@d1 0501                                      memcpy@s1 0503  
                                    isdigit@c 0501                                     sprintf@ap 054F  
                                    isspace@c 0501                       ?_PIN_MANAGER_Initialize 0501  
                                   strcpy@src 0503                                   efgtoa@nmode 056A  
                                  _SPI1SDIPPS 00026B                                    _SPI1SCKPPS 00026A  
                                  _UART1_PutS 50D2  UART1_SetFramingErrorHandler@interruptHandler 0501  
                                 ??_vfpfcnvrt 053D                                    _SPI1_Close 5250  
                                    sprintf@f 0551                                      sprintf@s 0598  
                               ___fladd@signs 050D                __end_of_PIN_MANAGER_Initialize 4C54  
                     SPI1_ReadBlock@blockSize 0504                                  ___fladd@aexp 050E  
                                ___fladd@bexp 050F                    __end_of_spi1_configuration 2606  
