

Microchip MPLAB XC8 Assembler V2.32 build 20210201212658 
                                                                                               Sun Jan 29 17:23:04 2023

Microchip MPLAB XC8 C Compiler v2.32 (Free license) build 20210201212658 Og1 
     1                           	processor	18F57Q43
     2                           	fnconf	rparam,??,?,0
     3                           	pagewidth 120
     4                           	opt	flic
     5                           	psect	smallconst,global,reloc=2,class=SMALLCONST,delta=1,noexec
     6                           	psect	cinit,global,reloc=2,class=CODE,delta=1
     7                           	psect	bssCOMRAM,global,class=COMRAM,space=1,delta=1,lowdata,noexec
     8                           	psect	bssBANK5,global,class=BANK5,space=1,delta=1,lowdata,noexec
     9                           	psect	cstackCOMRAM,global,class=COMRAM,space=1,delta=1,lowdata,noexec
    10                           	psect	text0,global,reloc=2,class=CODE,delta=1
    11                           	psect	text1,global,reloc=2,class=CODE,delta=1,group=3
    12                           	psect	text2,global,reloc=2,class=CODE,delta=1,group=1
    13                           	psect	text3,global,reloc=2,class=CODE,delta=1,group=1
    14                           	psect	text4,global,reloc=2,class=CODE,delta=1,group=3
    15                           	psect	text5,global,reloc=2,class=CODE,delta=1,group=3
    16                           	psect	intsave_regs,global,class=BIGRAM,space=1,delta=1,noexec
    17                           	psect	rparam,global,class=COMRAM,space=1,delta=1,noexec
    18                           	psect	idloc,global,abs,ovrld,class=IDLOC,space=5,delta=1,noexec
    19                           	psect	config,global,abs,ovrld,class=CONFIG,space=4,delta=1,noexec
    20  0000                     
    21                           ; Version 2.40
    22                           ; Generated 08/12/2021 GMT
    23                           ; 
    24                           ; Copyright © 2021, Microchip Technology Inc. and its subsidiaries ("Microchip")
    25                           ; All rights reserved.
    26                           ; 
    27                           ; This software is developed by Microchip Technology Inc. and its subsidiaries ("Microch
      +                          ip").
    28                           ; 
    29                           ; Redistribution and use in source and binary forms, with or without modification, are
    30                           ; permitted provided that the following conditions are met:
    31                           ; 
    32                           ;     1. Redistributions of source code must retain the above copyright notice, this lis
      +                          t of
    33                           ;        conditions and the following disclaimer.
    34                           ; 
    35                           ;     2. Redistributions in binary form must reproduce the above copyright notice, this 
      +                          list
    36                           ;        of conditions and the following disclaimer in the documentation and/or other
    37                           ;        materials provided with the distribution. Publication is not required when
    38                           ;        this file is used in an embedded application.
    39                           ; 
    40                           ;     3. Microchip's name may not be used to endorse or promote products derived from th
      +                          is
    41                           ;        software without specific prior written permission.
    42                           ; 
    43                           ; THIS SOFTWARE IS PROVIDED BY MICROCHIP "AS IS" AND ANY EXPRESS OR IMPLIED WARRANTIES,
    44                           ; INCLUDING, BUT NOT LIMITED TO, THE IMPLIED WARRANTIES OF MERCHANTABILITY AND FITNESS F
      +                          OR
    45                           ; PURPOSE ARE DISCLAIMED.  IN NO EVENT SHALL MICROCHIP BE LIABLE FOR ANY DIRECT, INDIREC
      +                          T,
    46                           ; INCIDENTAL, SPECIAL, EXEMPLARY, OR CONSEQUENTIAL DAMAGES (INCLUDING BUT NOT LIMITED TO
    47                           ; PROCUREMENT OF SUBSTITUTE GOODS OR SERVICES; LOSS OF USE, DATA OR PROFITS; OR BUSINESS
    48                           ; INTERRUPTION) HOWSOEVER CAUSED AND ON ANY THEORY OF LIABILITY, WHETHER IN CONTRACT, ST
      +                          RICT
    49                           ; LIABILITY, OR TORT (INCLUDING NEGLIGENCE OR OTHERWISE) ARISING IN ANY WAY OUT OF THE U
      +                          SE OF
    50                           ; THIS SOFTWARE, EVEN IF ADVISED OF THE POSSIBILITY OF SUCH DAMAGE.
    51                           ; 
    52                           ; 
    53                           ; Code-generator required, PIC18F57Q43 Definitions
    54                           ; 
    55                           ; SFR Addresses
    56  0000                     
    57                           	psect	smallconst
    58  002500                     __psmallconst:
    59                           	callstack 0
    60  002500  00                 	db	0
    61  002501                     STR_5:
    62  002501  50                 	db	80	;'P'
    63  002502  4F                 	db	79	;'O'
    64  002503  53                 	db	83	;'S'
    65  002504  54                 	db	84	;'T'
    66  002505  20                 	db	32
    67  002506  2F                 	db	47
    68  002507  61                 	db	97	;'a'
    69  002508  70                 	db	112	;'p'
    70  002509  69                 	db	105	;'i'
    71  00250A  2F                 	db	47
    72  00250B  76                 	db	118	;'v'
    73  00250C  31                 	db	49	;'1'
    74  00250D  2E                 	db	46
    75  00250E  36                 	db	54	;'6'
    76  00250F  2F                 	db	47
    77  002510  64                 	db	100	;'d'
    78  002511  65                 	db	101	;'e'
    79  002512  76                 	db	118	;'v'
    80  002513  69                 	db	105	;'i'
    81  002514  63                 	db	99	;'c'
    82  002515  65                 	db	101	;'e'
    83  002516  73                 	db	115	;'s'
    84  002517  2F                 	db	47
    85  002518  64                 	db	100	;'d'
    86  002519  73                 	db	115	;'s'
    87  00251A  70                 	db	112	;'p'
    88  00251B  69                 	db	105	;'i'
    89  00251C  63                 	db	99	;'c'
    90  00251D  2F                 	db	47
    91  00251E  3F                 	db	63	;'?'
    92  00251F  74                 	db	116	;'t'
    93  002520  6F                 	db	111	;'o'
    94  002521  6B                 	db	107	;'k'
    95  002522  65                 	db	101	;'e'
    96  002523  6E                 	db	110	;'n'
    97  002524  3D                 	db	61	;'='
    98  002525  42                 	db	66	;'B'
    99  002526  42                 	db	66	;'B'
   100  002527  46                 	db	70	;'F'
   101  002528  46                 	db	70	;'F'
   102  002529  2D                 	db	45
   103  00252A  37                 	db	55	;'7'
   104  00252B  5A                 	db	90	;'Z'
   105  00252C  4D                 	db	77	;'M'
   106  00252D  34                 	db	52	;'4'
   107  00252E  78                 	db	120	;'x'
   108  00252F  44                 	db	68	;'D'
   109  002530  44                 	db	68	;'D'
   110  002531  31                 	db	49	;'1'
   111  002532  57                 	db	87	;'W'
   112  002533  45                 	db	69	;'E'
   113  002534  50                 	db	80	;'P'
   114  002535  51                 	db	81	;'Q'
   115  002536  54                 	db	84	;'T'
   116  002537  70                 	db	112	;'p'
   117  002538  39                 	db	57	;'9'
   118  002539  50                 	db	80	;'P'
   119  00253A  75                 	db	117	;'u'
   120  00253B  4B                 	db	75	;'K'
   121  00253C  53                 	db	83	;'S'
   122  00253D  76                 	db	118	;'v'
   123  00253E  72                 	db	114	;'r'
   124  00253F  50                 	db	80	;'P'
   125  002540  46                 	db	70	;'F'
   126  002541  69                 	db	105	;'i'
   127  002542  56                 	db	86	;'V'
   128  002543  63                 	db	99	;'c'
   129  002544  45                 	db	69	;'E'
   130  002545  6C                 	db	108	;'l'
   131  002546  64                 	db	100	;'d'
   132  002547  32                 	db	50	;'2'
   133  002548  20                 	db	32
   134  002549  48                 	db	72	;'H'
   135  00254A  54                 	db	84	;'T'
   136  00254B  54                 	db	84	;'T'
   137  00254C  50                 	db	80	;'P'
   138  00254D  2F                 	db	47
   139  00254E  31                 	db	49	;'1'
   140  00254F  2E                 	db	46
   141  002550  31                 	db	49	;'1'
   142  002551  48                 	db	72	;'H'
   143  002552  6F                 	db	111	;'o'
   144  002553  73                 	db	115	;'s'
   145  002554  74                 	db	116	;'t'
   146  002555  3A                 	db	58	;':'
   147  002556  20                 	db	32
   148  002557  69                 	db	105	;'i'
   149  002558  6E                 	db	110	;'n'
   150  002559  64                 	db	100	;'d'
   151  00255A  75                 	db	117	;'u'
   152  00255B  73                 	db	115	;'s'
   153  00255C  74                 	db	116	;'t'
   154  00255D  72                 	db	114	;'r'
   155  00255E  69                 	db	105	;'i'
   156  00255F  61                 	db	97	;'a'
   157  002560  6C                 	db	108	;'l'
   158  002561  2E                 	db	46
   159  002562  61                 	db	97	;'a'
   160  002563  70                 	db	112	;'p'
   161  002564  69                 	db	105	;'i'
   162  002565  2E                 	db	46
   163  002566  75                 	db	117	;'u'
   164  002567  62                 	db	98	;'b'
   165  002568  69                 	db	105	;'i'
   166  002569  64                 	db	100	;'d'
   167  00256A  6F                 	db	111	;'o'
   168  00256B  74                 	db	116	;'t'
   169  00256C  73                 	db	115	;'s'
   170  00256D  2E                 	db	46
   171  00256E  63                 	db	99	;'c'
   172  00256F  6F                 	db	111	;'o'
   173  002570  6D                 	db	109	;'m'
   174  002571  43                 	db	67	;'C'
   175  002572  6F                 	db	111	;'o'
   176  002573  6E                 	db	110	;'n'
   177  002574  74                 	db	116	;'t'
   178  002575  65                 	db	101	;'e'
   179  002576  6E                 	db	110	;'n'
   180  002577  74                 	db	116	;'t'
   181  002578  2D                 	db	45
   182  002579  54                 	db	84	;'T'
   183  00257A  79                 	db	121	;'y'
   184  00257B  70                 	db	112	;'p'
   185  00257C  65                 	db	101	;'e'
   186  00257D  3A                 	db	58	;':'
   187  00257E  20                 	db	32
   188  00257F  61                 	db	97	;'a'
   189  002580  70                 	db	112	;'p'
   190  002581  70                 	db	112	;'p'
   191  002582  6C                 	db	108	;'l'
   192  002583  69                 	db	105	;'i'
   193  002584  63                 	db	99	;'c'
   194  002585  61                 	db	97	;'a'
   195  002586  74                 	db	116	;'t'
   196  002587  69                 	db	105	;'i'
   197  002588  6F                 	db	111	;'o'
   198  002589  6E                 	db	110	;'n'
   199  00258A  2F                 	db	47
   200  00258B  6A                 	db	106	;'j'
   201  00258C  73                 	db	115	;'s'
   202  00258D  6F                 	db	111	;'o'
   203  00258E  6E                 	db	110	;'n'
   204  00258F  43                 	db	67	;'C'
   205  002590  6F                 	db	111	;'o'
   206  002591  6E                 	db	110	;'n'
   207  002592  74                 	db	116	;'t'
   208  002593  65                 	db	101	;'e'
   209  002594  6E                 	db	110	;'n'
   210  002595  74                 	db	116	;'t'
   211  002596  2D                 	db	45
   212  002597  4C                 	db	76	;'L'
   213  002598  65                 	db	101	;'e'
   214  002599  6E                 	db	110	;'n'
   215  00259A  67                 	db	103	;'g'
   216  00259B  74                 	db	116	;'t'
   217  00259C  68                 	db	104	;'h'
   218  00259D  3A                 	db	58	;':'
   219  00259E  20                 	db	32
   220  00259F  20                 	db	32
   221  0025A0  35                 	db	53	;'5'
   222  0025A1  33                 	db	51	;'3'
   223  0025A2  00                 	db	0
   224  0025A3                     STR_2:
   225  0025A3  42                 	db	66	;'B'
   226  0025A4  69                 	db	105	;'i'
   227  0025A5  65                 	db	101	;'e'
   228  0025A6  6E                 	db	110	;'n'
   229  0025A7  76                 	db	118	;'v'
   230  0025A8  65                 	db	101	;'e'
   231  0025A9  6E                 	db	110	;'n'
   232  0025AA  69                 	db	105	;'i'
   233  0025AB  64                 	db	100	;'d'
   234  0025AC  6F                 	db	111	;'o'
   235  0025AD  73                 	db	115	;'s'
   236  0025AE  20                 	db	32
   237  0025AF  61                 	db	97	;'a'
   238  0025B0  6C                 	db	108	;'l'
   239  0025B1  20                 	db	32
   240  0025B2  63                 	db	99	;'c'
   241  0025B3  75                 	db	117	;'u'
   242  0025B4  72                 	db	114	;'r'
   243  0025B5  73                 	db	115	;'s'
   244  0025B6  6F                 	db	111	;'o'
   245  0025B7  0A                 	db	10
   246  0025B8  0D                 	db	13
   247  0025B9  00                 	db	0
   248  0025BA                     STR_3:
   249  0025BA  50                 	db	80	;'P'
   250  0025BB  49                 	db	73	;'I'
   251  0025BC  43                 	db	67	;'C'
   252  0025BD  20                 	db	32
   253  0025BE  45                 	db	69	;'E'
   254  0025BF  4E                 	db	78	;'N'
   255  0025C0  20                 	db	32
   256  0025C1  43                 	db	67	;'C'
   257  0025C2  20                 	db	32
   258  0025C3  55                 	db	85	;'U'
   259  0025C4  4D                 	db	77	;'M'
   260  0025C5  41                 	db	65	;'A'
   261  0025C6  4B                 	db	75	;'K'
   262  0025C7  45                 	db	69	;'E'
   263  0025C8  52                 	db	82	;'R'
   264  0025C9  0A                 	db	10
   265  0025CA  0D                 	db	13
   266  0025CB  00                 	db	0
   267  0025CC                     STR_4:
   268  0025CC  45                 	db	69	;'E'
   269  0025CD  4E                 	db	78	;'N'
   270  0025CE  56                 	db	86	;'V'
   271  0025CF  49                 	db	73	;'I'
   272  0025D0  4F                 	db	79	;'O'
   273  0025D1  20                 	db	32
   274  0025D2  44                 	db	68	;'D'
   275  0025D3  45                 	db	69	;'E'
   276  0025D4  20                 	db	32
   277  0025D5  44                 	db	68	;'D'
   278  0025D6  41                 	db	65	;'A'
   279  0025D7  54                 	db	84	;'T'
   280  0025D8  4F                 	db	79	;'O'
   281  0025D9  53                 	db	83	;'S'
   282  0025DA  00                 	db	0
   283  0025DB                     STR_1:
   284  0025DB  48                 	db	72	;'H'
   285  0025DC  6F                 	db	111	;'o'
   286  0025DD  6C                 	db	108	;'l'
   287  0025DE  61                 	db	97	;'a'
   288  0025DF  20                 	db	32
   289  0025E0  6D                 	db	109	;'m'
   290  0025E1  75                 	db	117	;'u'
   291  0025E2  6E                 	db	110	;'n'
   292  0025E3  64                 	db	100	;'d'
   293  0025E4  6F                 	db	111	;'o'
   294  0025E5  0A                 	db	10
   295  0025E6  0D                 	db	13
   296  0025E7  00                 	db	0
   297  0025E8  00                 	db	0	; dummy byte at the end
   298  0000                     
   299                           ; #config settings
   300                           
   301                           	psect	cinit
   302  002884                     __pcinit:
   303                           	callstack 0
   304  002884                     start_initialization:
   305                           	callstack 0
   306  002884                     __initialization:
   307                           	callstack 0
   308                           
   309                           ; Clear objects allocated to BANK5 (32 bytes)
   310  002884  EE01  F160         	lfsr	0,__pbssBANK5
   311  002888  0E20               	movlw	32
   312  00288A                     clear_0:
   313  00288A  6AEE               	clrf	postinc0,c
   314  00288C  06E8               	decf	wreg,f,c
   315  00288E  E1FD               	bnz	clear_0
   316                           
   317                           ; Clear objects allocated to COMRAM (35 bytes)
   318  002890  EE01  F101         	lfsr	0,__pbssCOMRAM
   319  002894  0E23               	movlw	35
   320  002896                     clear_1:
   321  002896  6AEE               	clrf	postinc0,c
   322  002898  06E8               	decf	wreg,f,c
   323  00289A  E1FD               	bnz	clear_1
   324  00289C                     end_of_initialization:
   325                           	callstack 0
   326  00289C                     __end_of__initialization:
   327                           	callstack 0
   328  00289C  0E00               	movlw	low (__Lsmallconst shr (0+16))
   329  00289E  6EF8               	movwf	tblptru,c
   330  0028A0  0E25               	movlw	high __Lsmallconst
   331  0028A2  6EF7               	movwf	tblptrh,c
   332  0028A4  0100               	movlb	0
   333  0028A6  EF78  F013         	goto	_main	;jump to C main() function
   334                           
   335                           	psect	bssCOMRAM
   336  000501                     __pbssCOMRAM:
   337                           	callstack 0
   338  000501                     _data_Send:
   339                           	callstack 0
   340  000501                     	ds	27
   341  00051C                     _nout:
   342                           	callstack 0
   343  00051C                     	ds	2
   344  00051E                     _width:
   345                           	callstack 0
   346  00051E                     	ds	2
   347  000520                     _prec:
   348                           	callstack 0
   349  000520                     	ds	2
   350  000522                     _flags:
   351                           	callstack 0
   352  000522                     	ds	2
   353                           
   354                           	psect	bssBANK5
   355  000560                     __pbssBANK5:
   356                           	callstack 0
   357  000560                     	ds	32
   358                           
   359                           	psect	cstackCOMRAM
   360  000524                     __pcstackCOMRAM:
   361                           	callstack 0
   362  000524                     fputc@c:
   363                           	callstack 0
   364                           
   365                           ; 2 bytes @ 0x0
   366  000524                     	ds	2
   367  000526                     fputc@fp:
   368                           	callstack 0
   369                           
   370                           ; 2 bytes @ 0x2
   371  000526                     	ds	2
   372  000528                     ??_fputc:
   373                           
   374                           ; 1 bytes @ 0x4
   375  000528                     	ds	5
   376  00052D                     ?_vfpfcnvrt:
   377                           	callstack 0
   378  00052D                     vfpfcnvrt@fp:
   379                           	callstack 0
   380                           
   381                           ; 2 bytes @ 0x9
   382  00052D                     	ds	2
   383  00052F                     vfpfcnvrt@fmt:
   384                           	callstack 0
   385                           
   386                           ; 2 bytes @ 0xB
   387  00052F                     	ds	2
   388  000531                     vfpfcnvrt@ap:
   389                           	callstack 0
   390                           
   391                           ; 2 bytes @ 0xD
   392  000531                     	ds	2
   393  000533                     ?_vfprintf:
   394                           	callstack 0
   395  000533                     vfprintf@fp:
   396                           	callstack 0
   397                           
   398                           ; 2 bytes @ 0xF
   399  000533                     	ds	2
   400  000535                     vfprintf@fmt:
   401                           	callstack 0
   402                           
   403                           ; 2 bytes @ 0x11
   404  000535                     	ds	2
   405  000537                     vfprintf@ap:
   406                           	callstack 0
   407                           
   408                           ; 2 bytes @ 0x13
   409  000537                     	ds	2
   410  000539                     vfprintf@cfmt:
   411                           	callstack 0
   412                           
   413                           ; 2 bytes @ 0x15
   414  000539                     	ds	2
   415  00053B                     ?_printf:
   416                           	callstack 0
   417  00053B                     printf@fmt:
   418                           	callstack 0
   419                           
   420                           ; 2 bytes @ 0x17
   421  00053B                     	ds	2
   422  00053D                     printf@ap:
   423                           	callstack 0
   424                           
   425                           ; 2 bytes @ 0x19
   426  00053D                     	ds	2
   427  00053F                     
   428                           ; 2 bytes @ 0x1B
   429  00053F                     	ds	2
   430  000541                     
   431                           ; 3 bytes @ 0x1D
   432  000541                     	ds	3
   433  000544                     
   434                           ; 1 bytes @ 0x20
   435 ;;
   436 ;;Main: autosize = 0, tempsize = 0, incstack = 0, save=0
   437 ;;
   438 ;; *************** function _main *****************
   439 ;; Defined at:
   440 ;;		line 27 in file "main.c"
   441 ;; Parameters:    Size  Location     Type
   442 ;;  argc            2   27[COMRAM] int 
   443 ;;  argv            3   29[COMRAM] PTR PTR unsigned char 
   444 ;; Auto vars:     Size  Location     Type
   445 ;;		None
   446 ;; Return value:  Size  Location     Type
   447 ;;                  2   27[COMRAM] int 
   448 ;; Registers used:
   449 ;;		wreg, fsr1l, fsr1h, fsr2l, fsr2h, status,2, status,0, tblptrl, tblptrh, tblptru, cstack
   450 ;; Tracked objects:
   451 ;;		On entry : 0/0
   452 ;;		On exit  : 0/0
   453 ;;		Unchanged: 0/0
   454 ;; Data sizes:     COMRAM   BANK5   BANK6   BANK7   BANK8   BANK9  BANK10  BANK11  BANK12  BANK13  BANK14  BANK15  BANK1
      +6  BANK17  BANK18  BANK19  BANK20  BANK21  BANK22  BANK23  BANK24  BANK25  BANK26  BANK27  BANK28  BANK29  BANK30  BANK3
      +1  BANK32  BANK33  BANK34  BANK35  BANK36
   455 ;;      Params:         5       0       0       0       0       0       0       0       0       0       0       0       
      +0       0       0       0       0       0       0       0       0       0       0       0       0       0       0       
      +0       0       0       0       0       0
   456 ;;      Locals:         0       0       0       0       0       0       0       0       0       0       0       0       
      +0       0       0       0       0       0       0       0       0       0       0       0       0       0       0       
      +0       0       0       0       0       0
   457 ;;      Temps:          0       0       0       0       0       0       0       0       0       0       0       0       
      +0       0       0       0       0       0       0       0       0       0       0       0       0       0       0       
      +0       0       0       0       0       0
   458 ;;      Totals:         5       0       0       0       0       0       0       0       0       0       0       0       
      +0       0       0       0       0       0       0       0       0       0       0       0       0       0       0       
      +0       0       0       0       0       0
   459 ;;Total ram usage:        5 bytes
   460 ;; Hardware stack levels required when called: 5
   461 ;; This function calls:
   462 ;;		_printf
   463 ;; This function is called by:
   464 ;;		Startup code after reset
   465 ;; This function uses a non-reentrant model
   466 ;;
   467                           
   468                           	psect	text0
   469  0026F0                     __ptext0:
   470                           	callstack 0
   471  0026F0                     _main:
   472                           	callstack 122
   473  0026F0  F000               	nop		;# 
   474  0026F2                     
   475                           ;main.c: 32:     printf("Hola mundo\n\r");
   476  0026F2  0EDB               	movlw	low STR_1
   477  0026F4  6E3B               	movwf	printf@fmt^(0+1280),c
   478  0026F6  0E25               	movlw	high STR_1
   479  0026F8  6E3C               	movwf	(printf@fmt+1)^(0+1280),c
   480  0026FA  EC55  F014         	call	_printf	;wreg free
   481                           
   482                           ;main.c: 33:     printf("Bienvenidos al curso\n\r");
   483  0026FE  0EA3               	movlw	low STR_2
   484  002700  6E3B               	movwf	printf@fmt^(0+1280),c
   485  002702  0E25               	movlw	high STR_2
   486  002704  6E3C               	movwf	(printf@fmt+1)^(0+1280),c
   487  002706  EC55  F014         	call	_printf	;wreg free
   488                           
   489                           ;main.c: 34:     printf("PIC EN C UMAKER\n\r");
   490  00270A  0EBA               	movlw	low STR_3
   491  00270C  6E3B               	movwf	printf@fmt^(0+1280),c
   492  00270E  0E25               	movlw	high STR_3
   493  002710  6E3C               	movwf	(printf@fmt+1)^(0+1280),c
   494  002712  EC55  F014         	call	_printf	;wreg free
   495  002716  F000               	nop		;# 
   496  002718                     
   497                           ;main.c: 40:     data_Send.string = "ENVIO DE DATOS";
   498  002718  0ECC               	movlw	low STR_4
   499  00271A  6E01               	movwf	_data_Send^(0+1280),c
   500  00271C  0E25               	movlw	high STR_4
   501  00271E  6E02               	movwf	(_data_Send+1)^(0+1280),c
   502  002720                     
   503                           ;main.c: 41:     data_Send.Adc_read[0]= 5225;
   504  002720  0E14               	movlw	20
   505  002722  6E04               	movwf	(_data_Send+3)^(0+1280),c
   506  002724  0E69               	movlw	105
   507  002726  6E03               	movwf	(_data_Send+2)^(0+1280),c
   508  002728                     
   509                           ;main.c: 42:     data_Send.Adc_read[1]= 250;
   510  002728  0E00               	movlw	0
   511  00272A  6E06               	movwf	(_data_Send+5)^(0+1280),c
   512  00272C  0EFA               	movlw	250
   513  00272E  6E05               	movwf	(_data_Send+4)^(0+1280),c
   514  002730                     
   515                           ;main.c: 43:     data_Send.Adc_read[2]= 4336;
   516  002730  0E10               	movlw	16
   517  002732  6E08               	movwf	(_data_Send+7)^(0+1280),c
   518  002734  0EF0               	movlw	240
   519  002736  6E07               	movwf	(_data_Send+6)^(0+1280),c
   520  002738                     
   521                           ;main.c: 44:     data_Send.SensorHumedad = 102.56;
   522  002738  0EB8               	movlw	184
   523  00273A  6E16               	movwf	(_data_Send+21)^(0+1280),c
   524  00273C  0E1E               	movlw	30
   525  00273E  6E17               	movwf	(_data_Send+22)^(0+1280),c
   526  002740  0ECD               	movlw	205
   527  002742  6E18               	movwf	(_data_Send+23)^(0+1280),c
   528  002744  0E42               	movlw	66
   529  002746  6E19               	movwf	(_data_Send+24)^(0+1280),c
   530  002748                     
   531                           ;main.c: 45:     data_Send.StatusButton[0]= 1;
   532  002748  0E01               	movlw	1
   533  00274A  6E09               	movwf	(_data_Send+8)^(0+1280),c
   534  00274C                     
   535                           ;main.c: 46:     data_Send.StatusButton[1]= 1;
   536  00274C  0E01               	movlw	1
   537  00274E  6E0A               	movwf	(_data_Send+9)^(0+1280),c
   538  002750                     
   539                           ;main.c: 47:     data_Send.StatusButton[2]= 0;
   540  002750  0E00               	movlw	0
   541  002752  6E0B               	movwf	(_data_Send+10)^(0+1280),c
   542  002754                     
   543                           ;main.c: 48:     data_Send.StatusButton[3]= 1;
   544  002754  0E01               	movlw	1
   545  002756  6E0C               	movwf	(_data_Send+11)^(0+1280),c
   546  002758                     
   547                           ;main.c: 49:     data_Send.StatusButton[4]= 0;
   548  002758  0E00               	movlw	0
   549  00275A  6E0D               	movwf	(_data_Send+12)^(0+1280),c
   550  00275C                     
   551                           ;main.c: 50:     data_Send.Termocuplas[0] = 27.3655;
   552  00275C  0E8B               	movlw	139
   553  00275E  6E0E               	movwf	(_data_Send+13)^(0+1280),c
   554  002760  0EEC               	movlw	236
   555  002762  6E0F               	movwf	(_data_Send+14)^(0+1280),c
   556  002764  0EDA               	movlw	218
   557  002766  6E10               	movwf	(_data_Send+15)^(0+1280),c
   558  002768  0E41               	movlw	65
   559  00276A  6E11               	movwf	(_data_Send+16)^(0+1280),c
   560  00276C                     
   561                           ;main.c: 51:     data_Send.Termocuplas[1] = 87.3655;
   562  00276C  0E23               	movlw	35
   563  00276E  6E12               	movwf	(_data_Send+17)^(0+1280),c
   564  002770  0EBB               	movlw	187
   565  002772  6E13               	movwf	(_data_Send+18)^(0+1280),c
   566  002774  0EAE               	movlw	174
   567  002776  6E14               	movwf	(_data_Send+19)^(0+1280),c
   568  002778  0E42               	movlw	66
   569  00277A  6E15               	movwf	(_data_Send+20)^(0+1280),c
   570  00277C                     
   571                           ;main.c: 52:     data_Send.JSON = "POST /api/v1.6/devices/dspic/?token=BBFF-7ZM4xDD1WEPQ
      +                          Tp9PuKSvrPFiVcEld2 HTTP/1.1Host: industrial.api.ubidots.comContent-Type: application/jso
      +                          nContent-Length:  53";
   572  00277C  0E01               	movlw	low STR_5
   573  00277E  6E1A               	movwf	(_data_Send+25)^(0+1280),c
   574  002780  0E25               	movlw	high STR_5
   575  002782  6E1B               	movwf	(_data_Send+26)^(0+1280),c
   576  002784                     l21:
   577                           
   578                           ;main.c: 59:     }
   579  002784  EFC2  F013         	goto	l21
   580  002788  EFFE  F0FF         	goto	start
   581  00278C                     __end_of_main:
   582                           	callstack 0
   583                           
   584 ;; *************** function _printf *****************
   585 ;; Defined at:
   586 ;;		line 5 in file "C:\Program Files\Microchip\xc8\v2.32\pic\sources\c99\common\printf.c"
   587 ;; Parameters:    Size  Location     Type
   588 ;;  fmt             2   23[COMRAM] PTR const unsigned char 
   589 ;;		 -> STR_3(18), STR_2(23), STR_1(13), 
   590 ;; Auto vars:     Size  Location     Type
   591 ;;  ap              2   25[COMRAM] PTR void [1]
   592 ;;		 -> ?_printf(2), 
   593 ;;  ret             2    0        int 
   594 ;; Return value:  Size  Location     Type
   595 ;;                  2   23[COMRAM] int 
   596 ;; Registers used:
   597 ;;		wreg, fsr1l, fsr1h, fsr2l, fsr2h, status,2, status,0, tblptrl, tblptrh, tblptru, cstack
   598 ;; Tracked objects:
   599 ;;		On entry : 0/0
   600 ;;		On exit  : 0/0
   601 ;;		Unchanged: 0/0
   602 ;; Data sizes:     COMRAM   BANK5   BANK6   BANK7   BANK8   BANK9  BANK10  BANK11  BANK12  BANK13  BANK14  BANK15  BANK1
      +6  BANK17  BANK18  BANK19  BANK20  BANK21  BANK22  BANK23  BANK24  BANK25  BANK26  BANK27  BANK28  BANK29  BANK30  BANK3
      +1  BANK32  BANK33  BANK34  BANK35  BANK36
   603 ;;      Params:         2       0       0       0       0       0       0       0       0       0       0       0       
      +0       0       0       0       0       0       0       0       0       0       0       0       0       0       0       
      +0       0       0       0       0       0
   604 ;;      Locals:         2       0       0       0       0       0       0       0       0       0       0       0       
      +0       0       0       0       0       0       0       0       0       0       0       0       0       0       0       
      +0       0       0       0       0       0
   605 ;;      Temps:          0       0       0       0       0       0       0       0       0       0       0       0       
      +0       0       0       0       0       0       0       0       0       0       0       0       0       0       0       
      +0       0       0       0       0       0
   606 ;;      Totals:         4       0       0       0       0       0       0       0       0       0       0       0       
      +0       0       0       0       0       0       0       0       0       0       0       0       0       0       0       
      +0       0       0       0       0       0
   607 ;;Total ram usage:        4 bytes
   608 ;; Hardware stack levels used: 1
   609 ;; Hardware stack levels required when called: 4
   610 ;; This function calls:
   611 ;;		_vfprintf
   612 ;; This function is called by:
   613 ;;		_main
   614 ;; This function uses a non-reentrant model
   615 ;;
   616                           
   617                           	psect	text1
   618  0028AA                     __ptext1:
   619                           	callstack 0
   620  0028AA                     _printf:
   621                           	callstack 122
   622  0028AA  0E3D               	movlw	low (?_printf+2)
   623  0028AC  6E3D               	movwf	printf@ap^(0+1280),c
   624  0028AE  0E05               	movlw	high (?_printf+2)
   625  0028B0  6E3E               	movwf	(printf@ap+1)^(0+1280),c
   626  0028B2  0E00               	movlw	0
   627  0028B4  6E33               	movwf	vfprintf@fp^(0+1280),c
   628  0028B6  0E00               	movlw	0
   629  0028B8  6E34               	movwf	(vfprintf@fp+1)^(0+1280),c
   630  0028BA  C53B  F535         	movff	printf@fmt,vfprintf@fmt
   631  0028BE  C53C  F536         	movff	printf@fmt+1,vfprintf@fmt+1
   632  0028C2  0E3D               	movlw	low printf@ap
   633  0028C4  6E37               	movwf	vfprintf@ap^(0+1280),c
   634  0028C6  0E05               	movlw	high printf@ap
   635  0028C8  6E38               	movwf	(vfprintf@ap+1)^(0+1280),c
   636  0028CA  EC11  F014         	call	_vfprintf	;wreg free
   637  0028CE  0012               	return		;funcret
   638  0028D0                     __end_of_printf:
   639                           	callstack 0
   640                           
   641 ;; *************** function _vfprintf *****************
   642 ;; Defined at:
   643 ;;		line 1390 in file "C:\Program Files\Microchip\xc8\v2.32\pic\sources\c99\common\doprnt.c"
   644 ;; Parameters:    Size  Location     Type
   645 ;;  fp              2   15[COMRAM] PTR struct _IO_FILE
   646 ;;		 -> NULL(0), 
   647 ;;  fmt             2   17[COMRAM] PTR const unsigned char 
   648 ;;		 -> STR_3(18), STR_2(23), STR_1(13), 
   649 ;;  ap              2   19[COMRAM] PTR PTR void 
   650 ;;		 -> printf@ap(2), 
   651 ;; Auto vars:     Size  Location     Type
   652 ;;  cfmt            2   21[COMRAM] PTR unsigned char 
   653 ;;		 -> STR_3(18), STR_2(23), STR_1(13), 
   654 ;; Return value:  Size  Location     Type
   655 ;;                  2   15[COMRAM] int 
   656 ;; Registers used:
   657 ;;		wreg, fsr1l, fsr1h, fsr2l, fsr2h, status,2, status,0, tblptrl, tblptrh, tblptru, cstack
   658 ;; Tracked objects:
   659 ;;		On entry : 0/0
   660 ;;		On exit  : 0/0
   661 ;;		Unchanged: 0/0
   662 ;; Data sizes:     COMRAM   BANK5   BANK6   BANK7   BANK8   BANK9  BANK10  BANK11  BANK12  BANK13  BANK14  BANK15  BANK1
      +6  BANK17  BANK18  BANK19  BANK20  BANK21  BANK22  BANK23  BANK24  BANK25  BANK26  BANK27  BANK28  BANK29  BANK30  BANK3
      +1  BANK32  BANK33  BANK34  BANK35  BANK36
   663 ;;      Params:         6       0       0       0       0       0       0       0       0       0       0       0       
      +0       0       0       0       0       0       0       0       0       0       0       0       0       0       0       
      +0       0       0       0       0       0
   664 ;;      Locals:         2       0       0       0       0       0       0       0       0       0       0       0       
      +0       0       0       0       0       0       0       0       0       0       0       0       0       0       0       
      +0       0       0       0       0       0
   665 ;;      Temps:          0       0       0       0       0       0       0       0       0       0       0       0       
      +0       0       0       0       0       0       0       0       0       0       0       0       0       0       0       
      +0       0       0       0       0       0
   666 ;;      Totals:         8       0       0       0       0       0       0       0       0       0       0       0       
      +0       0       0       0       0       0       0       0       0       0       0       0       0       0       0       
      +0       0       0       0       0       0
   667 ;;Total ram usage:        8 bytes
   668 ;; Hardware stack levels used: 1
   669 ;; Hardware stack levels required when called: 3
   670 ;; This function calls:
   671 ;;		_vfpfcnvrt
   672 ;; This function is called by:
   673 ;;		_printf
   674 ;; This function uses a non-reentrant model
   675 ;;
   676                           
   677                           	psect	text2
   678  002822                     __ptext2:
   679                           	callstack 0
   680  002822                     _vfprintf:
   681                           	callstack 122
   682  002822                     
   683                           ;C:\Program Files\Microchip\xc8\v2.32\pic\sources\c99\common\doprnt.c: 1390: int vfprint
      +                          f(FILE *fp, const char *fmt, va_list ap);C:\Program Files\Microchip\xc8\v2.32\pic\source
      +                          s\c99\common\doprnt.c: 1391: {;C:\Program Files\Microchip\xc8\v2.32\pic\sources\c99\comm
      +                          on\doprnt.c: 1393:     char *cfmt;;C:\Program Files\Microchip\xc8\v2.32\pic\sources\c99\
      +                          common\doprnt.c: 1395:     cfmt = (char *)fmt;
   684  002822  C535  F539         	movff	vfprintf@fmt,vfprintf@cfmt
   685  002826  C536  F53A         	movff	vfprintf@fmt+1,vfprintf@cfmt+1
   686  00282A                     
   687                           ;C:\Program Files\Microchip\xc8\v2.32\pic\sources\c99\common\doprnt.c: 1396:     nout = 
      +                          0;
   688  00282A  0E00               	movlw	0
   689  00282C  6E1D               	movwf	(_nout+1)^(0+1280),c
   690  00282E  0E00               	movlw	0
   691  002830  6E1C               	movwf	_nout^(0+1280),c
   692                           
   693                           ;C:\Program Files\Microchip\xc8\v2.32\pic\sources\c99\common\doprnt.c: 1397:     while (
      +                          *cfmt) {
   694  002832  EF2D  F014         	goto	l916
   695  002836                     l914:
   696                           
   697                           ;C:\Program Files\Microchip\xc8\v2.32\pic\sources\c99\common\doprnt.c: 1398:         nou
      +                          t += vfpfcnvrt(fp, &cfmt, ap);
   698  002836  C533  F52D         	movff	vfprintf@fp,vfpfcnvrt@fp
   699  00283A  C534  F52E         	movff	vfprintf@fp+1,vfpfcnvrt@fp+1
   700  00283E  0E39               	movlw	low vfprintf@cfmt
   701  002840  6E2F               	movwf	vfpfcnvrt@fmt^(0+1280),c
   702  002842  0E05               	movlw	high vfprintf@cfmt
   703  002844  6E30               	movwf	(vfpfcnvrt@fmt+1)^(0+1280),c
   704  002846  C537  F531         	movff	vfprintf@ap,vfpfcnvrt@ap
   705  00284A  C538  F532         	movff	vfprintf@ap+1,vfpfcnvrt@ap+1
   706  00284E  ECF5  F012         	call	_vfpfcnvrt	;wreg free
   707  002852  502D               	movf	?_vfpfcnvrt^(0+1280),w,c
   708  002854  261C               	addwf	_nout^(0+1280),f,c
   709  002856  502E               	movf	(?_vfpfcnvrt+1)^(0+1280),w,c
   710  002858  221D               	addwfc	(_nout+1)^(0+1280),f,c
   711  00285A                     l916:
   712                           
   713                           ;C:\Program Files\Microchip\xc8\v2.32\pic\sources\c99\common\doprnt.c: 1397:     while (
      +                          *cfmt) {
   714  00285A  0061  F4E4  F4F6   	movff	vfprintf@cfmt,tblptrl
   715  002860  0061  F4E8  F4F7   	movff	vfprintf@cfmt+1,tblptrh
   716  002866                     	if	0	;tblptru may be non-zero
   717  002866                     	endif
   718  002866                     	if	0	;tblptru may be non-zero
   719  002866                     	endif
   720  002866  0008               	tblrd		*
   721  002868  50F5               	movf	tablat,w,c
   722  00286A  0900               	iorlw	0
   723  00286C  A4D8               	btfss	status,2,c
   724  00286E  EF3B  F014         	goto	u141
   725  002872  EF3D  F014         	goto	u140
   726  002876                     u141:
   727  002876  EF1B  F014         	goto	l914
   728  00287A                     u140:
   729  00287A                     
   730                           ;C:\Program Files\Microchip\xc8\v2.32\pic\sources\c99\common\doprnt.c: 1400:     return 
      +                          nout;
   731  00287A  C51C  F533         	movff	_nout,?_vfprintf
   732  00287E  C51D  F534         	movff	_nout+1,?_vfprintf+1
   733  002882  0012               	return		;funcret
   734  002884                     __end_of_vfprintf:
   735                           	callstack 0
   736                           
   737 ;; *************** function _vfpfcnvrt *****************
   738 ;; Defined at:
   739 ;;		line 692 in file "C:\Program Files\Microchip\xc8\v2.32\pic\sources\c99\common\doprnt.c"
   740 ;; Parameters:    Size  Location     Type
   741 ;;  fp              2    9[COMRAM] PTR struct _IO_FILE
   742 ;;		 -> NULL(0), 
   743 ;;  fmt             2   11[COMRAM] PTR PTR unsigned char 
   744 ;;		 -> vfprintf@cfmt(2), 
   745 ;;  ap              2   13[COMRAM] PTR PTR void 
   746 ;;		 -> printf@ap(2), 
   747 ;; Auto vars:     Size  Location     Type
   748 ;;  llu             8    0        unsigned long long 
   749 ;;  ll              8    0        long long 
   750 ;;  f               4    0        long long 
   751 ;;  vp              3    0        PTR void 
   752 ;;  ct              3    0        unsigned char [3]
   753 ;;  cp              3    0        PTR unsigned char 
   754 ;;  i               2    0        int 
   755 ;;  done            2    0        int 
   756 ;;  c               1    0        unsigned char 
   757 ;; Return value:  Size  Location     Type
   758 ;;                  2    9[COMRAM] int 
   759 ;; Registers used:
   760 ;;		wreg, fsr1l, fsr1h, fsr2l, fsr2h, status,2, status,0, tblptrl, tblptrh, tblptru, cstack
   761 ;; Tracked objects:
   762 ;;		On entry : 0/0
   763 ;;		On exit  : 0/0
   764 ;;		Unchanged: 0/0
   765 ;; Data sizes:     COMRAM   BANK5   BANK6   BANK7   BANK8   BANK9  BANK10  BANK11  BANK12  BANK13  BANK14  BANK15  BANK1
      +6  BANK17  BANK18  BANK19  BANK20  BANK21  BANK22  BANK23  BANK24  BANK25  BANK26  BANK27  BANK28  BANK29  BANK30  BANK3
      +1  BANK32  BANK33  BANK34  BANK35  BANK36
   766 ;;      Params:         6       0       0       0       0       0       0       0       0       0       0       0       
      +0       0       0       0       0       0       0       0       0       0       0       0       0       0       0       
      +0       0       0       0       0       0
   767 ;;      Locals:         0       0       0       0       0       0       0       0       0       0       0       0       
      +0       0       0       0       0       0       0       0       0       0       0       0       0       0       0       
      +0       0       0       0       0       0
   768 ;;      Temps:          0       0       0       0       0       0       0       0       0       0       0       0       
      +0       0       0       0       0       0       0       0       0       0       0       0       0       0       0       
      +0       0       0       0       0       0
   769 ;;      Totals:         6       0       0       0       0       0       0       0       0       0       0       0       
      +0       0       0       0       0       0       0       0       0       0       0       0       0       0       0       
      +0       0       0       0       0       0
   770 ;;Total ram usage:        6 bytes
   771 ;; Hardware stack levels used: 1
   772 ;; Hardware stack levels required when called: 2
   773 ;; This function calls:
   774 ;;		_fputc
   775 ;; This function is called by:
   776 ;;		_vfprintf
   777 ;; This function uses a non-reentrant model
   778 ;;
   779                           
   780                           	psect	text3
   781  0025EA                     __ptext3:
   782                           	callstack 0
   783  0025EA                     _vfpfcnvrt:
   784                           	callstack 122
   785  0025EA                     
   786                           ;C:\Program Files\Microchip\xc8\v2.32\pic\sources\c99\common\doprnt.c: 692: static int v
      +                          fpfcnvrt(FILE *fp, char *fmt[], va_list ap);C:\Program Files\Microchip\xc8\v2.32\pic\sou
      +                          rces\c99\common\doprnt.c: 693: {;C:\Program Files\Microchip\xc8\v2.32\pic\sources\c99\co
      +                          mmon\doprnt.c: 694:     char c, *cp, ct[3];;C:\Program Files\Microchip\xc8\v2.32\pic\sou
      +                          rces\c99\common\doprnt.c: 695:     int done, i;;C:\Program Files\Microchip\xc8\v2.32\pic
      +                          \sources\c99\common\doprnt.c: 696:     long long ll;;C:\Program Files\Microchip\xc8\v2.3
      +                          2\pic\sources\c99\common\doprnt.c: 697:     unsigned long long llu;
   787  0025EA  0061  F4BC  F4D9   	movff	vfpfcnvrt@fmt,fsr2l
   788  0025F0  0061  F4C0  F4DA   	movff	vfpfcnvrt@fmt+1,fsr2h
   789  0025F6  C4DE F4F6          	movff	postinc2,tblptrl
   790  0025FA  C4DD F4F7          	movff	postdec2,tblptrh
   791  0025FE                     	if	0	;tblptru may be non-zero
   792  0025FE                     	endif
   793  0025FE                     	if	0	;tblptru may be non-zero
   794  0025FE                     	endif
   795  0025FE  0008               	tblrd		*
   796  002600  50F5               	movf	tablat,w,c
   797  002602  0A25               	xorlw	37
   798  002604  A4D8               	btfss	status,2,c
   799  002606  EF07  F013         	goto	u121
   800  00260A  EF09  F013         	goto	u120
   801  00260E                     u121:
   802  00260E  EF58  F013         	goto	l902
   803  002612                     u120:
   804  002612                     
   805                           ;C:\Program Files\Microchip\xc8\v2.32\pic\sources\c99\common\doprnt.c: 703:         ++*f
      +                          mt;
   806  002612  0061  F4BC  F4D9   	movff	vfpfcnvrt@fmt,fsr2l
   807  002618  0061  F4C0  F4DA   	movff	vfpfcnvrt@fmt+1,fsr2h
   808  00261E  2ADE               	incf	postinc2,f,c
   809  002620  0E00               	movlw	0
   810  002622  22DD               	addwfc	postdec2,f,c
   811  002624                     
   812                           ;C:\Program Files\Microchip\xc8\v2.32\pic\sources\c99\common\doprnt.c: 705:         flag
      +                          s = width = 0;
   813  002624  0E00               	movlw	0
   814  002626  6E1F               	movwf	(_width+1)^(0+1280),c
   815  002628  0E00               	movlw	0
   816  00262A  6E1E               	movwf	_width^(0+1280),c
   817  00262C  C51E  F522         	movff	_width,_flags
   818  002630  C51F  F523         	movff	_width+1,_flags+1
   819  002634                     
   820                           ;C:\Program Files\Microchip\xc8\v2.32\pic\sources\c99\common\doprnt.c: 706:         prec
      +                           = -1;
   821  002634  6820               	setf	_prec^(0+1280),c
   822  002636  6821               	setf	(_prec+1)^(0+1280),c
   823  002638                     
   824                           ;C:\Program Files\Microchip\xc8\v2.32\pic\sources\c99\common\doprnt.c: 1372:         if 
      +                          ((*fmt)[0] == '%') {
   825  002638  0061  F4BC  F4D9   	movff	vfpfcnvrt@fmt,fsr2l
   826  00263E  0061  F4C0  F4DA   	movff	vfpfcnvrt@fmt+1,fsr2h
   827  002644  C4DE F4F6          	movff	postinc2,tblptrl
   828  002648  C4DD F4F7          	movff	postdec2,tblptrh
   829  00264C                     	if	0	;tblptru may be non-zero
   830  00264C                     	endif
   831  00264C                     	if	0	;tblptru may be non-zero
   832  00264C                     	endif
   833  00264C  0008               	tblrd		*
   834  00264E  50F5               	movf	tablat,w,c
   835  002650  0A25               	xorlw	37
   836  002652  A4D8               	btfss	status,2,c
   837  002654  EF2E  F013         	goto	u131
   838  002658  EF30  F013         	goto	u130
   839  00265C                     u131:
   840  00265C  EF49  F013         	goto	l896
   841  002660                     u130:
   842  002660                     
   843                           ;C:\Program Files\Microchip\xc8\v2.32\pic\sources\c99\common\doprnt.c: 1373:            
      +                           ++*fmt;
   844  002660  0061  F4BC  F4D9   	movff	vfpfcnvrt@fmt,fsr2l
   845  002666  0061  F4C0  F4DA   	movff	vfpfcnvrt@fmt+1,fsr2h
   846  00266C  2ADE               	incf	postinc2,f,c
   847  00266E  0E00               	movlw	0
   848  002670  22DD               	addwfc	postdec2,f,c
   849  002672                     
   850                           ;C:\Program Files\Microchip\xc8\v2.32\pic\sources\c99\common\doprnt.c: 1374:            
      +                           fputc((int)'%', fp);
   851  002672  0E00               	movlw	0
   852  002674  6E25               	movwf	(fputc@c+1)^(0+1280),c
   853  002676  0E25               	movlw	37
   854  002678  6E24               	movwf	fputc@c^(0+1280),c
   855  00267A  C52D  F526         	movff	vfpfcnvrt@fp,fputc@fp
   856  00267E  C52E  F527         	movff	vfpfcnvrt@fp+1,fputc@fp+1
   857  002682  ECC6  F013         	call	_fputc	;wreg free
   858  002686                     l892:
   859                           
   860                           ;C:\Program Files\Microchip\xc8\v2.32\pic\sources\c99\common\doprnt.c: 1375:            
      +                           return 1;
   861  002686  0E00               	movlw	0
   862  002688  6E2E               	movwf	(?_vfpfcnvrt+1)^(0+1280),c
   863  00268A  0E01               	movlw	1
   864  00268C  6E2D               	movwf	?_vfpfcnvrt^(0+1280),c
   865  00268E  EF77  F013         	goto	l737
   866  002692                     l896:
   867                           
   868                           ;C:\Program Files\Microchip\xc8\v2.32\pic\sources\c99\common\doprnt.c: 1379:         ++*
      +                          fmt;
   869  002692  0061  F4BC  F4D9   	movff	vfpfcnvrt@fmt,fsr2l
   870  002698  0061  F4C0  F4DA   	movff	vfpfcnvrt@fmt+1,fsr2h
   871  00269E  2ADE               	incf	postinc2,f,c
   872  0026A0  0E00               	movlw	0
   873  0026A2  22DD               	addwfc	postdec2,f,c
   874  0026A4                     
   875                           ;C:\Program Files\Microchip\xc8\v2.32\pic\sources\c99\common\doprnt.c: 1380:         ret
      +                          urn 0;
   876  0026A4  0E00               	movlw	0
   877  0026A6  6E2E               	movwf	(?_vfpfcnvrt+1)^(0+1280),c
   878  0026A8  0E00               	movlw	0
   879  0026AA  6E2D               	movwf	?_vfpfcnvrt^(0+1280),c
   880  0026AC  EF77  F013         	goto	l737
   881  0026B0                     l902:
   882                           
   883                           ;C:\Program Files\Microchip\xc8\v2.32\pic\sources\c99\common\doprnt.c: 1384:     fputc((
      +                          int)(*fmt)[0], fp);
   884  0026B0  0061  F4BC  F4D9   	movff	vfpfcnvrt@fmt,fsr2l
   885  0026B6  0061  F4C0  F4DA   	movff	vfpfcnvrt@fmt+1,fsr2h
   886  0026BC  C4DE F4F6          	movff	postinc2,tblptrl
   887  0026C0  C4DD F4F7          	movff	postdec2,tblptrh
   888  0026C4                     	if	0	;tblptru may be non-zero
   889  0026C4                     	endif
   890  0026C4                     	if	0	;tblptru may be non-zero
   891  0026C4                     	endif
   892  0026C4  0008               	tblrd		*
   893  0026C6  50F5               	movf	tablat,w,c
   894  0026C8  6E24               	movwf	fputc@c^(0+1280),c
   895  0026CA  6A25               	clrf	(fputc@c+1)^(0+1280),c
   896  0026CC  C52D  F526         	movff	vfpfcnvrt@fp,fputc@fp
   897  0026D0  C52E  F527         	movff	vfpfcnvrt@fp+1,fputc@fp+1
   898  0026D4  ECC6  F013         	call	_fputc	;wreg free
   899  0026D8                     
   900                           ;C:\Program Files\Microchip\xc8\v2.32\pic\sources\c99\common\doprnt.c: 1385:     ++*fmt;
   901  0026D8  0061  F4BC  F4D9   	movff	vfpfcnvrt@fmt,fsr2l
   902  0026DE  0061  F4C0  F4DA   	movff	vfpfcnvrt@fmt+1,fsr2h
   903  0026E4  2ADE               	incf	postinc2,f,c
   904  0026E6  0E00               	movlw	0
   905  0026E8  22DD               	addwfc	postdec2,f,c
   906  0026EA  EF43  F013         	goto	l892
   907  0026EE                     l737:
   908  0026EE  0012               	return		;funcret
   909  0026F0                     __end_of_vfpfcnvrt:
   910                           	callstack 0
   911                           
   912 ;; *************** function _fputc *****************
   913 ;; Defined at:
   914 ;;		line 8 in file "C:\Program Files\Microchip\xc8\v2.32\pic\sources\c99\common\nf_fputc.c"
   915 ;; Parameters:    Size  Location     Type
   916 ;;  c               2    0[COMRAM] int 
   917 ;;  fp              2    2[COMRAM] PTR struct _IO_FILE
   918 ;;		 -> NULL(0), 
   919 ;; Auto vars:     Size  Location     Type
   920 ;;		None
   921 ;; Return value:  Size  Location     Type
   922 ;;                  2    0[COMRAM] int 
   923 ;; Registers used:
   924 ;;		wreg, fsr1l, fsr1h, fsr2l, fsr2h, status,2, status,0, cstack
   925 ;; Tracked objects:
   926 ;;		On entry : 0/0
   927 ;;		On exit  : 0/0
   928 ;;		Unchanged: 0/0
   929 ;; Data sizes:     COMRAM   BANK5   BANK6   BANK7   BANK8   BANK9  BANK10  BANK11  BANK12  BANK13  BANK14  BANK15  BANK1
      +6  BANK17  BANK18  BANK19  BANK20  BANK21  BANK22  BANK23  BANK24  BANK25  BANK26  BANK27  BANK28  BANK29  BANK30  BANK3
      +1  BANK32  BANK33  BANK34  BANK35  BANK36
   930 ;;      Params:         4       0       0       0       0       0       0       0       0       0       0       0       
      +0       0       0       0       0       0       0       0       0       0       0       0       0       0       0       
      +0       0       0       0       0       0
   931 ;;      Locals:         0       0       0       0       0       0       0       0       0       0       0       0       
      +0       0       0       0       0       0       0       0       0       0       0       0       0       0       0       
      +0       0       0       0       0       0
   932 ;;      Temps:          5       0       0       0       0       0       0       0       0       0       0       0       
      +0       0       0       0       0       0       0       0       0       0       0       0       0       0       0       
      +0       0       0       0       0       0
   933 ;;      Totals:         9       0       0       0       0       0       0       0       0       0       0       0       
      +0       0       0       0       0       0       0       0       0       0       0       0       0       0       0       
      +0       0       0       0       0       0
   934 ;;Total ram usage:        9 bytes
   935 ;; Hardware stack levels used: 1
   936 ;; Hardware stack levels required when called: 1
   937 ;; This function calls:
   938 ;;		_putch
   939 ;; This function is called by:
   940 ;;		_vfpfcnvrt
   941 ;; This function uses a non-reentrant model
   942 ;;
   943                           
   944                           	psect	text4
   945  00278C                     __ptext4:
   946                           	callstack 0
   947  00278C                     _fputc:
   948                           	callstack 122
   949  00278C  5026               	movf	fputc@fp^(0+1280),w,c
   950  00278E  1027               	iorwf	(fputc@fp+1)^(0+1280),w,c
   951  002790  B4D8               	btfsc	status,2,c
   952  002792  EFCD  F013         	goto	u81
   953  002796  EFCF  F013         	goto	u80
   954  00279A                     u81:
   955  00279A  EFD8  F013         	goto	l868
   956  00279E                     u80:
   957  00279E  5026               	movf	fputc@fp^(0+1280),w,c
   958  0027A0  1027               	iorwf	(fputc@fp+1)^(0+1280),w,c
   959  0027A2  A4D8               	btfss	status,2,c
   960  0027A4  EFD6  F013         	goto	u91
   961  0027A8  EFD8  F013         	goto	u90
   962  0027AC                     u91:
   963  0027AC  EFDD  F013         	goto	l870
   964  0027B0                     u90:
   965  0027B0                     l868:
   966  0027B0  5024               	movf	fputc@c^(0+1280),w,c
   967  0027B2  EC68  F014         	call	_putch
   968  0027B6  EF10  F014         	goto	l755
   969  0027BA                     l870:
   970  0027BA  EE20 F004          	lfsr	2,4
   971  0027BE  5026               	movf	fputc@fp^(0+1280),w,c
   972  0027C0  26D9               	addwf	fsr2l,f,c
   973  0027C2  5027               	movf	(fputc@fp+1)^(0+1280),w,c
   974  0027C4  22DA               	addwfc	fsr2h,f,c
   975  0027C6  50DE               	movf	postinc2,w,c
   976  0027C8  10DE               	iorwf	postinc2,w,c
   977  0027CA  B4D8               	btfsc	status,2,c
   978  0027CC  EFEA  F013         	goto	u101
   979  0027D0  EFEC  F013         	goto	u100
   980  0027D4                     u101:
   981  0027D4  EF07  F014         	goto	l874
   982  0027D8                     u100:
   983  0027D8  EE20 F004          	lfsr	2,4
   984  0027DC  5026               	movf	fputc@fp^(0+1280),w,c
   985  0027DE  26D9               	addwf	fsr2l,f,c
   986  0027E0  5027               	movf	(fputc@fp+1)^(0+1280),w,c
   987  0027E2  22DA               	addwfc	fsr2h,f,c
   988  0027E4  EE10 F002          	lfsr	1,2
   989  0027E8  5026               	movf	fputc@fp^(0+1280),w,c
   990  0027EA  26E1               	addwf	fsr1l,f,c
   991  0027EC  5027               	movf	(fputc@fp+1)^(0+1280),w,c
   992  0027EE  22E2               	addwfc	fsr1h,f,c
   993  0027F0  50DE               	movf	postinc2,w,c
   994  0027F2  5CE6               	subwf	postinc1,w,c
   995  0027F4  50E6               	movf	postinc1,w,c
   996  0027F6  0A80               	xorlw	128
   997  0027F8  6E2C               	movwf	(??_fputc+4)^(0+1280),c
   998  0027FA  50DE               	movf	postinc2,w,c
   999  0027FC  0A80               	xorlw	128
  1000  0027FE  582C               	subwfb	(??_fputc+4)^(0+1280),w,c
  1001  002800  B0D8               	btfsc	status,0,c
  1002  002802  EF05  F014         	goto	u111
  1003  002806  EF07  F014         	goto	u110
  1004  00280A                     u111:
  1005  00280A  EF10  F014         	goto	l755
  1006  00280E                     u110:
  1007  00280E                     l874:
  1008  00280E  EE20 F002          	lfsr	2,2
  1009  002812  5026               	movf	fputc@fp^(0+1280),w,c
  1010  002814  26D9               	addwf	fsr2l,f,c
  1011  002816  5027               	movf	(fputc@fp+1)^(0+1280),w,c
  1012  002818  22DA               	addwfc	fsr2h,f,c
  1013  00281A  2ADE               	incf	postinc2,f,c
  1014  00281C  0E00               	movlw	0
  1015  00281E  22DD               	addwfc	postdec2,f,c
  1016  002820                     l755:
  1017  002820  0012               	return		;funcret
  1018  002822                     __end_of_fputc:
  1019                           	callstack 0
  1020                           
  1021 ;; *************** function _putch *****************
  1022 ;; Defined at:
  1023 ;;		line 7 in file "C:\Program Files\Microchip\xc8\v2.32\pic\sources\c99\common\putch.c"
  1024 ;; Parameters:    Size  Location     Type
  1025 ;;  c               1    wreg     unsigned char 
  1026 ;; Auto vars:     Size  Location     Type
  1027 ;;  c               1    0[COMRAM] unsigned char 
  1028 ;; Return value:  Size  Location     Type
  1029 ;;                  1    wreg      void 
  1030 ;; Registers used:
  1031 ;;		wreg
  1032 ;; Tracked objects:
  1033 ;;		On entry : 0/0
  1034 ;;		On exit  : 0/0
  1035 ;;		Unchanged: 0/0
  1036 ;; Data sizes:     COMRAM   BANK5   BANK6   BANK7   BANK8   BANK9  BANK10  BANK11  BANK12  BANK13  BANK14  BANK15  BANK1
      +6  BANK17  BANK18  BANK19  BANK20  BANK21  BANK22  BANK23  BANK24  BANK25  BANK26  BANK27  BANK28  BANK29  BANK30  BANK3
      +1  BANK32  BANK33  BANK34  BANK35  BANK36
  1037 ;;      Params:         0       0       0       0       0       0       0       0       0       0       0       0       
      +0       0       0       0       0       0       0       0       0       0       0       0       0       0       0       
      +0       0       0       0       0       0
  1038 ;;      Locals:         0       0       0       0       0       0       0       0       0       0       0       0       
      +0       0       0       0       0       0       0       0       0       0       0       0       0       0       0       
      +0       0       0       0       0       0
  1039 ;;      Temps:          0       0       0       0       0       0       0       0       0       0       0       0       
      +0       0       0       0       0       0       0       0       0       0       0       0       0       0       0       
      +0       0       0       0       0       0
  1040 ;;      Totals:         0       0       0       0       0       0       0       0       0       0       0       0       
      +0       0       0       0       0       0       0       0       0       0       0       0       0       0       0       
      +0       0       0       0       0       0
  1041 ;;Total ram usage:        0 bytes
  1042 ;; Hardware stack levels used: 1
  1043 ;; This function calls:
  1044 ;;		Nothing
  1045 ;; This function is called by:
  1046 ;;		_fputc
  1047 ;; This function uses a non-reentrant model
  1048 ;;
  1049                           
  1050                           	psect	text5
  1051  0028D0                     __ptext5:
  1052                           	callstack 0
  1053  0028D0                     _putch:
  1054                           	callstack 122
  1055  0028D0  0012               	return		;funcret
  1056  0028D2                     __end_of_putch:
  1057                           	callstack 0
  1058                           
  1059                           	psect	rparam
  1060  0000                     
  1061                           	psect	idloc
  1062                           
  1063                           ;Config register IDLOC0 @ 0x200000
  1064                           ;	unspecified, using default values
  1065  200000                     	org	2097152
  1066  200000  0FFF               	dw	4095
  1067                           
  1068                           ;Config register IDLOC1 @ 0x200002
  1069                           ;	unspecified, using default values
  1070  200002                     	org	2097154
  1071  200002  0FFF               	dw	4095
  1072                           
  1073                           ;Config register IDLOC2 @ 0x200004
  1074                           ;	unspecified, using default values
  1075  200004                     	org	2097156
  1076  200004  0FFF               	dw	4095
  1077                           
  1078                           ;Config register IDLOC3 @ 0x200006
  1079                           ;	unspecified, using default values
  1080  200006                     	org	2097158
  1081  200006  0FFF               	dw	4095
  1082                           
  1083                           ;Config register IDLOC4 @ 0x200008
  1084                           ;	unspecified, using default values
  1085  200008                     	org	2097160
  1086  200008  0FFF               	dw	4095
  1087                           
  1088                           ;Config register IDLOC5 @ 0x20000A
  1089                           ;	unspecified, using default values
  1090  20000A                     	org	2097162
  1091  20000A  0FFF               	dw	4095
  1092                           
  1093                           ;Config register IDLOC6 @ 0x20000C
  1094                           ;	unspecified, using default values
  1095  20000C                     	org	2097164
  1096  20000C  0FFF               	dw	4095
  1097                           
  1098                           ;Config register IDLOC7 @ 0x20000E
  1099                           ;	unspecified, using default values
  1100  20000E                     	org	2097166
  1101  20000E  0FFF               	dw	4095
  1102                           
  1103                           ;Config register IDLOC8 @ 0x200010
  1104                           ;	unspecified, using default values
  1105  200010                     	org	2097168
  1106  200010  0FFF               	dw	4095
  1107                           
  1108                           ;Config register IDLOC9 @ 0x200012
  1109                           ;	unspecified, using default values
  1110  200012                     	org	2097170
  1111  200012  0FFF               	dw	4095
  1112                           
  1113                           ;Config register IDLOC10 @ 0x200014
  1114                           ;	unspecified, using default values
  1115  200014                     	org	2097172
  1116  200014  0FFF               	dw	4095
  1117                           
  1118                           ;Config register IDLOC11 @ 0x200016
  1119                           ;	unspecified, using default values
  1120  200016                     	org	2097174
  1121  200016  0FFF               	dw	4095
  1122                           
  1123                           ;Config register IDLOC12 @ 0x200018
  1124                           ;	unspecified, using default values
  1125  200018                     	org	2097176
  1126  200018  0FFF               	dw	4095
  1127                           
  1128                           ;Config register IDLOC13 @ 0x20001A
  1129                           ;	unspecified, using default values
  1130  20001A                     	org	2097178
  1131  20001A  0FFF               	dw	4095
  1132                           
  1133                           ;Config register IDLOC14 @ 0x20001C
  1134                           ;	unspecified, using default values
  1135  20001C                     	org	2097180
  1136  20001C  0FFF               	dw	4095
  1137                           
  1138                           ;Config register IDLOC15 @ 0x20001E
  1139                           ;	unspecified, using default values
  1140  20001E                     	org	2097182
  1141  20001E  0FFF               	dw	4095
  1142                           
  1143                           ;Config register IDLOC16 @ 0x200020
  1144                           ;	unspecified, using default values
  1145  200020                     	org	2097184
  1146  200020  0FFF               	dw	4095
  1147                           
  1148                           ;Config register IDLOC17 @ 0x200022
  1149                           ;	unspecified, using default values
  1150  200022                     	org	2097186
  1151  200022  0FFF               	dw	4095
  1152                           
  1153                           ;Config register IDLOC18 @ 0x200024
  1154                           ;	unspecified, using default values
  1155  200024                     	org	2097188
  1156  200024  0FFF               	dw	4095
  1157                           
  1158                           ;Config register IDLOC19 @ 0x200026
  1159                           ;	unspecified, using default values
  1160  200026                     	org	2097190
  1161  200026  0FFF               	dw	4095
  1162                           
  1163                           ;Config register IDLOC20 @ 0x200028
  1164                           ;	unspecified, using default values
  1165  200028                     	org	2097192
  1166  200028  0FFF               	dw	4095
  1167                           
  1168                           ;Config register IDLOC21 @ 0x20002A
  1169                           ;	unspecified, using default values
  1170  20002A                     	org	2097194
  1171  20002A  0FFF               	dw	4095
  1172                           
  1173                           ;Config register IDLOC22 @ 0x20002C
  1174                           ;	unspecified, using default values
  1175  20002C                     	org	2097196
  1176  20002C  0FFF               	dw	4095
  1177                           
  1178                           ;Config register IDLOC23 @ 0x20002E
  1179                           ;	unspecified, using default values
  1180  20002E                     	org	2097198
  1181  20002E  0FFF               	dw	4095
  1182                           
  1183                           ;Config register IDLOC24 @ 0x200030
  1184                           ;	unspecified, using default values
  1185  200030                     	org	2097200
  1186  200030  0FFF               	dw	4095
  1187                           
  1188                           ;Config register IDLOC25 @ 0x200032
  1189                           ;	unspecified, using default values
  1190  200032                     	org	2097202
  1191  200032  0FFF               	dw	4095
  1192                           
  1193                           ;Config register IDLOC26 @ 0x200034
  1194                           ;	unspecified, using default values
  1195  200034                     	org	2097204
  1196  200034  0FFF               	dw	4095
  1197                           
  1198                           ;Config register IDLOC27 @ 0x200036
  1199                           ;	unspecified, using default values
  1200  200036                     	org	2097206
  1201  200036  0FFF               	dw	4095
  1202                           
  1203                           ;Config register IDLOC28 @ 0x200038
  1204                           ;	unspecified, using default values
  1205  200038                     	org	2097208
  1206  200038  0FFF               	dw	4095
  1207                           
  1208                           ;Config register IDLOC29 @ 0x20003A
  1209                           ;	unspecified, using default values
  1210  20003A                     	org	2097210
  1211  20003A  0FFF               	dw	4095
  1212                           
  1213                           ;Config register IDLOC30 @ 0x20003C
  1214                           ;	unspecified, using default values
  1215  20003C                     	org	2097212
  1216  20003C  0FFF               	dw	4095
  1217                           
  1218                           ;Config register IDLOC31 @ 0x20003E
  1219                           ;	unspecified, using default values
  1220  20003E                     	org	2097214
  1221  20003E  0FFF               	dw	4095
  1222                           
  1223                           	psect	config
  1224                           
  1225                           ;Config register CONFIG1 @ 0x300000
  1226                           ;	unspecified, using default values
  1227                           ;	External Oscillator Selection
  1228                           ;	FEXTOSC = 0x7, unprogrammed default
  1229                           ;	Reset Oscillator Selection
  1230                           ;	RSTOSC = 0x7, unprogrammed default
  1231  300000                     	org	3145728
  1232  300000  FF                 	db	255
  1233                           
  1234                           ;Config register CONFIG2 @ 0x300001
  1235                           ;	unspecified, using default values
  1236                           ;	Clock out Enable bit
  1237                           ;	CLKOUTEN = 0x1, unprogrammed default
  1238                           ;	PRLOCKED One-Way Set Enable bit
  1239                           ;	PR1WAY = 0x1, unprogrammed default
  1240                           ;	Clock Switch Enable bit
  1241                           ;	CSWEN = 0x1, unprogrammed default
  1242                           ;	Fail-Safe Clock Monitor Enable bit
  1243                           ;	FCMEN = 0x1, unprogrammed default
  1244  300001                     	org	3145729
  1245  300001  FF                 	db	255
  1246                           
  1247                           ;Config register CONFIG3 @ 0x300002
  1248                           ;	unspecified, using default values
  1249                           ;	MCLR Enable bit
  1250                           ;	MCLRE = 0x1, unprogrammed default
  1251                           ;	Power-up timer selection bits
  1252                           ;	PWRTS = 0x3, unprogrammed default
  1253                           ;	Multi-vector enable bit
  1254                           ;	MVECEN = 0x1, unprogrammed default
  1255                           ;	IVTLOCK bit One-way set enable bit
  1256                           ;	IVT1WAY = 0x1, unprogrammed default
  1257                           ;	Low Power BOR Enable bit
  1258                           ;	LPBOREN = 0x1, unprogrammed default
  1259                           ;	Brown-out Reset Enable bits
  1260                           ;	BOREN = 0x3, unprogrammed default
  1261  300002                     	org	3145730
  1262  300002  FF                 	db	255
  1263                           
  1264                           ;Config register CONFIG4 @ 0x300003
  1265                           ;	unspecified, using default values
  1266                           ;	Brown-out Reset Voltage Selection bits
  1267                           ;	BORV = 0x3, unprogrammed default
  1268                           ;	ZCD Disable bit
  1269                           ;	ZCD = 0x1, unprogrammed default
  1270                           ;	PPSLOCK bit One-Way Set Enable bit
  1271                           ;	PPS1WAY = 0x1, unprogrammed default
  1272                           ;	Stack Full/Underflow Reset Enable bit
  1273                           ;	STVREN = 0x1, unprogrammed default
  1274                           ;	Low Voltage Programming Enable bit
  1275                           ;	LVP = 0x1, unprogrammed default
  1276                           ;	Extended Instruction Set Enable bit
  1277                           ;	XINST = 0x1, unprogrammed default
  1278  300003                     	org	3145731
  1279  300003  FF                 	db	255
  1280                           
  1281                           ;Config register CONFIG5 @ 0x300004
  1282                           ;	unspecified, using default values
  1283                           ;	WDT Period selection bits
  1284                           ;	WDTCPS = 0x1F, unprogrammed default
  1285                           ;	WDT operating mode
  1286                           ;	WDTE = 0x3, unprogrammed default
  1287  300004                     	org	3145732
  1288  300004  FF                 	db	255
  1289                           
  1290                           ;Config register CONFIG6 @ 0x300005
  1291                           ;	unspecified, using default values
  1292                           ;	WDT Window Select bits
  1293                           ;	WDTCWS = 0x7, unprogrammed default
  1294                           ;	WDT input clock selector
  1295                           ;	WDTCCS = 0x7, unprogrammed default
  1296  300005                     	org	3145733
  1297  300005  FF                 	db	255
  1298                           
  1299                           ;Config register CONFIG7 @ 0x300006
  1300                           ;	unspecified, using default values
  1301                           ;	Boot Block Size selection bits
  1302                           ;	BBSIZE = 0x7, unprogrammed default
  1303                           ;	Boot Block enable bit
  1304                           ;	BBEN = 0x1, unprogrammed default
  1305                           ;	Storage Area Flash enable bit
  1306                           ;	SAFEN = 0x1, unprogrammed default
  1307                           ;	Background Debugger
  1308                           ;	DEBUG = 0x1, unprogrammed default
  1309  300006                     	org	3145734
  1310  300006  FF                 	db	255
  1311                           
  1312                           ;Config register CONFIG8 @ 0x300007
  1313                           ;	unspecified, using default values
  1314                           ;	Boot Block Write Protection bit
  1315                           ;	WRTB = 0x1, unprogrammed default
  1316                           ;	Configuration Register Write Protection bit
  1317                           ;	WRTC = 0x1, unprogrammed default
  1318                           ;	Data EEPROM Write Protection bit
  1319                           ;	WRTD = 0x1, unprogrammed default
  1320                           ;	SAF Write protection bit
  1321                           ;	WRTSAF = 0x1, unprogrammed default
  1322                           ;	Application Block write protection bit
  1323                           ;	WRTAPP = 0x1, unprogrammed default
  1324  300007                     	org	3145735
  1325  300007  FF                 	db	255
  1326                           
  1327                           ; Padding undefined space
  1328  300008                     	org	3145736
  1329  300008  FF                 	db	255
  1330                           
  1331                           ;Config register CONFIG10 @ 0x300009
  1332                           ;	unspecified, using default values
  1333                           ;	PFM and Data EEPROM Code Protection bit
  1334                           ;	CP = 0x1, unprogrammed default
  1335  300009                     	org	3145737
  1336  300009  FF                 	db	255
  1337                           tosu	equ	0x4FF
  1338                           tosh	equ	0x4FE
  1339                           tosl	equ	0x4FD
  1340                           stkptr	equ	0x4FC
  1341                           pclatu	equ	0x4FB
  1342                           pclath	equ	0x4FA
  1343                           pcl	equ	0x4F9
  1344                           tblptru	equ	0x4F8
  1345                           tblptrh	equ	0x4F7
  1346                           tblptrl	equ	0x4F6
  1347                           tablat	equ	0x4F5
  1348                           prodh	equ	0x4F4
  1349                           prodl	equ	0x4F3
  1350                           indf0	equ	0x4EF
  1351                           postinc0	equ	0x4EE
  1352                           postdec0	equ	0x4ED
  1353                           preinc0	equ	0x4EC
  1354                           plusw0	equ	0x4EB
  1355                           fsr0h	equ	0x4EA
  1356                           fsr0l	equ	0x4E9
  1357                           wreg	equ	0x4E8
  1358                           indf1	equ	0x4E7
  1359                           postinc1	equ	0x4E6
  1360                           postdec1	equ	0x4E5
  1361                           preinc1	equ	0x4E4
  1362                           plusw1	equ	0x4E3
  1363                           fsr1h	equ	0x4E2
  1364                           fsr1l	equ	0x4E1
  1365                           bsr	equ	0x4E0
  1366                           indf2	equ	0x4DF
  1367                           postinc2	equ	0x4DE
  1368                           postdec2	equ	0x4DD
  1369                           preinc2	equ	0x4DC
  1370                           plusw2	equ	0x4DB
  1371                           fsr2h	equ	0x4DA
  1372                           fsr2l	equ	0x4D9
  1373                           status	equ	0x4D8

Data Sizes:
    Strings     231
    Constant    0
    Data        0
    BSS         67
    Persistent  0
    Stack       0

Auto Spaces:
    Space          Size  Autos    Used
    COMRAM           95     32      67
    BANK5           160      0      32
    BANK6           256      0       0
    BANK7           256      0       0
    BANK8           256      0       0
    BANK9           256      0       0
    BANK10          256      0       0
    BANK11          256      0       0
    BANK12          256      0       0
    BANK13          256      0       0
    BANK14          256      0       0
    BANK15          256      0       0
    BANK16          256      0       0
    BANK17          256      0       0
    BANK18          256      0       0
    BANK19          256      0       0
    BANK20          256      0       0
    BANK21          256      0       0
    BANK22          256      0       0
    BANK23          256      0       0
    BANK24          256      0       0
    BANK25          256      0       0
    BANK26          256      0       0
    BANK27          256      0       0
    BANK28          256      0       0
    BANK29          256      0       0
    BANK30          256      0       0
    BANK31          256      0       0
    BANK32          256      0       0
    BANK33          256      0       0
    BANK34          256      0       0
    BANK35          256      0       0
    BANK36          256      0       0

Pointer List with Targets:

    vfpfcnvrt@ap	PTR PTR void  size(2) Largest target is 2
		 -> printf@ap(COMRAM[2]), 

    S507_IO_FILE$buffer	PTR unsigned char  size(2) Largest target is 0

    fputc@fp.buffer	PTR unsigned char  size(2) Largest target is 0

    fputc@fp	PTR struct _IO_FILE size(2) Largest target is 0
		 -> NULL(NULL[0]), 

    vfprintf@ap	PTR PTR void  size(2) Largest target is 2
		 -> printf@ap(COMRAM[2]), 

    vfprintf@fp	PTR struct _IO_FILE size(2) Largest target is 0
		 -> NULL(NULL[0]), 

    vfprintf@fmt	PTR const unsigned char  size(2) Largest target is 23
		 -> STR_3(CODE[18]), STR_2(CODE[23]), STR_1(CODE[13]), 

    vfprintf@cfmt	PTR unsigned char  size(2) Largest target is 23
		 -> STR_3(CODE[18]), STR_2(CODE[23]), STR_1(CODE[13]), 

    vfpfcnvrt@fp	PTR struct _IO_FILE size(2) Largest target is 0
		 -> NULL(NULL[0]), 

    vfpfcnvrt@fmt	PTR PTR unsigned char  size(2) Largest target is 2
		 -> vfprintf@cfmt(COMRAM[2]), 

    printf@fmt	PTR const unsigned char  size(2) Largest target is 23
		 -> STR_3(CODE[18]), STR_2(CODE[23]), STR_1(CODE[13]), 

    printf@ap	PTR void [1] size(2) Largest target is 2
		 -> ?_printf(COMRAM[2]), 

    S35$JSON	PTR unsigned char  size(2) Largest target is 162
		 -> STR_5(CODE[162]), 

    data_Send.JSON	PTR unsigned char  size(2) Largest target is 162
		 -> STR_5(CODE[162]), 

    S35$string	PTR unsigned char  size(2) Largest target is 15
		 -> STR_4(CODE[15]), 

    data_Send.string	PTR unsigned char  size(2) Largest target is 15
		 -> STR_4(CODE[15]), 


Critical Paths under _main in COMRAM

    _main->_printf
    _printf->_vfprintf
    _vfprintf->_vfpfcnvrt
    _vfpfcnvrt->_fputc

Critical Paths under _main in BANK5

    None.

Critical Paths under _main in BANK6

    None.

Critical Paths under _main in BANK7

    None.

Critical Paths under _main in BANK8

    None.

Critical Paths under _main in BANK9

    None.

Critical Paths under _main in BANK10

    None.

Critical Paths under _main in BANK11

    None.

Critical Paths under _main in BANK12

    None.

Critical Paths under _main in BANK13

    None.

Critical Paths under _main in BANK14

    None.

Critical Paths under _main in BANK15

    None.

Critical Paths under _main in BANK16

    None.

Critical Paths under _main in BANK17

    None.

Critical Paths under _main in BANK18

    None.

Critical Paths under _main in BANK19

    None.

Critical Paths under _main in BANK20

    None.

Critical Paths under _main in BANK21

    None.

Critical Paths under _main in BANK22

    None.

Critical Paths under _main in BANK23

    None.

Critical Paths under _main in BANK24

    None.

Critical Paths under _main in BANK25

    None.

Critical Paths under _main in BANK26

    None.

Critical Paths under _main in BANK27

    None.

Critical Paths under _main in BANK28

    None.

Critical Paths under _main in BANK29

    None.

Critical Paths under _main in BANK30

    None.

Critical Paths under _main in BANK31

    None.

Critical Paths under _main in BANK32

    None.

Critical Paths under _main in BANK33

    None.

Critical Paths under _main in BANK34

    None.

Critical Paths under _main in BANK35

    None.

Critical Paths under _main in BANK36

    None.

Call Graph Tables:

 ---------------------------------------------------------------------------------
 (Depth) Function   	        Calls       Base Space   Used Autos Params    Refs
 ---------------------------------------------------------------------------------
 (0) _main                                                 5     0      5    1772
                                             27 COMRAM     5     0      5
                             _printf
 ---------------------------------------------------------------------------------
 (1) _printf                                               6     4      2    1772
                                             23 COMRAM     4     2      2
                           _vfprintf
 ---------------------------------------------------------------------------------
 (2) _vfprintf                                             8     2      6    1492
                                             15 COMRAM     8     2      6
                          _vfpfcnvrt
 ---------------------------------------------------------------------------------
 (3) _vfpfcnvrt                                           40    34      6    1142
                                              9 COMRAM     6     0      6
                              _fputc
 ---------------------------------------------------------------------------------
 (4) _fputc                                                9     5      4     716
                                              0 COMRAM     9     5      4
                              _putch
 ---------------------------------------------------------------------------------
 (5) _putch                                                1     1      0       0
 ---------------------------------------------------------------------------------
 Estimated maximum stack depth 5
 ---------------------------------------------------------------------------------

 Call Graph Graphs:

 _main (ROOT)
   _printf
     _vfprintf
       _vfpfcnvrt
         _fputc
           _putch

 Address spaces:
Name               Size   Autos  Total    Cost      Usage
BIGRAM            1FFF      0       0      69        0.0%
EEDATA             400      0       0       0        0.0%
BITBANK36          100      0       0      66        0.0%
BANK36             100      0       0      67        0.0%
BITBANK35          100      0       0      64        0.0%
BANK35             100      0       0      65        0.0%
BITBANK34          100      0       0      62        0.0%
BANK34             100      0       0      63        0.0%
BITBANK33          100      0       0      60        0.0%
BANK33             100      0       0      61        0.0%
BITBANK32          100      0       0      58        0.0%
BANK32             100      0       0      59        0.0%
BITBANK31          100      0       0      56        0.0%
BANK31             100      0       0      57        0.0%
BITBANK30          100      0       0      54        0.0%
BANK30             100      0       0      55        0.0%
BITBANK29          100      0       0      52        0.0%
BANK29             100      0       0      53        0.0%
BITBANK28          100      0       0      50        0.0%
BANK28             100      0       0      51        0.0%
BITBANK27          100      0       0      48        0.0%
BANK27             100      0       0      49        0.0%
BITBANK26          100      0       0      46        0.0%
BANK26             100      0       0      47        0.0%
BITBANK25          100      0       0      44        0.0%
BANK25             100      0       0      45        0.0%
BITBANK24          100      0       0      42        0.0%
BANK24             100      0       0      43        0.0%
BITBANK23          100      0       0      40        0.0%
BANK23             100      0       0      41        0.0%
BITBANK22          100      0       0      38        0.0%
BANK22             100      0       0      39        0.0%
BITBANK21          100      0       0      36        0.0%
BANK21             100      0       0      37        0.0%
BITBANK20          100      0       0      34        0.0%
BANK20             100      0       0      35        0.0%
BITBANK19          100      0       0      32        0.0%
BANK19             100      0       0      33        0.0%
BITBANK18          100      0       0      30        0.0%
BANK18             100      0       0      31        0.0%
BITBANK17          100      0       0      28        0.0%
BANK17             100      0       0      29        0.0%
BITBANK16          100      0       0      26        0.0%
BANK16             100      0       0      27        0.0%
BITBANK15          100      0       0      24        0.0%
BANK15             100      0       0      25        0.0%
BITBANK14          100      0       0      22        0.0%
BANK14             100      0       0      23        0.0%
BITBANK13          100      0       0      20        0.0%
BANK13             100      0       0      21        0.0%
BITBANK12          100      0       0      18        0.0%
BANK12             100      0       0      19        0.0%
BITBANK11          100      0       0      16        0.0%
BANK11             100      0       0      17        0.0%
BITBANK10          100      0       0      14        0.0%
BANK10             100      0       0      15        0.0%
BITBANK9           100      0       0      12        0.0%
BANK9              100      0       0      13        0.0%
BITBANK8           100      0       0      10        0.0%
BANK8              100      0       0      11        0.0%
BITBANK7           100      0       0       8        0.0%
BANK7              100      0       0       9        0.0%
BITBANK6           100      0       0       6        0.0%
BANK6              100      0       0       7        0.0%
BITBANK5            A0      0       0       4        0.0%
BANK5               A0      0      20       5       20.0%
BITCOMRAM           5F      0       0       0        0.0%
COMRAM              5F     20      43       1       70.5%
BITSFR_6             0      0       0     200        0.0%
SFR_6                0      0       0     200        0.0%
BITSFR_5             0      0       0     200        0.0%
SFR_5                0      0       0     200        0.0%
BITSFR_4             0      0       0     200        0.0%
SFR_4                0      0       0     200        0.0%
BITSFR_3             0      0       0     200        0.0%
SFR_3                0      0       0     200        0.0%
BITSFR_2             0      0       0     200        0.0%
SFR_2                0      0       0     200        0.0%
BITSFR_1             0      0       0     200        0.0%
SFR_1                0      0       0     200        0.0%
BITSFR               0      0       0     200        0.0%
SFR                  0      0       0     200        0.0%
STACK                0      0       0       2        0.0%
NULL                 0      0       0       0        0.0%
ABS                  0      0      63      68        0.0%
DATA                 0      0      63       3        0.0%
CODE                 0      0       0       0        0.0%


Microchip Technology PIC18 Macro Assembler V2.32 build 20210201212658 
Symbol Table                                                                                   Sun Jan 29 17:23:04 2023

                     l21 2784                       u80 279E                       u81 279A  
                     u90 27B0                       u91 27AC                      l704 28CE  
                    l902 26B0                      l742 287A                      l910 2822  
                    l743 2882                      l904 26D8                      l912 282A  
                    l920 28B2                      l737 26EE                      l914 2836  
                    l930 2720                      l755 2820                      l916 285A  
                    l940 274C                      l932 2728                      l924 26F0  
                    l766 28D0                      l870 27BA                      l918 28AA  
                    l950 276C                      l942 2750                      l934 2730  
                    l926 26F2                      l872 27D8                      l864 278C  
                    l880 2612                      l952 277C                      l944 2754  
                    l936 2738                      l928 2718                      l874 280E  
                    l866 279E                      l890 2672                      l882 2624  
                    l946 2758                      l938 2748                      l868 27B0  
                    l892 2686                      l884 2634                      l948 275C  
                    l886 2638                      l878 25EA                      l888 2660  
                    l896 2692                      l898 26A4                      u100 27D8  
                    u101 27D4                      u110 280E                      u111 280A  
                    u120 2612                      u121 260E                      u130 2660  
                    u131 265C                      u140 287A                      u141 2876  
                    wreg 0004E8                     STR_1 25DB                     STR_2 25A3  
                   STR_3 25BA                     STR_4 25CC                     STR_5 2501  
                   _dbuf 0560                     _main 26F0                     _prec 0520  
                   _nout 051C                     fsr1h 0004E2                     fsr2h 0004DA  
                   fsr1l 0004E1                     fsr2l 0004D9                     start FFFC  
           ___param_bank 000000                    ?_main 053F             vfpfcnvrt@fmt 052F  
                  _flags 0522                    _fputc 278C                    _width 051E  
                  _putch 28D0                    tablat 0004F5                    status 0004D8  
        __initialization 2884             __end_of_main 278C                   ??_main 0544  
          __activetblptr 000001                   ?_fputc 0524                   ?_putch 0524  
           vfprintf@cfmt 0539                   clear_0 288A                   clear_1 2896  
                 isa$std 000001                   _printf 28AA                   fputc@c 0524  
           __mediumconst 0000                   tblptrh 0004F7                   tblptrl 0004F6  
                 tblptru 0004F8                   putch@c 0524         __end_of_vfprintf 2884  
             __accesstop 0560  __end_of__initialization 289C            ___rparam_used 000001  
         __pcstackCOMRAM 0524            __end_of_fputc 2822            __end_of_putch 28D2  
                ??_fputc 0528                  ??_putch 0524               __pbssBANK5 0560  
                ?_printf 053B       __size_of_vfpfcnvrt 0106                  __Hparam 0000  
                __Lparam 0000                ?_vfprintf 0533             __psmallconst 2500  
                __pcinit 2884                  __ramtop 2500                  __ptext0 26F0  
                __ptext1 28AA                  __ptext2 2822                  __ptext3 25EA  
                __ptext4 278C                  __ptext5 28D0          __size_of_printf 0026  
   end_of_initialization 289C                  fputc@fp 0526        __end_of_vfpfcnvrt 26F0  
                postdec2 0004DD                  postinc0 0004EE                  postinc1 0004E6  
                postinc2 0004DE               ??_vfprintf 0539              vfpfcnvrt@ap 0531  
            vfpfcnvrt@fp 052D           __end_of_printf 28D0      start_initialization 2884  
            vfprintf@fmt 0535                 ??_printf 053D              __pbssCOMRAM 0501  
              _data_Send 0501        __size_of_vfprintf 0062              __smallconst 2500  
         __size_of_fputc 0096           __size_of_putch 0002                _vfpfcnvrt 25EA  
               __Hrparam 0000               vfprintf@ap 0537                 __Lrparam 0000  
             vfprintf@fp 0533             __Lsmallconst 2500               ?_vfpfcnvrt 052D  
          __size_of_main 009C                 isa$xinst 000000                 _vfprintf 2822  
              printf@fmt 053B                 main@argc 053F                 main@argv 0541  
               printf@ap 053D              ??_vfpfcnvrt 0533  
